 Simpsons

 Timestamp is 3f626ef4 (Fri Sep 12 18:12:20 2003)

 Preferred load address is 00400000

 Start         Length     Name                   Class
 0001:00000000 001da7ffH .text                   CODE
 0001:001da800 0000b06aH .text$x                 CODE
 0001:001e5870 0000b8d0H .text$yc                CODE
 0001:001f1140 00000430H .text$yd                CODE
 0002:00000000 00000298H .idata$5                DATA
 0002:000002a0 00024f80H .rdata                  DATA
 0002:00025220 0001bc84H .rdata$r                DATA
 0002:00040ea4 00000004H .rtc$IAA                DATA
 0002:00040ea8 00000004H .rtc$IZZ                DATA
 0002:00040eac 00000004H .rtc$TAA                DATA
 0002:00040eb0 00000004H .rtc$TZZ                DATA
 0002:00040eb8 0000c154H .xdata$x                DATA
 0002:0004d00c 00000064H .idata$2                DATA
 0002:0004d070 00000014H .idata$3                DATA
 0002:0004d084 00000298H .idata$4                DATA
 0002:0004d31c 00000b66H .idata$6                DATA
 0002:0004de90 000002e6H .edata                  DATA
 0003:00000000 00000004H .CRT$XCA                DATA
 0003:00000004 00000004H .CRT$XCAA               DATA
 0003:00000008 0000130cH .CRT$XCU                DATA
 0003:00001314 00000004H .CRT$XCZ                DATA
 0003:00001318 00000004H .CRT$XIA                DATA
 0003:0000131c 00000010H .CRT$XIC                DATA
 0003:0000132c 00000004H .CRT$XIY                DATA
 0003:00001330 00000004H .CRT$XIZ                DATA
 0003:00001334 00000004H .CRT$XPA                DATA
 0003:00001338 00000004H .CRT$XPX                DATA
 0003:0000133c 00000004H .CRT$XPZ                DATA
 0003:00001340 00000004H .CRT$XTA                DATA
 0003:00001344 00000004H .CRT$XTB                DATA
 0003:00001348 00000004H .CRT$XTZ                DATA
 0003:00001350 0001a180H .data                   DATA
 0003:0001b4e0 00074d38H .bss                    DATA
 0004:00000000 000000e8H .rsrc$01                DATA
 0004:000000f0 000019e8H .rsrc$02                DATA

  Address         Publics by Value              Rva+Base     Lib:Object

 0000:00000000       __except_list              00000000     <absolute>
 0001:00000000       ?Update@ButtonHandler@ActionButton@@UAEXM@Z 00401000 f i actionbuttonhandler.obj
 0001:00000000       ?StoreHandlingCollisions@tTempStore@@UAEXPAVtEntity@@@Z 00401000 f i pure3dwr:loadmanager.obj
 0001:00000010       ?Reset@ButtonHandler@ActionButton@@UAEXXZ 00401010 f i actionbuttonhandler.obj
 0001:00000020       ?GetType@ButtonHandler@ActionButton@@UAE?AW4Type@12@XZ 00401020 f i actionbuttonhandler.obj
 0001:00000020       ?GetType@ActionEventHandler@ActionButton@@UAE?AW4Type@ButtonHandler@2@XZ 00401020 f i actionbuttonhandler.obj
 0001:00000020       ?GetType@RailCam@@UAE?AW4Type@SuperCam@@XZ 00401020 f i railcam.obj
 0001:00000020       ?GetDataType@PedGroupLocator@@UBE?AW4Type@LocatorType@@XZ 00401020 f i locatorloader.obj
 0001:00000030       ?SaveImage@tDXTNHandler@@UAE_NPAVtImage@@PAD@Z 00401030 f i pure3dwr:dxtn.obj
 0001:00000030       ?OnButtonPressed@AutoPlayAnimInOut@ActionButton@@MAE_NPAVCharacter@@PAVSequencer@@@Z 00401030 f i actionbuttonhandler.obj
 0001:00000030       ?SaveImage@tPNGHandler@@UAE_NPAVtImage@@PAD@Z 00401030 f i pure3dwr:png.obj
 0001:00000030       ?SaveImage@tBMPHandler@@UAE_NPAVtImage@@PAD@Z 00401030 f i pure3dwr:bmp.obj
 0001:00000030       ?SaveImage@tImageHandler@@UAE_NPAVtImage@@PAD@Z 00401030 f i pure3dwr:imagefactory.obj
 0001:00000030       ?OnButtonPressed@AutomaticDoor@ActionButton@@MAE_NPAVCharacter@@PAVSequencer@@@Z 00401030 f i automaticdoor.obj
 0001:00000030       ?ImpulseReaction@PhysicsJoint0D@sim@@MAE_NABVVector@RadicalMathLibrary@@AAV34@@Z 00401030 f i simwr:physicsjoint.obj
 0001:00000030       ?OnButtonPressed@ButtonHandler@ActionButton@@MAE_NPAVCharacter@@PAVSequencer@@@Z 00401030 f i actionbuttonhandler.obj
 0001:00000030       ?OnButtonPressed@AutoPlayAnim@ActionButton@@MAE_NPAVCharacter@@PAVSequencer@@@Z 00401030 f i actionbuttonhandler.obj
 0001:00000030       ?GetBoundingBox@RectTriggerVolume@@UBE_NAAVVector@RadicalMathLibrary@@0@Z 00401030 f i recttriggervolume.obj
 0001:00000040       ?GetDataType@CarStartLocator@@UBE?AW4Type@LocatorType@@XZ 00401040 f i carstartlocator.obj
 0001:00000040       ?GetType@EnterInterior@ActionButton@@UAE?AW4Type@ButtonHandler@2@XZ 00401040 f i actionbuttonhandler.obj
 0001:00000040       ?GetStateID@GetIn@CharacterAi@@UBE?AW4CharacterState@2@XZ 00401040 f i state.obj
 0001:00000050       ?GetDataType@InteriorEntranceLocator@@UBE?AW4Type@LocatorType@@XZ 00401050 f i interiorentrancelocator.obj
 0001:00000050       ?GetType@GetInCar@ActionButton@@UAE?AW4Type@ButtonHandler@2@XZ 00401050 f i actionbuttonhandler.obj
 0001:00000050       ?GetType@WrecklessCam@@UAE?AW4Type@SuperCam@@XZ 00401050 f i wrecklesscam.obj
 0001:00000060       ?Create@ActionEventHandler@ActionButton@@UAE_NPAVtEntityStore@@@Z 00401060 f i actionbuttonhandler.obj
 0001:00000060       ?IsCacheEmpty@SimulatedObject@sim@@UBE_NH@Z 00401060 f i simwr:simulatedobject.obj
 0001:00000060       ?TriggerAllowed@Locator@@UAE_NH@Z 00401060 f i spawnpoint.obj
 0001:00000060       ?ValidCollision@PhysicsObject@sim@@UBE_NPBV12@@Z 00401060 f i simwr:physicsobject.obj
 0001:00000060       ?Create@TeleportAction@ActionButton@@UAE_NPAVtEntityStore@@@Z 00401060 f i actionbuttonhandler.obj
 0001:00000060       ?CheckChunkID@tEventAnimTextLoader@@UAE_NI@Z 00401060 f i pure3dwr:eventanimation.obj
 0001:00000060       ?DoesIntersect@BoxPts@@UAE_NAAVAAPlane3f@@@Z 00401060 f i BoxPts.obj
 0001:00000060       ?CheckChunkID@tSequencerLoader@@UAE_NI@Z 00401060 f i pure3dwr:sequencer.obj
 0001:00000060       ?DoesntIntersect@BoxPts@@UAE_NAAVAAPlane3f@@@Z 00401060 f i BoxPts.obj
 0001:00000070       ?UsesActionButton@AnimSwitch@ActionButton@@UBE_NXZ 00401070 f i actionbuttonhandler.obj
 0001:00000070       ?IsSleeping@Task@@QAE_NXZ  00401070 f i task.obj
 0001:00000080       ?NeedsUpdate@AnimSwitch@ActionButton@@UBE_NXZ 00401080 f i actionbuttonhandler.obj
 0001:00000090       ?GetStateID@GetOut@CharacterAi@@UBE?AW4CharacterState@2@XZ 00401090 f i state.obj
 0001:00000090       ?GetNumProperties@Win32Platform@@UBEHXZ 00401090 f i win32platform.obj
 0001:00000090       ?GetAIRef@FenceEntityDSG@@UAEHXZ 00401090 f i FenceEntityDSG.obj
 0001:00000090       ?GetType@BumperCam@@UAE?AW4Type@SuperCam@@XZ 00401090 f i bumpercam.obj
 0001:00000090       ?GetDataType@SplineLocator@@UBE?AW4Type@LocatorType@@XZ 00401090 f i splinelocator.obj
 0001:00000090       ?GetType@AnimSwitch@ActionButton@@UAE?AW4Type@ButtonHandler@2@XZ 00401090 f i actionbuttonhandler.obj
 0001:000000a0       ?IsInstanceEnabled@DestroyObject@ActionButton@@UBE_NXZ 004010a0 f i actionbuttonhandler.obj
 0001:000000b0       ?GetType@SummonVehiclePhone@ActionButton@@UAE?AW4Type@ButtonHandler@2@XZ 004010b0 f i actionbuttonhandler.obj
 0001:000000b0       ?GetStateID@InCar@CharacterAi@@UBE?AW4CharacterState@2@XZ 004010b0 f i state.obj
 0001:000000b0       ?GetGroundPlaneAIRef@Vehicle@@UAEHXZ 004010b0 f i vehicleinit.obj
 0001:000000b0       ?GetDataType@Locator@@UBE?AW4Type@LocatorType@@XZ 004010b0 f i locator.obj
 0001:000000c0       ?IsRespawnTimeExpired@Collectible@ActionButton@@MBE_NXZ 004010c0 f i actionbuttonhandler.obj
 0001:000000e0       ?GetCurrentPitch@EngineState@@UAEMXZ 004010e0 f i vehiclesoundplayer.obj
 0001:000000e0       ?GetReverse@HumanVehicleController@@UBEMXZ 004010e0 f i humanvehiclecontroller.obj
 0001:000000e0       ?GetRespawnTime@Collectible@ActionButton@@MBEMXZ 004010e0 f i actionbuttonhandler.obj
 0001:000000e0       ?GetSteerLeft@AiVehicleController@@UBEMXZ 004010e0 f i aivehiclecontroller.obj
 0001:000000e0       ?Deformation@PhysicsJoint0D@sim@@UBEMXZ 004010e0 f i simwr:physicsjoint.obj
 0001:000000e0       ?GetOcclusion@radSoundHalPositionalGroup@@UAEMXZ 004010e0 f i radsoundwr:positionalgroup.obj
 0001:000000e0       ?GetSteerRight@AiVehicleController@@UBEMXZ 004010e0 f i aivehiclecontroller.obj
 0001:000000e0       ?GetObstruction@radSoundHalPositionalGroup@@UAEMXZ 004010e0 f i radsoundwr:positionalgroup.obj
 0001:000000e0       ?GetCycleStart@BlendSlot@choreo@@UBEMXZ 004010e0 f i choreowr:locomotion.obj
 0001:000000f0       ?GetFontBaseLine@tTextureFont@@UBEMXZ 004010f0 f i pure3dwr:texturefont.obj
 0001:000000f0       ?GetRespawnTime@RespawnCollectible@ActionButton@@MBEMXZ 004010f0 f i actionbuttonhandler.obj
 0001:000000f0       ?GetFarPlane@tCamera@@UAEMXZ 004010f0 f i pure3dwr:camera.obj
 0001:000000f0       ?GetTrim@radSoundClipPlayer@@UAEMXZ 004010f0 f i radsoundwr:clipplayer.obj
 0001:000000f0       ?GetRelativeSpeed@tAnimationFrameController@@UAEMXZ 004010f0 f i pure3dwr:cameraanimation.obj
 0001:00000100       ?SetRestCoeffCGS@PhysicsProperties@sim@@QAEXM@Z 00401100 f i simwr:physicsproperties.obj
 0001:00000100       ?SetMinDistance@positionalSoundSettings@@UAEXM@Z 00401100 f i positionalsoundsettings.obj
 0001:00000100       ?SetRelativeSpeed@tAnimationFrameController@@UAEXM@Z 00401100 f i pure3dwr:cameraanimation.obj
 0001:00000100       ?SetFadeInTime@reverbSettings@@UAEXM@Z 00401100 f i reverbsettings.obj
 0001:00000100       ?SetInternalMemoryAllocator@PtrQueue@@MAEXH@Z 00401100 f i radcontentwr:queue.obj
 0001:00000100       ?SetFarPlane@tCamera@@UAEXM@Z 00401100 f i pure3dwr:camera.obj
 0001:00000100       ?SetRespawnTime@RespawnCollectible@ActionButton@@MAEXM@Z 00401100 f i actionbuttonhandler.obj
 0001:00000100       ?SetEndColour@ColorChange@GuiSFX@@QAEXUpddiColour@@@Z 00401100 f i transitions.obj
 0001:00000100       ?SetAmbientLight@tView@@QAEXUpddiColour@@@Z 00401100 f i pure3dwr:view.obj
 0001:00000100       ?SetSpeedLimit@Lane@@UAEXM@Z 00401100 f i lane.obj
 0001:00000110       ?UpdateRespawnTime@RespawnCollectible@ActionButton@@MAEXM@Z 00401110 f i actionbuttonhandler.obj
 0001:00000120       ?GetDataType@DirectionalLocator@@UBE?AW4Type@LocatorType@@XZ 00401120 f i directionallocator.obj
 0001:00000120       ?bool_instance_size@ods@@YAIABVpointer@1@@Z 00401120 f i radmusicwr:ods.obj
 0001:00000120       ?GetType@CollectibleCard@ActionButton@@UAE?AW4Type@ButtonHandler@2@XZ 00401120 f i actionbuttonhandler.obj
 0001:00000120       ?char_instance_size@ods@@YAIABVpointer@1@@Z 00401120 f i radmusicwr:ods.obj
 0001:00000120       ?nPts@BoxPts@@UAEHXZ       00401120 f i BoxPts.obj
 0001:00000120       ?GetType@WalkerCam@@UAE?AW4Type@SuperCam@@XZ 00401120 f i walkercam.obj
 0001:00000130       ?GetPriority@PhysicsJointMatrixModifier@sim@@UBEHXZ 00401130 f i vehicleinit.obj
 0001:00000130       ?GetDataType@FOVLocator@@UBE?AW4Type@LocatorType@@XZ 00401130 f i fovlocator.obj
 0001:00000130       ?GetType@KullCam@@UAE?AW4Type@SuperCam@@XZ 00401130 f i kullcam.obj
 0001:00000130       ?GetType@WrenchIcon@ActionButton@@UAE?AW4Type@ButtonHandler@2@XZ 00401130 f i actionbuttonhandler.obj
 0001:00000140       ?GetPriority@PhysicsJointInertialEffector@sim@@UBEHXZ 00401140 f i vehicleinit.obj
 0001:00000140       ?GetType@TrackerCam@@UAE?AW4Type@SuperCam@@XZ 00401140 f i trackercam.obj
 0001:00000140       ?GetType@NitroIcon@ActionButton@@UAE?AW4Type@ButtonHandler@2@XZ 00401140 f i actionbuttonhandler.obj
 0001:00000150       ?OnButtonPressed@PurchaseReward@ActionButton@@MAE_NPAVCharacter@@PAVSequencer@@@Z 00401150 f i actionbuttonhandler.obj
 0001:00000160       ?GetDataType@OcclusionLocator@@UBE?AW4Type@LocatorType@@XZ 00401160 f i occlusionlocator.obj
 0001:00000160       ?GetType@PurchaseSkin@ActionButton@@UAE?AW4Type@ButtonHandler@2@XZ 00401160 f i actionbuttonhandler.obj
 0001:00000160       ?GetType@DebugCam@@UAE?AW4Type@SuperCam@@XZ 00401160 f i debugcam.obj
 0001:00000170       ??3State@CharacterAi@@SAXPAXI@Z 00401170 f i actionbuttonhandler.obj
 0001:00000190       ?GetPosition@Character@@QBEXAAVVector@RadicalMathLibrary@@@Z 00401190 f i actionbuttonhandler.obj
 0001:000001e0       ?BustingPlayer@HitnRunManager@@QAE_NXZ 004011e0 f i actionbuttonhandler.obj
 0001:00000210       ??3Action@@SAXPAXI@Z       00401210 f i actionbuttonhandler.obj
 0001:00000230       ??0TriggerEventAction@@QAE@W4EventEnum@@PAX@Z 00401230 f i actionbuttonhandler.obj
 0001:00000260       ?WakeUp@TriggerEventAction@@UAEXM@Z 00401260 f i actionbuttonhandler.obj
 0001:00000290       ??_GAction@@UAEPAXI@Z      00401290 f i actionbuttonhandler.obj
 0001:00000290       ??_EAction@@UAEPAXI@Z      00401290 f i actionbuttonhandler.obj
 0001:000002c0       ?WakeUp@AssignValueToFloat@@UAEXM@Z 004012c0 f i actionbuttonhandler.obj
 0001:000002e0       ??_GDodgeAction@@UAEPAXI@Z 004012e0 f i action.obj
 0001:000002e0       ??_EDodgeAction@@UAEPAXI@Z 004012e0 f i action.obj
 0001:000002e0       ??_EGetUpAction@@UAEPAXI@Z 004012e0 f i action.obj
 0001:000002e0       ??_ECringeAction@@UAEPAXI@Z 004012e0 f i action.obj
 0001:000002e0       ??_ETriggerEventAction@@UAEPAXI@Z 004012e0 f i actionbuttonhandler.obj
 0001:000002e0       ??_GAssignValueToFloat@@UAEPAXI@Z 004012e0 f i actionbuttonhandler.obj
 0001:000002e0       ??_GFlailAction@@UAEPAXI@Z 004012e0 f i action.obj
 0001:000002e0       ??_GCringeAction@@UAEPAXI@Z 004012e0 f i action.obj
 0001:000002e0       ??_GChangeLocomotion@@UAEPAXI@Z 004012e0 f i state.obj
 0001:000002e0       ??_EChangeLocomotion@@UAEPAXI@Z 004012e0 f i state.obj
 0001:000002e0       ??_GChangeNPCControllerState@@UAEPAXI@Z 004012e0 f i state.obj
 0001:000002e0       ??_GTriggerEventAction@@UAEPAXI@Z 004012e0 f i actionbuttonhandler.obj
 0001:000002e0       ??_EAssignValueToFloat@@UAEPAXI@Z 004012e0 f i actionbuttonhandler.obj
 0001:000002e0       ??_EChangeNPCControllerState@@UAEPAXI@Z 004012e0 f i state.obj
 0001:000002e0       ??_GGetUpAction@@UAEPAXI@Z 004012e0 f i action.obj
 0001:000002e0       ??_EFlailAction@@UAEPAXI@Z 004012e0 f i action.obj
 0001:00000310       ?IsActive@CGuiScreenHud@@QBE_NXZ 00401310 f i actionbuttonhandler.obj
 0001:00000330       ?GetControllerIDforPlayer@InputManager@@QBEHH@Z 00401330 f i actionbuttonhandler.obj
 0001:00000350       ??0AnimCollisionEntityDSGWrapper@ActionButton@@QAE@XZ 00401350 f   actionbuttonhandler.obj
 0001:00000370       ??_EAnimCollisionEntityDSGWrapper@ActionButton@@UAEPAXI@Z 00401370 f i actionbuttonhandler.obj
 0001:00000370       ??_GAnimCollisionEntityDSGWrapper@ActionButton@@UAEPAXI@Z 00401370 f i actionbuttonhandler.obj
 0001:00000390       ??1AnimCollisionEntityDSGWrapper@ActionButton@@UAE@XZ 00401390 f   actionbuttonhandler.obj
 0001:000003b0       ?UpdateVisibility@AnimCollisionEntityDSGWrapper@ActionButton@@UAEXXZ 004013b0 f   actionbuttonhandler.obj
 0001:000003c0       ?SetNextTransition@Chainable1@GuiSFX@@QAEXAAVChainable@2@@Z 004013c0 f   transitions.obj
 0001:000003c0       ?SetGameObject@AnimCollisionEntityDSGWrapper@ActionButton@@QAEXPAVAnimCollisionEntityDSG@@@Z 004013c0 f   actionbuttonhandler.obj
 0001:000003c0       ?SetScroobyImage@ImageSlider@@QAEXPAVSprite@Scrooby@@@Z 004013c0 f   slider.obj
 0001:000003c0       ?SetPositionCarrier@PositionalSoundPlayer@@QAEXAAVPositionCarrier@@@Z 004013c0 f   positionalsoundplayer.obj
 0001:000003c0       ?SetNextTransition@Chainable1@GuiSFX@@QAEXPAVChainable@2@@Z 004013c0 f   transitions.obj
 0001:000003d0       ?GetAnimationDirection@AnimCollisionEntityDSGWrapper@ActionButton@@UAEAAMXZ 004013d0 f   actionbuttonhandler.obj
 0001:000003e0       ?SetAnimationDirection@AnimCollisionEntityDSGWrapper@ActionButton@@UAEXM@Z 004013e0 f   actionbuttonhandler.obj
 0001:000003f0       ?GetAnimController@AnimCollisionEntityDSGWrapper@ActionButton@@UBEPAVtMultiController@@XZ 004013f0 f   actionbuttonhandler.obj
 0001:00000400       ?GetDrawable@AnimCollisionEntityDSGWrapper@ActionButton@@UBEPAVtCompositeDrawable@@XZ 00401400 f   actionbuttonhandler.obj
 0001:00000410       ??0ButtonHandler@ActionButton@@QAE@XZ 00401410 f   actionbuttonhandler.obj
 0001:00000430       ??_GButtonHandler@ActionButton@@UAEPAXI@Z 00401430 f i actionbuttonhandler.obj
 0001:00000430       ??_EButtonHandler@ActionButton@@UAEPAXI@Z 00401430 f i actionbuttonhandler.obj
 0001:00000450       ??1ButtonHandler@ActionButton@@UAE@XZ 00401450 f   actionbuttonhandler.obj
 0001:00000460       ?ButtonPressed@ButtonHandler@ActionButton@@UAE_NPAVCharacter@@@Z 00401460 f   actionbuttonhandler.obj
 0001:000004b0       ?Enter@ButtonHandler@ActionButton@@UAEXPAVCharacter@@@Z 004014b0 f   actionbuttonhandler.obj
 0001:000004c0       ?Exit@ButtonHandler@ActionButton@@UAEXPAVCharacter@@@Z 004014c0 f   actionbuttonhandler.obj
 0001:000004d0       ?IsActionButtonPressed@ButtonHandler@ActionButton@@MAE_NPAVCharacter@@@Z 004014d0 f   actionbuttonhandler.obj
 0001:000004f0       ??0EnterInterior@ActionButton@@QAE@PAVInteriorEntranceLocator@@@Z 004014f0 f   actionbuttonhandler.obj
 0001:00000520       ??_EEnterInterior@ActionButton@@UAEPAXI@Z 00401520 f i actionbuttonhandler.obj
 0001:00000520       ??_GEnterInterior@ActionButton@@UAEPAXI@Z 00401520 f i actionbuttonhandler.obj
 0001:00000540       ??1EnterInterior@ActionButton@@UAE@XZ 00401540 f   actionbuttonhandler.obj
 0001:00000550       ?SetLocator@EnterInterior@ActionButton@@QAEXPAVInteriorEntranceLocator@@@Z 00401550 f   actionbuttonhandler.obj
 0001:00000560       ?OnButtonPressed@EnterInterior@ActionButton@@MAE_NPAVCharacter@@PAVSequencer@@@Z 00401560 f   actionbuttonhandler.obj
 0001:00000590       ??0GetInCar@ActionButton@@QAE@PAVEventLocator@@@Z 00401590 f   actionbuttonhandler.obj
 0001:000005f0       ??_GGetInCar@ActionButton@@UAEPAXI@Z 004015f0 f i actionbuttonhandler.obj
 0001:000005f0       ??_EGetInCar@ActionButton@@UAEPAXI@Z 004015f0 f i actionbuttonhandler.obj
 0001:00000610       ??1GetInCar@ActionButton@@UAE@XZ 00401610 f   actionbuttonhandler.obj
 0001:00000680       ?OnButtonPressed@GetInCar@ActionButton@@MAE_NPAVCharacter@@PAVSequencer@@@Z 00401680 f   actionbuttonhandler.obj
 0001:000006f0       ??0ActionEventHandler@ActionButton@@QAE@PAVActionEventLocator@@@Z 004016f0 f   actionbuttonhandler.obj
 0001:00000750       ??_GActionEventHandler@ActionButton@@UAEPAXI@Z 00401750 f i actionbuttonhandler.obj
 0001:00000750       ??_EActionEventHandler@ActionButton@@UAEPAXI@Z 00401750 f i actionbuttonhandler.obj
 0001:00000770       ??1ActionEventHandler@ActionButton@@UAE@XZ 00401770 f   actionbuttonhandler.obj
 0001:000007e0       ??0AnimSwitch@ActionButton@@QAE@PAVActionEventLocator@@@Z 004017e0 f   actionbuttonhandler.obj
 0001:000008b0       ??_EAnimSwitch@ActionButton@@UAEPAXI@Z 004018b0 f i actionbuttonhandler.obj
 0001:000008b0       ??_GAnimSwitch@ActionButton@@UAEPAXI@Z 004018b0 f i actionbuttonhandler.obj
 0001:000008d0       ??1AnimSwitch@ActionButton@@UAE@XZ 004018d0 f   actionbuttonhandler.obj
 0001:00000940       ?Create@AnimSwitch@ActionButton@@UAE_NPAVtEntityStore@@@Z 00401940 f   actionbuttonhandler.obj
 0001:00000a10       ?OnReset@AnimSwitch@ActionButton@@MAEXXZ 00401a10 f   actionbuttonhandler.obj
 0001:00000a50       ?Init@AnimSwitch@ActionButton@@QAEXPAUIGameObjectWrapper@2@PAVJoint@tPose@@_N@Z 00401a50 f   actionbuttonhandler.obj
 0001:00000ae0       ?GetAnimationDirection@AnimSwitch@ActionButton@@QAEAAMXZ 00401ae0 f   actionbuttonhandler.obj
 0001:00000af0       ?SetAnimationDirection@AnimSwitch@ActionButton@@QAEXM@Z 00401af0 f   actionbuttonhandler.obj
 0001:00000b00       ?GetAnimController@AnimSwitch@ActionButton@@QBEPAVtMultiController@@XZ 00401b00 f   actionbuttonhandler.obj
 0001:00000b10       ?Update@AnimSwitch@ActionButton@@UAEXM@Z 00401b10 f   actionbuttonhandler.obj
 0001:00000b60       ?ButtonPressed@AnimSwitch@ActionButton@@UAE_NPAVCharacter@@@Z 00401b60 f   actionbuttonhandler.obj
 0001:00000bc0       ?PositionCharacter@AnimSwitch@ActionButton@@MAEXPAVCharacter@@PAVSequencer@@@Z 00401bc0 f   actionbuttonhandler.obj
 0001:00000d30       ?SetAnimation@AnimSwitch@ActionButton@@MAEXPAVCharacter@@PAVSequencer@@@Z 00401d30 f   actionbuttonhandler.obj
 0001:00000e00       ??0ToggleAnim@ActionButton@@QAE@PAVActionEventLocator@@@Z 00401e00 f   actionbuttonhandler.obj
 0001:00000e20       ??_GToggleAnim@ActionButton@@UAEPAXI@Z 00401e20 f i actionbuttonhandler.obj
 0001:00000e20       ??_EToggleAnim@ActionButton@@UAEPAXI@Z 00401e20 f i actionbuttonhandler.obj
 0001:00000e40       ??1ToggleAnim@ActionButton@@UAE@XZ 00401e40 f   actionbuttonhandler.obj
 0001:00000ea0       ?OnButtonPressed@ToggleAnim@ActionButton@@MAE_NPAVCharacter@@PAVSequencer@@@Z 00401ea0 f   actionbuttonhandler.obj
 0001:00000ff0       ?OnButtonPressed@ReverseAnim@ActionButton@@MAE_NPAVCharacter@@PAVSequencer@@@Z 00401ff0 f   actionbuttonhandler.obj
 0001:000010c0       ??0PlayAnim@ActionButton@@QAE@PAVActionEventLocator@@@Z 004020c0 f   actionbuttonhandler.obj
 0001:000010e0       ??_EPlayAnim@ActionButton@@UAEPAXI@Z 004020e0 f i actionbuttonhandler.obj
 0001:000010e0       ??_GPlayAnim@ActionButton@@UAEPAXI@Z 004020e0 f i actionbuttonhandler.obj
 0001:00001100       ??1PlayAnim@ActionButton@@UAE@XZ 00402100 f   actionbuttonhandler.obj
 0001:00001160       ?OnButtonPressed@PlayAnim@ActionButton@@MAE_NPAVCharacter@@PAVSequencer@@@Z 00402160 f   actionbuttonhandler.obj
 0001:000012c0       ??0PlayAnimLoop@ActionButton@@QAE@PAVActionEventLocator@@@Z 004022c0 f   actionbuttonhandler.obj
 0001:000012e0       ??_GPlayAnimLoop@ActionButton@@UAEPAXI@Z 004022e0 f i actionbuttonhandler.obj
 0001:000012e0       ??_EPlayAnimLoop@ActionButton@@UAEPAXI@Z 004022e0 f i actionbuttonhandler.obj
 0001:00001300       ??1PlayAnimLoop@ActionButton@@UAE@XZ 00402300 f   actionbuttonhandler.obj
 0001:00001310       ?OnButtonPressed@PlayAnimLoop@ActionButton@@MAE_NPAVCharacter@@PAVSequencer@@@Z 00402310 f   actionbuttonhandler.obj
 0001:000013e0       ??0AutoPlayAnim@ActionButton@@QAE@PAVActionEventLocator@@@Z 004023e0 f   actionbuttonhandler.obj
 0001:00001410       ??_GAutoPlayAnim@ActionButton@@UAEPAXI@Z 00402410 f i actionbuttonhandler.obj
 0001:00001410       ??_EAutoPlayAnim@ActionButton@@UAEPAXI@Z 00402410 f i actionbuttonhandler.obj
 0001:00001430       ??1AutoPlayAnim@ActionButton@@UAE@XZ 00402430 f   actionbuttonhandler.obj
 0001:00001490       ?OnEnter@AutoPlayAnim@ActionButton@@UAEXPAVCharacter@@@Z 00402490 f   actionbuttonhandler.obj
 0001:00001560       ?OnUpdate@AutoPlayAnim@ActionButton@@MAEXM@Z 00402560 f   actionbuttonhandler.obj
 0001:000015b0       ?OnExit@AutoPlayAnim@ActionButton@@UAEXPAVCharacter@@@Z 004025b0 f   actionbuttonhandler.obj
 0001:000015e0       ??0AutoPlayAnimLoop@ActionButton@@QAE@PAVActionEventLocator@@@Z 004025e0 f   actionbuttonhandler.obj
 0001:000015f0       ??_EAutoPlayAnimLoop@ActionButton@@UAEPAXI@Z 004025f0 f i actionbuttonhandler.obj
 0001:000015f0       ??_GAutoPlayAnimLoop@ActionButton@@UAEPAXI@Z 004025f0 f i actionbuttonhandler.obj
 0001:00001610       ??1AutoPlayAnimLoop@ActionButton@@UAE@XZ 00402610 f   actionbuttonhandler.obj
 0001:00001620       ??0AutoPlayAnimInOut@ActionButton@@QAE@PAVActionEventLocator@@@Z 00402620 f   actionbuttonhandler.obj
 0001:00001630       ??_EAutoPlayAnimInOut@ActionButton@@UAEPAXI@Z 00402630 f i actionbuttonhandler.obj
 0001:00001630       ??_GAutoPlayAnimInOut@ActionButton@@UAEPAXI@Z 00402630 f i actionbuttonhandler.obj
 0001:00001650       ??1AutoPlayAnimInOut@ActionButton@@UAE@XZ 00402650 f   actionbuttonhandler.obj
 0001:00001660       ?OnUpdate@AutoPlayAnimInOut@ActionButton@@MAEXM@Z 00402660 f   actionbuttonhandler.obj
 0001:000016c0       ?OnExit@AutoPlayAnimInOut@ActionButton@@MAEXPAVCharacter@@@Z 004026c0 f   actionbuttonhandler.obj
 0001:000016e0       ??0DestroyObject@ActionButton@@QAE@PAVActionEventLocator@@@Z 004026e0 f   actionbuttonhandler.obj
 0001:00001710       ??_EDestroyObject@ActionButton@@UAEPAXI@Z 00402710 f i actionbuttonhandler.obj
 0001:00001710       ??_GDestroyObject@ActionButton@@UAEPAXI@Z 00402710 f i actionbuttonhandler.obj
 0001:00001730       ??1DestroyObject@ActionButton@@UAE@XZ 00402730 f   actionbuttonhandler.obj
 0001:00001760       ?Create@DestroyObject@ActionButton@@UAE_NPAVtEntityStore@@@Z 00402760 f   actionbuttonhandler.obj
 0001:000017b0       ?Enter@DestroyObject@ActionButton@@UAEXPAVCharacter@@@Z 004027b0 f   actionbuttonhandler.obj
 0001:000017c0       ?OnReset@DestroyObject@ActionButton@@MAEXXZ 004027c0 f   actionbuttonhandler.obj
 0001:000017f0       ?OnButtonPressed@DestroyObject@ActionButton@@MAE_NPAVCharacter@@PAVSequencer@@@Z 004027f0 f   actionbuttonhandler.obj
 0001:00001810       ?PositionCharacter@DestroyObject@ActionButton@@MAEXPAVCharacter@@PAVSequencer@@@Z 00402810 f   actionbuttonhandler.obj
 0001:000019d0       ?RecieveEvent@DestroyObject@ActionButton@@UAEXHPAVCStateProp@@@Z 004029d0 f   actionbuttonhandler.obj
 0001:00001a10       ??0UseVendingMachine@ActionButton@@QAE@PAVActionEventLocator@@@Z 00402a10 f   actionbuttonhandler.obj
 0001:00001a20       ??_GUseVendingMachine@ActionButton@@UAEPAXI@Z 00402a20 f i actionbuttonhandler.obj
 0001:00001a20       ??_EUseVendingMachine@ActionButton@@UAEPAXI@Z 00402a20 f i actionbuttonhandler.obj
 0001:00001a40       ??1UseVendingMachine@ActionButton@@UAE@XZ 00402a40 f   actionbuttonhandler.obj
 0001:00001a50       ?OnButtonPressed@PrankPhone@ActionButton@@MAE_NPAVCharacter@@PAVSequencer@@@Z 00402a50 f   actionbuttonhandler.obj
 0001:00001a50       ?OnButtonPressed@UseVendingMachine@ActionButton@@MAE_NPAVCharacter@@PAVSequencer@@@Z 00402a50 f   actionbuttonhandler.obj
 0001:00001a70       ?SetAnimation@UseVendingMachine@ActionButton@@MAEXPAVCharacter@@PAVSequencer@@@Z 00402a70 f   actionbuttonhandler.obj
 0001:00001af0       ??0PrankPhone@ActionButton@@QAE@PAVActionEventLocator@@@Z 00402af0 f   actionbuttonhandler.obj
 0001:00001b00       ??_EPrankPhone@ActionButton@@UAEPAXI@Z 00402b00 f i actionbuttonhandler.obj
 0001:00001b00       ??_GPrankPhone@ActionButton@@UAEPAXI@Z 00402b00 f i actionbuttonhandler.obj
 0001:00001b20       ??1PrankPhone@ActionButton@@UAE@XZ 00402b20 f   actionbuttonhandler.obj
 0001:00001b30       ?SetAnimation@DestroyObject@ActionButton@@MAEXPAVCharacter@@PAVSequencer@@@Z 00402b30 f   actionbuttonhandler.obj
 0001:00001b30       ?SetAnimation@PrankPhone@ActionButton@@MAEXPAVCharacter@@PAVSequencer@@@Z 00402b30 f   actionbuttonhandler.obj
 0001:00001bb0       ?Create@Doorbell@ActionButton@@UAE_NPAVtEntityStore@@@Z 00402bb0 f   actionbuttonhandler.obj
 0001:00001c70       ?OnButtonPressed@Doorbell@ActionButton@@MAE_NPAVCharacter@@PAVSequencer@@@Z 00402c70 f   actionbuttonhandler.obj
 0001:00001ca0       ??0SummonVehiclePhone@ActionButton@@QAE@PAVActionEventLocator@@@Z 00402ca0 f   actionbuttonhandler.obj
 0001:00001d70       ??_ESummonVehiclePhone@ActionButton@@UAEPAXI@Z 00402d70 f i actionbuttonhandler.obj
 0001:00001d70       ??_GSummonVehiclePhone@ActionButton@@UAEPAXI@Z 00402d70 f i actionbuttonhandler.obj
 0001:00001d90       ??1SummonVehiclePhone@ActionButton@@UAE@XZ 00402d90 f   actionbuttonhandler.obj
 0001:00001e30       ?Create@SummonVehiclePhone@ActionButton@@UAE_NPAVtEntityStore@@@Z 00402e30 f   actionbuttonhandler.obj
 0001:00001ed0       ?UsesActionButton@SummonVehiclePhone@ActionButton@@UBE_NXZ 00402ed0 f   actionbuttonhandler.obj
 0001:00001ee0       ?OnButtonPressed@SummonVehiclePhone@ActionButton@@MAE_NPAVCharacter@@PAVSequencer@@@Z 00402ee0 f   actionbuttonhandler.obj
 0001:000020e0       ?LoadVehicle@SummonVehiclePhone@ActionButton@@SAXPBD0W4DriverInit@VehicleCentral@@@Z 004030e0 f   actionbuttonhandler.obj
 0001:000021c0       ?LoadVehicle@SummonVehiclePhone@ActionButton@@SAXH@Z 004031c0 f   actionbuttonhandler.obj
 0001:00002200       ?LoadDebugVehicle@SummonVehiclePhone@ActionButton@@SAXXZ 00403200 f   actionbuttonhandler.obj
 0001:00002210       ?OnUpdate@SummonVehiclePhone@ActionButton@@MAEXM@Z 00403210 f   actionbuttonhandler.obj
 0001:00002260       ??1SummonVehiclePhoneStaticCallback@ActionButton@@QAE@XZ 00403260 f   actionbuttonhandler.obj
 0001:00002280       ?OnProcessRequestsComplete@SummonVehiclePhoneStaticCallback@ActionButton@@UAEXPAX@Z 00403280 f   actionbuttonhandler.obj
 0001:000023c0       ?SetAnimation@SummonVehiclePhone@ActionButton@@MAEXPAVCharacter@@PAVSequencer@@@Z 004033c0 f   actionbuttonhandler.obj
 0001:00002440       ?OnEnter@Bounce@ActionButton@@SAXPAVCharacter@@PAVLocator@@@Z 00403440 f   actionbuttonhandler.obj
 0001:00002540       ??0Collectible@ActionButton@@QAE@PAVActionEventLocator@@@Z 00403540 f   actionbuttonhandler.obj
 0001:00002560       ??_GCollectible@ActionButton@@UAEPAXI@Z 00403560 f i actionbuttonhandler.obj
 0001:00002560       ??_ECollectible@ActionButton@@UAEPAXI@Z 00403560 f i actionbuttonhandler.obj
 0001:00002580       ??1Collectible@ActionButton@@UAE@XZ 00403580 f   actionbuttonhandler.obj
 0001:000025e0       ?OnReset@Collectible@ActionButton@@MAEXXZ 004035e0 f   actionbuttonhandler.obj
 0001:00002600       ?ResetCollectible@Collectible@ActionButton@@UAEXXZ 00403600 f   actionbuttonhandler.obj
 0001:00002610       ?OnUpdate@Collectible@ActionButton@@MAEXM@Z 00403610 f   actionbuttonhandler.obj
 0001:00002690       ?OnEnter@Collectible@ActionButton@@MAEXPAVCharacter@@@Z 00403690 f   actionbuttonhandler.obj
 0001:000026d0       ??0RespawnCollectible@ActionButton@@QAE@PAVActionEventLocator@@@Z 004036d0 f   actionbuttonhandler.obj
 0001:000026f0       ??_GRespawnCollectible@ActionButton@@UAEPAXI@Z 004036f0 f i actionbuttonhandler.obj
 0001:000026f0       ??_ERespawnCollectible@ActionButton@@UAEPAXI@Z 004036f0 f i actionbuttonhandler.obj
 0001:00002710       ??1RespawnCollectible@ActionButton@@UAE@XZ 00403710 f   actionbuttonhandler.obj
 0001:00002720       ??0CollectibleFood@ActionButton@@QAE@PAVActionEventLocator@@M@Z 00403720 f   actionbuttonhandler.obj
 0001:00002740       ??_ECollectibleFood@ActionButton@@UAEPAXI@Z 00403740 f i actionbuttonhandler.obj
 0001:00002740       ??_GCollectibleFood@ActionButton@@UAEPAXI@Z 00403740 f i actionbuttonhandler.obj
 0001:00002760       ??1CollectibleFood@ActionButton@@UAE@XZ 00403760 f   actionbuttonhandler.obj
 0001:00002770       ?OnEnter@CollectibleFood@ActionButton@@MAEXPAVCharacter@@@Z 00403770 f   actionbuttonhandler.obj
 0001:00002780       ??0CollectibleCard@ActionButton@@QAE@PAVActionEventLocator@@@Z 00403780 f   actionbuttonhandler.obj
 0001:000027a0       ??_GCollectibleCard@ActionButton@@UAEPAXI@Z 004037a0 f i actionbuttonhandler.obj
 0001:000027a0       ??_ECollectibleCard@ActionButton@@UAEPAXI@Z 004037a0 f i actionbuttonhandler.obj
 0001:000027c0       ??1CollectibleCard@ActionButton@@UAE@XZ 004037c0 f   actionbuttonhandler.obj
 0001:00002840       ?Create@CollectibleCard@ActionButton@@UAE_NPAVtEntityStore@@@Z 00403840 f   actionbuttonhandler.obj
 0001:000029e0       ?OnEnter@CollectibleCard@ActionButton@@MAEXPAVCharacter@@@Z 004039e0 f   actionbuttonhandler.obj
 0001:00002af0       ?UpdateThing@CollectibleCard@ActionButton@@SAXI@Z 00403af0 f   actionbuttonhandler.obj
 0001:00002b00       ??0WrenchIcon@ActionButton@@QAE@PAVActionEventLocator@@@Z 00403b00 f   actionbuttonhandler.obj
 0001:00002b30       ??_GWrenchIcon@ActionButton@@UAEPAXI@Z 00403b30 f i actionbuttonhandler.obj
 0001:00002b30       ??_EWrenchIcon@ActionButton@@UAEPAXI@Z 00403b30 f i actionbuttonhandler.obj
 0001:00002b50       ??1WrenchIcon@ActionButton@@UAE@XZ 00403b50 f   actionbuttonhandler.obj
 0001:00002be0       ?Create@WrenchIcon@ActionButton@@UAE_NPAVtEntityStore@@@Z 00403be0 f   actionbuttonhandler.obj
 0001:00002d30       ?OnEnter@WrenchIcon@ActionButton@@MAEXPAVCharacter@@@Z 00403d30 f   actionbuttonhandler.obj
 0001:00002df0       ?UpdateThing@WrenchIcon@ActionButton@@SAXI@Z 00403df0 f   actionbuttonhandler.obj
 0001:00002e00       ??0NitroIcon@ActionButton@@QAE@PAVActionEventLocator@@@Z 00403e00 f   actionbuttonhandler.obj
 0001:00002e30       ??_ENitroIcon@ActionButton@@UAEPAXI@Z 00403e30 f i actionbuttonhandler.obj
 0001:00002e30       ??_GNitroIcon@ActionButton@@UAEPAXI@Z 00403e30 f i actionbuttonhandler.obj
 0001:00002e50       ??1NitroIcon@ActionButton@@UAE@XZ 00403e50 f   actionbuttonhandler.obj
 0001:00002ee0       ?Create@NitroIcon@ActionButton@@UAE_NPAVtEntityStore@@@Z 00403ee0 f   actionbuttonhandler.obj
 0001:00003020       ?OnEnter@NitroIcon@ActionButton@@MAEXPAVCharacter@@@Z 00404020 f   actionbuttonhandler.obj
 0001:000030b0       ?UpdateThing@NitroIcon@ActionButton@@SAXI@Z 004040b0 f   actionbuttonhandler.obj
 0001:000030c0       ?Update@NitroIcon@ActionButton@@UAEXM@Z 004040c0 f   actionbuttonhandler.obj
 0001:000030c0       ?Update@WrenchIcon@ActionButton@@UAEXM@Z 004040c0 f   actionbuttonhandler.obj
 0001:00003120       ??0GenericEventButtonHandler@ActionButton@@QAE@PAVEventLocator@@W4EventEnum@@@Z 00404120 f   actionbuttonhandler.obj
 0001:00003180       ??_EGenericEventButtonHandler@ActionButton@@UAEPAXI@Z 00404180 f i actionbuttonhandler.obj
 0001:00003180       ??_GGenericEventButtonHandler@ActionButton@@UAEPAXI@Z 00404180 f i actionbuttonhandler.obj
 0001:000031a0       ??1GenericEventButtonHandler@ActionButton@@UAE@XZ 004041a0 f   actionbuttonhandler.obj
 0001:00003200       ?NewAction@GenericEventButtonHandler@ActionButton@@SAPAVButtonHandler@2@PAVEventLocator@@W4EventEnum@@W4GameMemoryAllocator@@@Z 00404200 f   actionbuttonhandler.obj
 0001:00003230       ?SetEventLocator@GenericEventButtonHandler@ActionButton@@QAEXPAVEventLocator@@@Z 00404230 f   actionbuttonhandler.obj
 0001:00003230       ?SetEventLocator@GetInCar@ActionButton@@QAEXPAVEventLocator@@@Z 00404230 f   actionbuttonhandler.obj
 0001:00003230       ?SetActionEventLocator@ActionEventHandler@ActionButton@@QAEXPAVActionEventLocator@@@Z 00404230 f   actionbuttonhandler.obj
 0001:00003250       ?OnButtonPressed@GenericEventButtonHandler@ActionButton@@MAE_NPAVCharacter@@PAVSequencer@@@Z 00404250 f   actionbuttonhandler.obj
 0001:000032d0       ??0TeleportAction@ActionButton@@QAE@PAVActionEventLocator@@@Z 004042d0 f   actionbuttonhandler.obj
 0001:000032f0       ??_GTeleportAction@ActionButton@@UAEPAXI@Z 004042f0 f i actionbuttonhandler.obj
 0001:000032f0       ??_ETeleportAction@ActionButton@@UAEPAXI@Z 004042f0 f i actionbuttonhandler.obj
 0001:00003310       ??1TeleportAction@ActionButton@@UAE@XZ 00404310 f   actionbuttonhandler.obj
 0001:00003350       ?HandleEvent@TeleportAction@ActionButton@@UAEXW4EventEnum@@PAX@Z 00404350 f   actionbuttonhandler.obj
 0001:00003490       ?OnButtonPressed@TeleportAction@ActionButton@@MAE_NPAVCharacter@@PAVSequencer@@@Z 00404490 f   actionbuttonhandler.obj
 0001:000034e0       ?OnEnter@TeleportAction@ActionButton@@MAEXPAVCharacter@@@Z 004044e0 f   actionbuttonhandler.obj
 0001:00003500       ?OnExit@TeleportAction@ActionButton@@MAEXPAVCharacter@@@Z 00404500 f   actionbuttonhandler.obj
 0001:00003520       ??0PurchaseReward@ActionButton@@QAE@PAVActionEventLocator@@@Z 00404520 f   actionbuttonhandler.obj
 0001:00003550       ??_GPurchaseReward@ActionButton@@UAEPAXI@Z 00404550 f i actionbuttonhandler.obj
 0001:00003550       ??_EPurchaseReward@ActionButton@@UAEPAXI@Z 00404550 f i actionbuttonhandler.obj
 0001:00003570       ??1PurchaseReward@ActionButton@@UAE@XZ 00404570 f   actionbuttonhandler.obj
 0001:00003600       ?OnUpdate@PurchaseReward@ActionButton@@MAEXM@Z 00404600 f   actionbuttonhandler.obj
 0001:00003770       ??0PurchaseCar@ActionButton@@QAE@PAVActionEventLocator@@@Z 00404770 f   actionbuttonhandler.obj
 0001:000038f0       ??_EPurchaseCar@ActionButton@@UAEPAXI@Z 004048f0 f i actionbuttonhandler.obj
 0001:000038f0       ??_GPurchaseCar@ActionButton@@UAEPAXI@Z 004048f0 f i actionbuttonhandler.obj
 0001:00003910       ??1RecieveEvent@GuiSFX@@UAE@XZ 00404910 f i actionbuttonhandler.obj
 0001:00003920       ??1PurchaseCar@ActionButton@@UAE@XZ 00404920 f   actionbuttonhandler.obj
 0001:00003950       ?Create@PurchaseCar@ActionButton@@UAE_NPAVtEntityStore@@@Z 00404950 f   actionbuttonhandler.obj
 0001:000039c0       ?OnButtonPressed@PurchaseCar@ActionButton@@MAE_NPAVCharacter@@@Z 004049c0 f   actionbuttonhandler.obj
 0001:00003ba0       ?OnUpdate@PurchaseCar@ActionButton@@MAEXM@Z 00404ba0 f   actionbuttonhandler.obj
 0001:00003cc0       ??0PurchaseSkin@ActionButton@@QAE@PAVActionEventLocator@@@Z 00404cc0 f   actionbuttonhandler.obj
 0001:00003d40       ??_GPurchaseSkin@ActionButton@@UAEPAXI@Z 00404d40 f i actionbuttonhandler.obj
 0001:00003d40       ??_EPurchaseSkin@ActionButton@@UAEPAXI@Z 00404d40 f i actionbuttonhandler.obj
 0001:00003d60       ??1PurchaseSkin@ActionButton@@UAE@XZ 00404d60 f   actionbuttonhandler.obj
 0001:00003d70       ?Create@PurchaseSkin@ActionButton@@UAE_NPAVtEntityStore@@@Z 00404d70 f   actionbuttonhandler.obj
 0001:00003de0       ?OnButtonPressed@PurchaseSkin@ActionButton@@MAE_NPAVCharacter@@@Z 00404de0 f   actionbuttonhandler.obj
 0001:00003e20       ?OnUpdate@PurchaseSkin@ActionButton@@MAEXM@Z 00404e20 f   actionbuttonhandler.obj
 0001:00003e30       ??1?$tPtrDynamicArray@PAVManagedParticleSystem@ParticleManager@@@@UAE@XZ 00404e30 f i actionbuttonhandler.obj
 0001:00003e50       ??_E?$tPtrDynamicArray@PAVManagedParticleSystem@ParticleManager@@@@UAEPAXI@Z 00404e50 f i actionbuttonhandler.obj
 0001:00003eb0       ??_G?$tArray@PAVManagedParticleSystem@ParticleManager@@@@UAEPAXI@Z 00404eb0 f i actionbuttonhandler.obj
 0001:00003eb0       ??_E?$tArray@PAVManagedParticleSystem@ParticleManager@@@@UAEPAXI@Z 00404eb0 f i actionbuttonhandler.obj
 0001:00003ee0       ?SetState@?$@VGetIn@CharacterAi@@@StateManager@CharacterAi@@QAEXXZ 00404ee0 f i actionbuttonhandler.obj
 0001:00003f40       ?Assign@radLoadObject@@SAXAAPAVCollisionVolume@sim@@PAV23@@Z 00404f40 f i character.obj
 0001:00003f40       ?Assign@radLoadObject@@SAXAAPAVActionEventLocator@@PAV2@@Z 00404f40 f i actionbuttonhandler.obj
 0001:00003f60       ?find@?$@VAnimCollisionEntityDSG@@@p3d@@YAPAVAnimCollisionEntityDSG@@PAVtEntityStore@@PBD@Z 00404f60 f i actionbuttonhandler.obj
 0001:00003fd0       ?find@?$@VStatePropDSG@@@p3d@@YAPAVStatePropDSG@@PAVtEntityStore@@PBD@Z 00404fd0 f i actionbuttonhandler.obj
 0001:00004040       ?find@?$@VCarStartLocator@@@p3d@@YAPAVCarStartLocator@@PBD@Z 00405040 f i actionbuttonhandler.obj
 0001:00004060       ?find@?$@VAnimCollisionEntityDSG@@@p3d@@YAPAVAnimCollisionEntityDSG@@PAVtEntityStore@@ABVtName@@@Z 00405060 f i actionbuttonhandler.obj
 0001:00004120       ?find@?$@VStatePropDSG@@@p3d@@YAPAVStatePropDSG@@PAVtEntityStore@@ABVtName@@@Z 00405120 f i actionbuttonhandler.obj
 0001:000041e0       ?find@?$@VCarStartLocator@@@p3d@@YAPAVCarStartLocator@@PAVtEntityStore@@PBD@Z 004051e0 f i actionbuttonhandler.obj
 0001:00004250       ?safe_cast@?$SafeCast@VAnimCollisionEntityDSG@@@radLoadInventory@@UAEPAUIRefCount@@PAU3@@Z 00405250 f i actionbuttonhandler.obj
 0001:00004270       ?safe_cast@?$SafeCast@VStatePropDSG@@@radLoadInventory@@UAEPAUIRefCount@@PAU3@@Z 00405270 f i actionbuttonhandler.obj
 0001:00004290       ?find@?$@VCarStartLocator@@@p3d@@YAPAVCarStartLocator@@PAVtEntityStore@@ABVtName@@@Z 00405290 f i actionbuttonhandler.obj
 0001:00004350       ?safe_cast@?$SafeCast@VCarStartLocator@@@radLoadInventory@@UAEPAUIRefCount@@PAU3@@Z 00405350 f i actionbuttonhandler.obj
 0001:00004370       ??_EWrenchIcon@ActionButton@@WBM@AEPAXI@Z 00405370 f i actionbuttonhandler.obj
 0001:00004380       ??_ENitroIcon@ActionButton@@WBM@AEPAXI@Z 00405380 f i actionbuttonhandler.obj
 0001:00004390       ??_ETeleportAction@ActionButton@@WBE@AEPAXI@Z 00405390 f i actionbuttonhandler.obj
 0001:000043a0       ?NormalizeSafe@Vector@RadicalMathLibrary@@QAEMXZ 004053a0 f i actionbuttonhandler.obj
 0001:00004400       ?radMakeKey32@@YAIPBDI@Z   00405400 f i actionbuttonhandler.obj
 0001:00004430       ?MakeUID@tEntity@@SA?AVtUidUnaligned@@PBD@Z 00405430 f i actionbuttonhandler.obj
 0001:00004450       ?Scale@Vector@RadicalMathLibrary@@QAEXM@Z 00405450 f i actionbuttonhandler.obj
 0001:00004470       ??0pddiColour@@QAE@HHHH@Z  00405470 f i actionbuttonhandler.obj
 0001:000044a0       ?GetUID@tName@@QBE?AVtUidUnaligned@@XZ 004054a0 f i actionbuttonhandler.obj
 0001:000044c0       ??_H@YGXPAXIHP6EPAX0@Z@Z   004054c0 f i actionbuttonhandler.obj
 0001:000044f0       ??0tExpressionOffsetsLoader@@QAE@XZ 004054f0 f i pure3dwr:expressionoffsets.obj
 0001:000044f0       ??0pddiColour@@QAE@XZ      004054f0 f i vehicleairender.obj
 0001:000044f0       ??0BakedBillboardQuad@@QAE@XZ 004054f0 f i pure3dwr:billboardobject.obj
 0001:000044f0       ??0Quaternion@RadicalMathLibrary@@QAE@XZ 004054f0 f i actoranimationwasp.obj
 0001:000044f0       ??0Drawable@DisplayList@@QAE@XZ 004054f0 f i pure3dwr:displaylist.obj
 0001:000044f0       ??0pddiRect@@QAE@XZ        004054f0 f i pchsrr2.obj
 0001:000044f0       ??0Vector@RadicalMathLibrary@@QAE@XZ 004054f0 f i actionbuttonhandler.obj
 0001:000044f0       ??0Vector4@RadicalMathLibrary@@QAE@XZ 004054f0 f i evasionbehaviour.obj
 0001:000044f0       ??0Vector2@RadicalMathLibrary@@QAE@XZ 004054f0 f i intersectionlist.obj
 0001:000044f0       ??0SkinVertex@tPrimGroupSkinnedStreamed@@QAE@XZ 004054f0 f i pure3dwr:primgroup.obj
 0001:000044f0       ??0Spline@RadicalMathLibrary@@QAE@XZ 004054f0 f i evasionbehaviour.obj
 0001:000044f0       ??0LineElem@sim@@QAE@XZ    004054f0 f i simwr:simutility.obj
 0001:000044f0       ??0SkinVertex@tPrimGroupSkinnedPC@@QAE@XZ 004054f0 f i pure3dwr:primgroup.obj
 0001:00004500       ?Mult@Matrix@RadicalMathLibrary@@QAEXABV12@@Z 00405500 f i actionbuttonhandler.obj
 0001:00004530       ?NewAction@ToggleAnim@ActionButton@@SAPAVButtonHandler@2@PAVActionEventLocator@@@Z 00405530 f i actionbuttonmanager.obj
 0001:00004550       ??0ReverseAnim@ActionButton@@QAE@PAVActionEventLocator@@@Z 00405550 f i actionbuttonmanager.obj
 0001:00004560       ??1ReverseAnim@ActionButton@@UAE@XZ 00405560 f i actionbuttonmanager.obj
 0001:00004570       ?NewAction@ReverseAnim@ActionButton@@SAPAVButtonHandler@2@PAVActionEventLocator@@@Z 00405570 f i actionbuttonmanager.obj
 0001:000045a0       ??_GReverseAnim@ActionButton@@UAEPAXI@Z 004055a0 f i actionbuttonmanager.obj
 0001:000045a0       ??_EReverseAnim@ActionButton@@UAEPAXI@Z 004055a0 f i actionbuttonmanager.obj
 0001:000045c0       ?NewAction@PlayAnim@ActionButton@@SAPAVButtonHandler@2@PAVActionEventLocator@@@Z 004055c0 f i actionbuttonmanager.obj
 0001:000045e0       ?NewAction@PlayAnimLoop@ActionButton@@SAPAVButtonHandler@2@PAVActionEventLocator@@@Z 004055e0 f i actionbuttonmanager.obj
 0001:00004600       ?NewAction@AutoPlayAnim@ActionButton@@SAPAVButtonHandler@2@PAVActionEventLocator@@@Z 00405600 f i actionbuttonmanager.obj
 0001:00004620       ?NewAction@AutoPlayAnimLoop@ActionButton@@SAPAVButtonHandler@2@PAVActionEventLocator@@@Z 00405620 f i actionbuttonmanager.obj
 0001:00004650       ?NewAction@AutoPlayAnimInOut@ActionButton@@SAPAVButtonHandler@2@PAVActionEventLocator@@@Z 00405650 f i actionbuttonmanager.obj
 0001:00004680       ?NewAction@DestroyObject@ActionButton@@SAPAVButtonHandler@2@PAVActionEventLocator@@@Z 00405680 f i actionbuttonmanager.obj
 0001:000046a0       ?NewAction@UseVendingMachine@ActionButton@@SAPAVButtonHandler@2@PAVActionEventLocator@@@Z 004056a0 f i actionbuttonmanager.obj
 0001:000046d0       ?NewAction@PrankPhone@ActionButton@@SAPAVButtonHandler@2@PAVActionEventLocator@@@Z 004056d0 f i actionbuttonmanager.obj
 0001:00004700       ?NewAction@SummonVehiclePhone@ActionButton@@SAPAVButtonHandler@2@PAVActionEventLocator@@@Z 00405700 f i actionbuttonmanager.obj
 0001:00004720       ??0Doorbell@ActionButton@@QAE@PAVActionEventLocator@@@Z 00405720 f i actionbuttonmanager.obj
 0001:00004730       ??1Doorbell@ActionButton@@UAE@XZ 00405730 f i actionbuttonmanager.obj
 0001:00004740       ?NewAction@Doorbell@ActionButton@@SAPAVButtonHandler@2@PAVActionEventLocator@@@Z 00405740 f i actionbuttonmanager.obj
 0001:00004770       ??_GDoorbell@ActionButton@@UAEPAXI@Z 00405770 f i actionbuttonmanager.obj
 0001:00004770       ??_EDoorbell@ActionButton@@UAEPAXI@Z 00405770 f i actionbuttonmanager.obj
 0001:00004790       ??0OpenDoor@ActionButton@@QAE@PAVActionEventLocator@@@Z 00405790 f i actionbuttonmanager.obj
 0001:000047a0       ??1OpenDoor@ActionButton@@UAE@XZ 004057a0 f i actionbuttonmanager.obj
 0001:000047b0       ?NewAction@OpenDoor@ActionButton@@SAPAVButtonHandler@2@PAVActionEventLocator@@@Z 004057b0 f i actionbuttonmanager.obj
 0001:000047e0       ??_EOpenDoor@ActionButton@@UAEPAXI@Z 004057e0 f i actionbuttonmanager.obj
 0001:000047e0       ??_GOpenDoor@ActionButton@@UAEPAXI@Z 004057e0 f i actionbuttonmanager.obj
 0001:00004800       ??0TalkFood@ActionButton@@QAE@PAVActionEventLocator@@@Z 00405800 f i actionbuttonmanager.obj
 0001:00004810       ??1TalkFood@ActionButton@@UAE@XZ 00405810 f i actionbuttonmanager.obj
 0001:00004820       ?NewAction@TalkFood@ActionButton@@SAPAVButtonHandler@2@PAVActionEventLocator@@@Z 00405820 f i actionbuttonmanager.obj
 0001:00004850       ??_ETalkFood@ActionButton@@UAEPAXI@Z 00405850 f i actionbuttonmanager.obj
 0001:00004850       ??_GTalkFood@ActionButton@@UAEPAXI@Z 00405850 f i actionbuttonmanager.obj
 0001:00004870       ??0TalkDialog@ActionButton@@QAE@PAVActionEventLocator@@@Z 00405870 f i actionbuttonmanager.obj
 0001:00004880       ??1TalkDialog@ActionButton@@UAE@XZ 00405880 f i actionbuttonmanager.obj
 0001:00004890       ?NewAction@TalkDialog@ActionButton@@SAPAVButtonHandler@2@PAVActionEventLocator@@@Z 00405890 f i actionbuttonmanager.obj
 0001:000048c0       ??_GTalkDialog@ActionButton@@UAEPAXI@Z 004058c0 f i actionbuttonmanager.obj
 0001:000048c0       ??_ETalkDialog@ActionButton@@UAEPAXI@Z 004058c0 f i actionbuttonmanager.obj
 0001:000048e0       ??0TalkMission@ActionButton@@QAE@PAVActionEventLocator@@@Z 004058e0 f i actionbuttonmanager.obj
 0001:000048f0       ??1TalkMission@ActionButton@@UAE@XZ 004058f0 f i actionbuttonmanager.obj
 0001:00004900       ?NewAction@TalkMission@ActionButton@@SAPAVButtonHandler@2@PAVActionEventLocator@@@Z 00405900 f i actionbuttonmanager.obj
 0001:00004930       ??_ETalkMission@ActionButton@@UAEPAXI@Z 00405930 f i actionbuttonmanager.obj
 0001:00004930       ??_GTalkMission@ActionButton@@UAEPAXI@Z 00405930 f i actionbuttonmanager.obj
 0001:00004950       ?NewFoodSmallAction@CollectibleFood@ActionButton@@SAPAVButtonHandler@2@PAVActionEventLocator@@@Z 00405950 f i actionbuttonmanager.obj
 0001:00004980       ?NewFoodLargeAction@CollectibleFood@ActionButton@@SAPAVButtonHandler@2@PAVActionEventLocator@@@Z 00405980 f i actionbuttonmanager.obj
 0001:000049b0       ?NewAction@CollectibleCard@ActionButton@@SAPAVButtonHandler@2@PAVActionEventLocator@@@Z 004059b0 f i actionbuttonmanager.obj
 0001:000049d0       ?NewAction@WrenchIcon@ActionButton@@SAPAVButtonHandler@2@PAVActionEventLocator@@@Z 004059d0 f i actionbuttonmanager.obj
 0001:00004a00       ?NewAction@NitroIcon@ActionButton@@SAPAVButtonHandler@2@PAVActionEventLocator@@@Z 00405a00 f i actionbuttonmanager.obj
 0001:00004a30       ?NewAction@TeleportAction@ActionButton@@SAPAVButtonHandler@2@PAVActionEventLocator@@@Z 00405a30 f i actionbuttonmanager.obj
 0001:00004ab0       ?NewAction@PurchaseCar@ActionButton@@SAPAVButtonHandler@2@PAVActionEventLocator@@@Z 00405ab0 f i actionbuttonmanager.obj
 0001:00004b30       ?NewAction@PurchaseSkin@ActionButton@@SAPAVButtonHandler@2@PAVActionEventLocator@@@Z 00405b30 f i actionbuttonmanager.obj
 0001:00004bb0       ?NewAction@PlayAnimOnce@ActionButton@@SAPAVButtonHandler@2@PAVActionEventLocator@@@Z 00405bb0 f i actionbuttonmanager.obj
 0001:00004c00       ?NewAction@AutomaticDoor@ActionButton@@SAPAVButtonHandler@2@PAVActionEventLocator@@@Z 00405c00 f i actionbuttonmanager.obj
 0001:00004c50       ?CompareActionType@ActionButton@@YA_NPBDVtUidUnaligned@@@Z 00405c50 f   actionbuttonmanager.obj
 0001:00004ca0       ??_GISpatialProxyAA@@UAEPAXI@Z 00405ca0 f i actionbuttonmanager.obj
 0001:00004ca0       ??_EISpatialProxyAA@@UAEPAXI@Z 00405ca0 f i actionbuttonmanager.obj
 0001:00004cc0       ??1SpatialNode@@QAE@XZ     00405cc0 f i actionbuttonmanager.obj
 0001:00004dd0       ??0ActionButtonManager@@QAE@XZ 00405dd0 f   actionbuttonmanager.obj
 0001:00004ec0       ??_EActionButtonManager@@UAEPAXI@Z 00405ec0 f i actionbuttonmanager.obj
 0001:00004ec0       ??_GActionButtonManager@@UAEPAXI@Z 00405ec0 f i actionbuttonmanager.obj
 0001:00004ef0       ?FindHandler@ActionButtonManager@@QBEPAVActionEventHandler@ActionButton@@PBVActionEventLocator@@@Z 00405ef0 f   actionbuttonmanager.obj
 0001:00004f40       ?OnProcessRequestsComplete@ActionButtonManager@@UAEXPAX@Z 00405f40 f   actionbuttonmanager.obj
 0001:00004f60       ??1ActionButtonManager@@UAE@XZ 00405f60 f   actionbuttonmanager.obj
 0001:00004fd0       ?Destroy@ActionButtonManager@@QAEXXZ 00405fd0 f   actionbuttonmanager.obj
 0001:00005000       ?CreateInstance@ActionButtonManager@@SAPAV1@XZ 00406000 f   actionbuttonmanager.obj
 0001:00005080       ?GetInstance@ActionButtonManager@@SAPAV1@XZ 00406080 f   actionbuttonmanager.obj
 0001:00005090       ?DestroyInstance@ActionButtonManager@@SAXXZ 00406090 f   actionbuttonmanager.obj
 0001:000050b0       ?Update@ActionButtonManager@@QAEXM@Z 004060b0 f   actionbuttonmanager.obj
 0001:00005110       ?AddActionEventLocator@ActionButtonManager@@QAE_NPAVActionEventLocator@@PAVtEntityStore@@@Z 00406110 f   actionbuttonmanager.obj
 0001:00005120       ?GetActionByIndex@ActionButtonManager@@QBEPAVButtonHandler@ActionButton@@H@Z 00406120 f   actionbuttonmanager.obj
 0001:00005140       ?AddAction@ActionButtonManager@@QAE_NPAVButtonHandler@ActionButton@@AAHVtUidUnaligned@@@Z 00406140 f   actionbuttonmanager.obj
 0001:00005200       ?RemoveActionByIndex@ActionButtonManager@@QAE_NH@Z 00406200 f   actionbuttonmanager.obj
 0001:00005210       ?LinkActionToLocator@ActionButtonManager@@QAE_NPAVActionEventLocator@@PAVtEntityStore@@@Z 00406210 f   actionbuttonmanager.obj
 0001:00005300       ?EnterActionTrigger@ActionButtonManager@@QAEXPAVCharacter@@H@Z 00406300 f   actionbuttonmanager.obj
 0001:00005330       ?ExitActionTrigger@ActionButtonManager@@QAEXPAVCharacter@@H@Z 00406330 f   actionbuttonmanager.obj
 0001:00005360       ?NewActionButtonHandler@ActionButtonManager@@QAEPAVButtonHandler@ActionButton@@PBDPAVActionEventLocator@@@Z 00406360 f   actionbuttonmanager.obj
 0001:000053c0       ?HandleEvent@ActionButtonManager@@UAEXW4EventEnum@@PAX@Z 004063c0 f   actionbuttonmanager.obj
 0001:00005410       ?Find@ActionButtonManager@@ABEHH@Z 00406410 f   actionbuttonmanager.obj
 0001:00005440       ?RemoveActionByArrayPos@ActionButtonManager@@AAE_NH@Z 00406440 f   actionbuttonmanager.obj
 0001:00005470       ??1?$ContiguousBinNode@VSpatialNode@@@@QAE@XZ 00406470 f i actionbuttonmanager.obj
 0001:00005480       ?radMakeCaseInsensitiveKey@@YA?AVtUidUnaligned@@PBDV1@@Z 00406480 f i actionbuttonmanager.obj
 0001:000054f0       ??0AutomaticDoor@ActionButton@@QAE@PAVActionEventLocator@@@Z 004064f0 f   automaticdoor.obj
 0001:00005510       ??_EAutomaticDoor@ActionButton@@UAEPAXI@Z 00406510 f i automaticdoor.obj
 0001:00005510       ??_GAutomaticDoor@ActionButton@@UAEPAXI@Z 00406510 f i automaticdoor.obj
 0001:00005530       ??1AutomaticDoor@ActionButton@@UAE@XZ 00406530 f   automaticdoor.obj
 0001:00005590       ?OnEnter@AutomaticDoor@ActionButton@@MAEXPAVCharacter@@@Z 00406590 f   automaticdoor.obj
 0001:00005600       ?OnExit@AutomaticDoor@ActionButton@@MAEXPAVCharacter@@@Z 00406600 f   automaticdoor.obj
 0001:00005620       ??0PlayAnimOnce@ActionButton@@QAE@PAVActionEventLocator@@@Z 00406620 f   playanimonce.obj
 0001:00005640       ??_GPlayAnimOnce@ActionButton@@UAEPAXI@Z 00406640 f i playanimonce.obj
 0001:00005640       ??_EPlayAnimOnce@ActionButton@@UAEPAXI@Z 00406640 f i playanimonce.obj
 0001:00005660       ??1PlayAnimOnce@ActionButton@@UAE@XZ 00406660 f   playanimonce.obj
 0001:000056c0       ?OnButtonPressed@PlayAnimOnce@ActionButton@@UAE_NPAVCharacter@@PAVSequencer@@@Z 004066c0 f   playanimonce.obj
 0001:00005800       ?PositionCharacter@PlayAnimOnce@ActionButton@@UAEXPAVCharacter@@PAVSequencer@@@Z 00406800 f   playanimonce.obj
 0001:00005810       ?HasDriver@Vehicle@@QBE_NXZ 00406810 f i state.obj
 0001:00005830       ??0RayIntersectionInfo@sim@@QAE@XZ 00406830 f i state.obj
 0001:00005830       ??0tSubPartState@@QAE@XZ   00406830 f i pure3dwr:sequencer.obj
 0001:00005840       ?SetFacingDir@Character@@QAEXM@Z 00406840 f i state.obj
 0001:000058a0       ??0DelayAction@@QAE@M@Z    004068a0 f i state.obj
 0001:000058c0       ?Update@DelayAction@@UAEXM@Z 004068c0 f i state.obj
 0001:000058f0       ??_EDelayAction@@UAEPAXI@Z 004068f0 f i state.obj
 0001:000058f0       ??_G?$ChangeState@VInCar@CharacterAi@@@@UAEPAXI@Z 004068f0 f i state.obj
 0001:000058f0       ??_GDelayAction@@UAEPAXI@Z 004068f0 f i state.obj
 0001:000058f0       ??_E?$ChangeState@VInCar@CharacterAi@@@@UAEPAXI@Z 004068f0 f i state.obj
 0001:000058f0       ??_EReleaseDoorsAction@@UAEPAXI@Z 004068f0 f i state.obj
 0001:000058f0       ??_E?$ChangeState@VLoco@CharacterAi@@@@UAEPAXI@Z 004068f0 f i state.obj
 0001:000058f0       ??_G?$ChangeState@VLoco@CharacterAi@@@@UAEPAXI@Z 004068f0 f i state.obj
 0001:000058f0       ??_GReleaseDoorsAction@@UAEPAXI@Z 004068f0 f i state.obj
 0001:00005920       ??1GroundSnap@@UAE@XZ      00406920 f i state.obj
 0001:00005930       ??_EGroundSnap@@UAEPAXI@Z  00406930 f i state.obj
 0001:00005930       ??_GGroundSnap@@UAEPAXI@Z  00406930 f i state.obj
 0001:00005960       ??0ChangeNPCControllerState@@QAE@PAVCharacter@@W4State@NPCController@@@Z 00406960 f i state.obj
 0001:00005990       ??0KickAction@@QAE@PAVCharacter@@M@Z 00406990 f i state.obj
 0001:000059c0       ??_GKickAction@@UAEPAXI@Z  004069c0 f i state.obj
 0001:000059c0       ??_EKickAction@@UAEPAXI@Z  004069c0 f i state.obj
 0001:000059f0       ?IsInside@InteriorManager@@QAE_NXZ 004069f0 f i state.obj
 0001:00005a10       ??0State@CharacterAi@@QAE@PAVCharacter@@@Z 00406a10 f   state.obj
 0001:00005a20       ??_EState@CharacterAi@@UAEPAXI@Z 00406a20 f i state.obj
 0001:00005a20       ??_GState@CharacterAi@@UAEPAXI@Z 00406a20 f i state.obj
 0001:00005a50       ??1State@CharacterAi@@UAE@XZ 00406a50 f   state.obj
 0001:00005a60       ??0InCar@CharacterAi@@QAE@PAVCharacter@@@Z 00406a60 f   state.obj
 0001:00005ae0       ??_EInCar@CharacterAi@@UAEPAXI@Z 00406ae0 f i state.obj
 0001:00005ae0       ??_GInCar@CharacterAi@@UAEPAXI@Z 00406ae0 f i state.obj
 0001:00005b10       ??1InCar@CharacterAi@@UAE@XZ 00406b10 f   state.obj
 0001:00005b60       ?Enter@InCar@CharacterAi@@MAEXXZ 00406b60 f   state.obj
 0001:00005d50       ?Exit@InCar@CharacterAi@@MAEXXZ 00406d50 f   state.obj
 0001:00005dc0       ?SequenceAction@InCar@CharacterAi@@MAEXXZ 00406dc0 f   state.obj
 0001:00005eb0       ?Update@InCar@CharacterAi@@MAEXM@Z 00406eb0 f   state.obj
 0001:000066e0       ??0Loco@CharacterAi@@QAE@PAVCharacter@@@Z 004076e0 f   state.obj
 0001:00006700       ??_ELoco@CharacterAi@@UAEPAXI@Z 00407700 f i state.obj
 0001:00006700       ??_GLoco@CharacterAi@@UAEPAXI@Z 00407700 f i state.obj
 0001:00006730       ??1Loco@CharacterAi@@UAE@XZ 00407730 f   state.obj
 0001:00006740       ?Enter@Loco@CharacterAi@@MAEXXZ 00407740 f   state.obj
 0001:000067f0       ?Exit@Loco@CharacterAi@@MAEXXZ 004077f0 f   state.obj
 0001:00006830       ?SequenceAction@Loco@CharacterAi@@MAEXXZ 00407830 f   state.obj
 0001:00006fb0       ??0GetIn@CharacterAi@@QAE@PAVCharacter@@@Z 00407fb0 f   state.obj
 0001:00006ff0       ??_EGetIn@CharacterAi@@UAEPAXI@Z 00407ff0 f i state.obj
 0001:00006ff0       ??_GGetIn@CharacterAi@@UAEPAXI@Z 00407ff0 f i state.obj
 0001:00007020       ??1GetIn@CharacterAi@@UAE@XZ 00408020 f   state.obj
 0001:00007040       ?Enter@GetIn@CharacterAi@@MAEXXZ 00408040 f   state.obj
 0001:00007c40       ?HandleEvent@GetIn@CharacterAi@@MAEXW4EventEnum@@PAX@Z 00408c40 f   state.obj
 0001:00007d30       ?CalcGetInPath@GetIn@CharacterAi@@AAEXPAHPAVVector@RadicalMathLibrary@@PA_N2@Z 00408d30 f   state.obj
 0001:000081f0       ?SequenceAction@GetIn@CharacterAi@@MAEXXZ 004091f0 f   state.obj
 0001:000081f0       ?SequenceAction@GetOut@CharacterAi@@MAEXXZ 004091f0 f   state.obj
 0001:000081f0       ?ReleaseVerified@radLoadObject@@QAEXXZ 004091f0 f   radcontentwr:object.obj
 0001:00008200       ?Update@GetIn@CharacterAi@@MAEXM@Z 00409200 f   state.obj
 0001:00008280       ?Exit@GetIn@CharacterAi@@MAEXXZ 00409280 f   state.obj
 0001:000082c0       ??0GetOut@CharacterAi@@QAE@PAVCharacter@@@Z 004092c0 f   state.obj
 0001:000082f0       ??_GGetOut@CharacterAi@@UAEPAXI@Z 004092f0 f i state.obj
 0001:000082f0       ??_EGetOut@CharacterAi@@UAEPAXI@Z 004092f0 f i state.obj
 0001:00008320       ??1GetOut@CharacterAi@@UAE@XZ 00409320 f   state.obj
 0001:00008340       ?Enter@GetOut@CharacterAi@@MAEXXZ 00409340 f   state.obj
 0001:00008430       ?HandleEvent@GetOut@CharacterAi@@MAEXW4EventEnum@@PAX@Z 00409430 f   state.obj
 0001:000087e0       ?Update@GetOut@CharacterAi@@MAEXM@Z 004097e0 f   state.obj
 0001:00008820       ?DoGetOut@GetOut@CharacterAi@@IAEXXZ 00409820 f   state.obj
 0001:00009090       ??0InSim@CharacterAi@@QAE@PAVCharacter@@@Z 0040a090 f   state.obj
 0001:000090a0       ??_EInSim@CharacterAi@@UAEPAXI@Z 0040a0a0 f i state.obj
 0001:000090a0       ??_GInSim@CharacterAi@@UAEPAXI@Z 0040a0a0 f i state.obj
 0001:000090d0       ??1InSim@CharacterAi@@UAE@XZ 0040a0d0 f   state.obj
 0001:000090e0       ?Enter@InSim@CharacterAi@@MAEXXZ 0040a0e0 f   state.obj
 0001:000091c0       ?SequenceAction@InSim@CharacterAi@@MAEXXZ 0040a1c0 f   state.obj
 0001:000091d0       ??0?$TArray@VRayIntersectionInfo@sim@@@sim@@QAE@H@Z 0040a1d0 f i state.obj
 0001:00009260       ?Update@?$ChangeState@VInCar@CharacterAi@@@@UAEXM@Z 0040a260 f i state.obj
 0001:00009280       ?Update@?$ChangeState@VLoco@CharacterAi@@@@UAEXM@Z 0040a280 f i state.obj
 0001:000092a0       ?SetState@?$@VGetOut@CharacterAi@@@StateManager@CharacterAi@@QAEXXZ 0040a2a0 f i state.obj
 0001:00009300       ?SequenceSingleAction@ActionController@@QAEPAVSurfAction@@PAV2@@Z 0040a300 f i action.obj
 0001:00009300       ?SequenceSingleAction@ActionController@@QAEPAVPlayAnimationAction@@PAV2@@Z 0040a300 f i state.obj
 0001:00009300       ?SequenceSingleAction@ActionController@@QAEPAVAction@@PAV2@@Z 0040a300 f i state.obj
 0001:00009330       ?SetState@?$@VLoco@CharacterAi@@@StateManager@CharacterAi@@QAEXXZ 0040a330 f i state.obj
 0001:00009390       ?SetState@?$@VInCar@CharacterAi@@@CharacterAi@@YAXPAVStateManager@1@@Z 0040a390 f i state.obj
 0001:00009420       ?SetState@?$@VLoco@CharacterAi@@@CharacterAi@@YAXPAVStateManager@1@@Z 0040a420 f i state.obj
 0001:00009480       ??_EGetOut@CharacterAi@@W7AEPAXI@Z 0040a480 f i state.obj
 0001:00009490       ??_EGetIn@CharacterAi@@W7AEPAXI@Z 0040a490 f i state.obj
 0001:000094a0       ?Length@Vector@RadicalMathLibrary@@QBEMXZ 0040a4a0 f i vehicleai.obj
 0001:000094a0       ?Magnitude@Vector@RadicalMathLibrary@@QBEMXZ 0040a4a0 f i state.obj
 0001:000094d0       ??GVector@RadicalMathLibrary@@QBE?AV01@ABV01@@Z 0040a4d0 f i state.obj
 0001:00009500       ?Abs@RadicalMathLibrary@@YAMM@Z 0040a500 f i state.obj
 0001:00009520       ?Add@Vector@RadicalMathLibrary@@QAEXABV12@@Z 0040a520 f i state.obj
 0001:00009540       ??1NoState@CharacterAi@@UAE@XZ 0040a540 f i statemanager.obj
 0001:00009550       ??_ENoState@CharacterAi@@UAEPAXI@Z 0040a550 f i statemanager.obj
 0001:00009550       ??_GNoState@CharacterAi@@UAEPAXI@Z 0040a550 f i statemanager.obj
 0001:00009580       ??0StateManager@CharacterAi@@QAE@PAVCharacter@@@Z 0040a580 f   statemanager.obj
 0001:000095c0       ??1StateManager@CharacterAi@@QAE@XZ 0040a5c0 f   statemanager.obj
 0001:000095e0       ?GetCharacter@StateManager@CharacterAi@@QAEPAVCharacter@@XZ 0040a5e0 f   statemanager.obj
 0001:000095e0       ?GetWrenchRespawnTime@RespawnManager@@QAEHXZ 0040a5e0 f   respawnmanager.obj
 0001:000095f0       ?GetState@StateManager@CharacterAi@@QBE?AW4CharacterState@2@XZ 0040a5f0 f   statemanager.obj
 0001:00009600       ?SetState@StateManager@CharacterAi@@QAEXPAVState@2@@Z 0040a600 f   statemanager.obj
 0001:00009620       ?ResetState@StateManager@CharacterAi@@QAEXXZ 0040a620 f   statemanager.obj
 0001:00009650       ?Update@StateManager@CharacterAi@@QAEXM@Z 0040a650 f   statemanager.obj
 0001:000096c0       ?GetCurrentState@StateManager@CharacterAi@@QBEPBVState@2@XZ 0040a6c0 f   statemanager.obj
 0001:000096c0       ?GetPlatform@Game@@QAEPAVPlatform@@XZ 0040a6c0 f   game.obj
 0001:000096c0       ?GetCharacter@PresentationAnimator@@QAEPAVCharacter@@XZ 0040a6c0 f   presentationanimator.obj
 0001:000096c0       ?GetWaspRespawnTime@RespawnManager@@QAEHXZ 0040a6c0 f   respawnmanager.obj
 0001:000096d0       ?GetFacing@Character@@QBEXAAVVector@RadicalMathLibrary@@@Z 0040a6d0 f i action.obj
 0001:00009720       ?GetFacingDir@Character@@QBEMXZ 0040a720 f i action.obj
 0001:00009780       ?GetDesiredDir@Character@@QBEMXZ 0040a780 f i action.obj
 0001:000097d0       ?SetPosition@Character@@QAEXABVVector@RadicalMathLibrary@@@Z 0040a7d0 f i action.obj
 0001:00009840       ?SetSpeed@Character@@QAEXM@Z 0040a840 f i action.obj
 0001:000098f0       ?WorldToLocal@Character@@QBE?AVVector@RadicalMathLibrary@@ABV23@@Z 0040a8f0 f i action.obj
 0001:00009940       ?LocalToWorld@Character@@QBE?AVVector@RadicalMathLibrary@@ABV23@@Z 0040a940 f i action.obj
 0001:00009990       ?AnyStickMovement@@YA_NPAVCharacter@@M@Z 0040a990 f i action.obj
 0001:00009ae0       ??1Action@@UAE@XZ          0040aae0 f   action.obj
 0001:00009af0       ??0WalkerLocomotionAction@@QAE@PAVCharacter@@@Z 0040aaf0 f   action.obj
 0001:00009ba0       ??_EWalkerLocomotionAction@@UAEPAXI@Z 0040aba0 f i action.obj
 0001:00009ba0       ??_GWalkerLocomotionAction@@UAEPAXI@Z 0040aba0 f i action.obj
 0001:00009bd0       ??1WalkerLocomotionAction@@UAE@XZ 0040abd0 f   action.obj
 0001:00009c40       ?PlayDriver@WalkerLocomotionAction@@QAEXXZ 0040ac40 f   action.obj
 0001:00009c60       ?StopDriver@WalkerLocomotionAction@@QAEXXZ 0040ac60 f   action.obj
 0001:00009c80       ?SwitchLocomotion@WalkerLocomotionAction@@QAEXXZ 0040ac80 f   action.obj
 0001:00009cf0       ?SolveActualDir@WalkerLocomotionAction@@IAEMMM@Z 0040acf0 f   action.obj
 0001:00009d60       ?SolveActualSpeed@WalkerLocomotionAction@@IAEMMM@Z 0040ad60 f   action.obj
 0001:00009dd0       ?DoSimulation@WalkerLocomotionAction@@UAEXM@Z 0040add0 f   action.obj
 0001:00009f60       ?Update@WalkerLocomotionAction@@UAEXM@Z 0040af60 f   action.obj
 0001:0000a300       ??0InCarAction@@QAE@PAVCharacter@@@Z 0040b300 f   action.obj
 0001:0000a340       ??_EInCarAction@@UAEPAXI@Z 0040b340 f i action.obj
 0001:0000a340       ??_GInCarAction@@UAEPAXI@Z 0040b340 f i action.obj
 0001:0000a370       ??1InCarAction@@UAE@XZ     0040b370 f   action.obj
 0001:0000a3d0       ?WakeUp@InCarAction@@UAEXM@Z 0040b3d0 f   action.obj
 0001:0000a420       ?IWannaRock@InCarAction@@IAEX_N@Z 0040b420 f   action.obj
 0001:0000a570       ?DoSimulation@HoldAnimationAction@@UAEXM@Z 0040b570 f   action.obj
 0001:0000a570       ?DoSimulation@InCarAction@@UAEXM@Z 0040b570 f   action.obj
 0001:0000a5d0       ?Update@InCarAction@@UAEXM@Z 0040b5d0 f   action.obj
 0001:0000a690       ?Clear@InCarAction@@UAEXXZ 0040b690 f   action.obj
 0001:0000a6c0       ??0HoldAnimationAction@@QAE@PAVCharacter@@PBDM@Z 0040b6c0 f   action.obj
 0001:0000a740       ??_EHoldAnimationAction@@UAEPAXI@Z 0040b740 f i action.obj
 0001:0000a740       ??_GHoldAnimationAction@@UAEPAXI@Z 0040b740 f i action.obj
 0001:0000a770       ??1HoldAnimationAction@@UAE@XZ 0040b770 f   action.obj
 0001:0000a7d0       ?WakeUp@HoldAnimationAction@@UAEXM@Z 0040b7d0 f   action.obj
 0001:0000a880       ?Update@HoldAnimationAction@@UAEXM@Z 0040b880 f   action.obj
 0001:0000a8c0       ?Clear@HoldAnimationAction@@UAEXXZ 0040b8c0 f   action.obj
 0001:0000a8f0       ??0SteerAction@@QAE@PAVCharacter@@PBDM@Z 0040b8f0 f   action.obj
 0001:0000a910       ?ShouldRelease@SteerAction@@MAE_NXZ 0040b910 f   action.obj
 0001:0000a990       ??0ReverseAction@@QAE@PAVCharacter@@PBDM@Z 0040b990 f   action.obj
 0001:0000a9b0       ??_EReverseAction@@UAEPAXI@Z 0040b9b0 f i action.obj
 0001:0000a9b0       ??_GReverseAction@@UAEPAXI@Z 0040b9b0 f i action.obj
 0001:0000a9e0       ?ShouldRelease@ReverseAction@@MAE_NXZ 0040b9e0 f   action.obj
 0001:0000aa40       ??0AccelAction@@QAE@PAVCharacter@@PBDM@Z 0040ba40 f   action.obj
 0001:0000aa60       ?ShouldRelease@AccelAction@@MAE_NXZ 0040ba60 f   action.obj
 0001:0000aa90       ??0DecelAction@@QAE@PAVCharacter@@PBDM@Z 0040ba90 f   action.obj
 0001:0000aab0       ??_EAccelAction@@UAEPAXI@Z 0040bab0 f i action.obj
 0001:0000aab0       ??_GAccelAction@@UAEPAXI@Z 0040bab0 f i action.obj
 0001:0000aab0       ??_GDecelAction@@UAEPAXI@Z 0040bab0 f i action.obj
 0001:0000aab0       ??_EDecelAction@@UAEPAXI@Z 0040bab0 f i action.obj
 0001:0000aab0       ??_GSteerAction@@UAEPAXI@Z 0040bab0 f i action.obj
 0001:0000aab0       ??_ESteerAction@@UAEPAXI@Z 0040bab0 f i action.obj
 0001:0000aae0       ??1DecelAction@@UAE@XZ     0040bae0 f i action.obj
 0001:0000aae0       ??1AccelAction@@UAE@XZ     0040bae0 f i action.obj
 0001:0000aae0       ??1SteerAction@@UAE@XZ     0040bae0 f i action.obj
 0001:0000aae0       ??1ReverseAction@@UAE@XZ   0040bae0 f i action.obj
 0001:0000aaf0       ?ShouldRelease@DecelAction@@MAE_NXZ 0040baf0 f   action.obj
 0001:0000ab50       ??0Arrive@@QAE@PAVCharacter@@AAVVector@RadicalMathLibrary@@_N@Z 0040bb50 f   action.obj
 0001:0000abc0       ??_EArrive@@UAEPAXI@Z      0040bbc0 f i action.obj
 0001:0000abc0       ??_GArrive@@UAEPAXI@Z      0040bbc0 f i action.obj
 0001:0000abf0       ??1Arrive@@UAE@XZ          0040bbf0 f   action.obj
 0001:0000ac00       ?WakeUp@Arrive@@UAEXM@Z    0040bc00 f   action.obj
 0001:0000acd0       ?DoSimulation@Arrive@@UAEXM@Z 0040bcd0 f   action.obj
 0001:0000af50       ?Clear@Arrive@@UAEXXZ      0040bf50 f   action.obj
 0001:0000af70       ??0Orient@@QAE@PAVCharacter@@AAVVector@RadicalMathLibrary@@@Z 0040bf70 f   action.obj
 0001:0000b000       ??_EOrient@@UAEPAXI@Z      0040c000 f i action.obj
 0001:0000b000       ??_GOrient@@UAEPAXI@Z      0040c000 f i action.obj
 0001:0000b030       ??1Orient@@UAE@XZ          0040c030 f   action.obj
 0001:0000b040       ?WakeUp@Orient@@UAEXM@Z    0040c040 f   action.obj
 0001:0000b050       ?DoSimulation@Orient@@UAEXM@Z 0040c050 f   action.obj
 0001:0000b070       ?Update@Orient@@UAEXM@Z    0040c070 f   action.obj
 0001:0000b120       ??0Position@@QAE@PAVCharacter@@AAVVector@RadicalMathLibrary@@M_N@Z 0040c120 f   action.obj
 0001:0000b170       ??_GPosition@@UAEPAXI@Z    0040c170 f i action.obj
 0001:0000b170       ??_EPosition@@UAEPAXI@Z    0040c170 f i action.obj
 0001:0000b1a0       ??1Position@@UAE@XZ        0040c1a0 f   action.obj
 0001:0000b1b0       ?DoSimulation@Position@@UAEXM@Z 0040c1b0 f   action.obj
 0001:0000b300       ?WakeUp@GroundSnap@@UAEXM@Z 0040c300 f   action.obj
 0001:0000b3b0       ??0PlayAnimationAction@@QAE@PAVCharacter@@PBDM@Z 0040c3b0 f   action.obj
 0001:0000b440       ??0PlayAnimationAction@@QAE@PAVCharacter@@ABVtName@@M@Z 0040c440 f   action.obj
 0001:0000b4a0       ?AbortWhenMovementOccurs@PlayAnimationAction@@QAEX_N@Z 0040c4a0 f   action.obj
 0001:0000b4c0       ?WakeUp@PlayAnimationAction@@UAEXM@Z 0040c4c0 f   action.obj
 0001:0000b590       ?Update@PlayAnimationAction@@UAEXM@Z 0040c590 f   action.obj
 0001:0000b5c0       ?ShouldAbort@PlayAnimationAction@@MAE_NXZ 0040c5c0 f   action.obj
 0001:0000b5f0       ?Clear@PlayAnimationAction@@UAEXXZ 0040c5f0 f   action.obj
 0001:0000b620       ??0PlayIdleAnimationAction@@QAE@PAVCharacter@@PBDM@Z 0040c620 f   action.obj
 0001:0000b640       ??_GPlayIdleAnimationAction@@UAEPAXI@Z 0040c640 f i action.obj
 0001:0000b640       ??_EPlayAnimationAction@@UAEPAXI@Z 0040c640 f i action.obj
 0001:0000b640       ??_EPlayIdleAnimationAction@@UAEPAXI@Z 0040c640 f i action.obj
 0001:0000b640       ??_GPlayAnimationAction@@UAEPAXI@Z 0040c640 f i action.obj
 0001:0000b670       ?WakeUp@PlayIdleAnimationAction@@UAEXM@Z 0040c670 f   action.obj
 0001:0000b6c0       ?Clear@PlayIdleAnimationAction@@UAEXXZ 0040c6c0 f   action.obj
 0001:0000b6d0       ?Abort@PlayIdleAnimationAction@@UAEXXZ 0040c6d0 f   action.obj
 0001:0000b6e0       ??0CarDoorAction@@QAE@PAVVehicle@@W4DoorAction@1@W4Door@1@MMPAVCharacter@@PAVSequencer@@@Z 0040c6e0 f   action.obj
 0001:0000b730       ??_ECarDoorAction@@UAEPAXI@Z 0040c730 f i action.obj
 0001:0000b730       ??_GCarDoorAction@@UAEPAXI@Z 0040c730 f i action.obj
 0001:0000b760       ?WakeUp@CarDoorAction@@UAEXM@Z 0040c760 f   action.obj
 0001:0000b790       ?Update@CarDoorAction@@UAEXM@Z 0040c790 f   action.obj
 0001:0000b800       ?Update@ReleaseDoorsAction@@UAEXM@Z 0040c800 f   action.obj
 0001:0000b820       ??0JumpAction@@QAE@PAVCharacter@@PBDM@Z 0040c820 f   action.obj
 0001:0000b940       ??_GJumpAction@@UAEPAXI@Z  0040c940 f i action.obj
 0001:0000b940       ??_EJumpAction@@UAEPAXI@Z  0040c940 f i action.obj
 0001:0000b970       ??1JumpAction@@UAE@XZ      0040c970 f   action.obj
 0001:0000b9f0       ?SetRootTransform@JumpAction@@QAEXXZ 0040c9f0 f   action.obj
 0001:0000ba20       ?SetRootPosition@JumpAction@@QAEXABVVector@RadicalMathLibrary@@@Z 0040ca20 f   action.obj
 0001:0000ba30       ?Reset@JumpAction@@QAEXABVVector@RadicalMathLibrary@@_N@Z 0040ca30 f   action.obj
 0001:0000bb20       ?Reset@JumpAction@@QAEMM_N@Z 0040cb20 f   action.obj
 0001:0000bd80       ?WakeUp@JumpAction@@UAEXM@Z 0040cd80 f   action.obj
 0001:0000be20       ?DoSimulation@JumpAction@@UAEXM@Z 0040ce20 f   action.obj
 0001:0000c0c0       ?SolveActualDir@JumpAction@@IAEMMM@Z 0040d0c0 f   action.obj
 0001:0000c120       ?Update@JumpAction@@UAEXM@Z 0040d120 f   action.obj
 0001:0000c6d0       ?TestForJumpAgain@JumpAction@@QAEXABVVector@RadicalMathLibrary@@MAAV23@@Z 0040d6d0 f   action.obj
 0001:0000c890       ?Clear@JumpAction@@UAEXXZ  0040d890 f   action.obj
 0001:0000c930       ??0DodgeAction@@QAE@PAVCharacter@@@Z 0040d930 f   action.obj
 0001:0000c960       ?WakeUp@DodgeAction@@UAEXM@Z 0040d960 f   action.obj
 0001:0000c9c0       ?DoSimulation@DodgeAction@@UAEXM@Z 0040d9c0 f   action.obj
 0001:0000ca40       ?Update@DodgeAction@@UAEXM@Z 0040da40 f   action.obj
 0001:0000ca40       ?Update@CringeAction@@UAEXM@Z 0040da40 f   action.obj
 0001:0000ca70       ?Clear@DodgeAction@@UAEXXZ 0040da70 f   action.obj
 0001:0000caa0       ?SolveActualDir@DodgeAction@@IAEMMM@Z 0040daa0 f   action.obj
 0001:0000cad0       ??0CringeAction@@QAE@PAVCharacter@@@Z 0040dad0 f   action.obj
 0001:0000cb00       ?WakeUp@CringeAction@@UAEXM@Z 0040db00 f   action.obj
 0001:0000cb50       ?Clear@CringeAction@@UAEXXZ 0040db50 f   action.obj
 0001:0000cb70       ??0FlailAction@@QAE@PAVCharacter@@@Z 0040db70 f   action.obj
 0001:0000cba0       ?WakeUp@FlailAction@@UAEXM@Z 0040dba0 f   action.obj
 0001:0000cc00       ?Update@FlailAction@@UAEXM@Z 0040dc00 f   action.obj
 0001:0000cc20       ?Clear@FlailAction@@UAEXXZ 0040dc20 f   action.obj
 0001:0000cc50       ??0GetUpAction@@QAE@PAVCharacter@@@Z 0040dc50 f   action.obj
 0001:0000cc80       ?WakeUp@GetUpAction@@UAEXM@Z 0040dc80 f   action.obj
 0001:0000cd10       ?Update@GetUpAction@@UAEXM@Z 0040dd10 f   action.obj
 0001:0000ce30       ?Clear@GetUpAction@@UAEXXZ 0040de30 f   action.obj
 0001:0000ce60       ?Update@ChangeLocomotion@@UAEXM@Z 0040de60 f   action.obj
 0001:0000ceb0       ?Update@ChangeNPCControllerState@@UAEXM@Z 0040deb0 f   action.obj
 0001:0000ced0       ?Abort@ChangeNPCControllerState@@UAEXXZ 0040ded0 f   action.obj
 0001:0000cef0       ?Update@KickAction@@UAEXM@Z 0040def0 f   action.obj
 0001:0000cf20       ??0SurfAction@@QAE@PAVCharacter@@@Z 0040df20 f   action.obj
 0001:0000cf50       ??_GSurfAction@@UAEPAXI@Z  0040df50 f i action.obj
 0001:0000cf50       ??_ESurfAction@@UAEPAXI@Z  0040df50 f i action.obj
 0001:0000cf80       ??1SlaveAction@@UAE@XZ     0040df80 f i state.obj
 0001:0000cf80       ??1PlayIdleAnimationAction@@UAE@XZ 0040df80 f i action.obj
 0001:0000cf80       ??1FlailAction@@UAE@XZ     0040df80 f i action.obj
 0001:0000cf80       ??1GetUpAction@@UAE@XZ     0040df80 f i action.obj
 0001:0000cf80       ??1ChangeNPCControllerState@@UAE@XZ 0040df80 f i state.obj
 0001:0000cf80       ??1TriggerEventAction@@UAE@XZ 0040df80 f i actionbuttonhandler.obj
 0001:0000cf80       ??1CarDoorAction@@UAE@XZ   0040df80 f i action.obj
 0001:0000cf80       ??1CringeAction@@UAE@XZ    0040df80 f i action.obj
 0001:0000cf80       ??1?$ChangeState@VInCar@CharacterAi@@@@UAE@XZ 0040df80 f i state.obj
 0001:0000cf80       ??1SurfAction@@UAE@XZ      0040df80 f i action.obj
 0001:0000cf80       ??1ChangeLocomotion@@UAE@XZ 0040df80 f i state.obj
 0001:0000cf80       ??1DelayAction@@UAE@XZ     0040df80 f i state.obj
 0001:0000cf80       ??1KickAction@@UAE@XZ      0040df80 f i state.obj
 0001:0000cf80       ??1?$ChangeState@VLoco@CharacterAi@@@@UAE@XZ 0040df80 f i state.obj
 0001:0000cf80       ??1DodgeAction@@UAE@XZ     0040df80 f i action.obj
 0001:0000cf80       ??1ReleaseDoorsAction@@UAE@XZ 0040df80 f i state.obj
 0001:0000cf80       ??1PlayAnimationAction@@UAE@XZ 0040df80 f i action.obj
 0001:0000cf80       ??1AssignValueToFloat@@UAE@XZ 0040df80 f i actionbuttonhandler.obj
 0001:0000cf90       ?ShouldAbort@SurfAction@@MAE_NXZ 0040df90 f   action.obj
 0001:0000cfb0       ?Update@SurfAction@@MAEXM@Z 0040dfb0 f   action.obj
 0001:0000d090       ?find@?$@VAnimation@choreo@@@choreo@@YAPAVAnimation@1@PBVBaseBank@1@VtUidUnaligned@@@Z 0040e090 f i action.obj
 0001:0000d0f0       ?find@?$@VAnimation@choreo@@@choreo@@YAPAVAnimation@1@PBVBaseBank@1@PBD@Z 0040e0f0 f i action.obj
 0001:0000d160       ?find@?$@VLocomotion@choreo@@@choreo@@YAPAVLocomotion@1@PBVBaseBank@1@VtUidUnaligned@@@Z 0040e160 f i action.obj
 0001:0000d1c0       ?Release@radLoadObject@@SAXAAPAVAnimationDriver@choreo@@@Z 0040e1c0 f i action.obj
 0001:0000d1e0       ?Assign@radLoadObject@@SAXAAPAVLocomotionSlot@choreo@@PAV23@@Z 0040e1e0 f i choreowr:locomotion.obj
 0001:0000d1e0       ?Assign@radLoadObject@@SAXAAPAVAnimationDriver@choreo@@PAV23@@Z 0040e1e0 f i action.obj
 0001:0000d210       ?safe_cast@?$SafeCast@VAnimation@choreo@@@radLoadInventory@@UAEPAUIRefCount@@PAU3@@Z 0040e210 f i action.obj
 0001:0000d230       ?safe_cast@?$SafeCast@VLocomotion@choreo@@@radLoadInventory@@UAEPAUIRefCount@@PAU3@@Z 0040e230 f i action.obj
 0001:0000d250       ?Max@RadicalMathLibrary@@YAMMM@Z 0040e250 f i action.obj
 0001:0000d270       ?Min@RadicalMathLibrary@@YAMMM@Z 0040e270 f i action.obj
 0001:0000d290       ?Sub@Vector@RadicalMathLibrary@@QAEXABV12@0@Z 0040e290 f i action.obj
 0001:0000d2c0       ?MagnitudeSqr@Vector@RadicalMathLibrary@@QBEMXZ 0040e2c0 f i action.obj
 0001:0000d2e0       ?Epsilon@RadicalMathLibrary@@YA_NMMM@Z 0040e2e0 f i action.obj
 0001:0000d310       ??0ActionController@@QAE@XZ 0040e310 f   actioncontroller.obj
 0001:0000d340       ??_EActionController@@UAEPAXI@Z 0040e340 f i actioncontroller.obj
 0001:0000d340       ??_GActionController@@UAEPAXI@Z 0040e340 f i actioncontroller.obj
 0001:0000d360       ??1ActionController@@UAE@XZ 0040e360 f   actioncontroller.obj
 0001:0000d380       ?Clear@ActionController@@QAEXXZ 0040e380 f   actioncontroller.obj
 0001:0000d3a0       ?WakeUp@ActionController@@QAEXM@Z 0040e3a0 f   actioncontroller.obj
 0001:0000d3f0       ?DoSimulation@ActionController@@QAEXM@Z 0040e3f0 f   actioncontroller.obj
 0001:0000d410       ?Update@ActionController@@QAEXM@Z 0040e410 f   actioncontroller.obj
 0001:0000d430       ??0Sequencer@@QAE@XZ       0040e430 f   sequencer.obj
 0001:0000d450       ??_GSequencer@@UAEPAXI@Z   0040e450 f i sequencer.obj
 0001:0000d450       ??_ESequencer@@UAEPAXI@Z   0040e450 f i sequencer.obj
 0001:0000d470       ??1Sequencer@@UAE@XZ       0040e470 f   sequencer.obj
 0001:0000d480       ?ClearSequence@Sequencer@@AAEXPAUsSequence@1@@Z 0040e480 f   sequencer.obj
 0001:0000d4e0       ?Clear@Sequencer@@QAEXXZ   0040e4e0 f   sequencer.obj
 0001:0000d520       ?BeginSequence@Sequencer@@QAEXXZ 0040e520 f   sequencer.obj
 0001:0000d550       ?EndSequence@Sequencer@@QAEXXZ 0040e550 f   sequencer.obj
 0001:0000d560       ?AddAction@Sequencer@@QAEXMMPAVAction@@@Z 0040e560 f   sequencer.obj
 0001:0000d590       ?AddActionToSequence@Sequencer@@QAEXMMPAVAction@@@Z 0040e590 f   sequencer.obj
 0001:0000d5d0       ?IsBusy@Sequencer@@QBE_NXZ 0040e5d0 f   sequencer.obj
 0001:0000d600       ?WakeUp@Sequencer@@QAEXM@Z 0040e600 f   sequencer.obj
 0001:0000d680       ?DoSimulation@Sequencer@@QAEXM@Z 0040e680 f   sequencer.obj
 0001:0000d710       ?Update@Sequencer@@QAEXM@Z 0040e710 f   sequencer.obj
 0001:0000d800       ??0Task@@QAE@XZ            0040e800 f   task.obj
 0001:0000d820       ??_GTask@@UAEPAXI@Z        0040e820 f i task.obj
 0001:0000d820       ??_ETask@@UAEPAXI@Z        0040e820 f i task.obj
 0001:0000d840       ??1Task@@UAE@XZ            0040e840 f   task.obj
 0001:0000d850       ?SetStatus@Task@@QAEXW4Status@@@Z 0040e850 f   task.obj
 0001:0000d850       ?SetObjectiveType@MissionObjective@@QAEXW4ObjectiveTypeEnum@1@@Z 0040e850 f   missionobjective.obj
 0001:0000d860       ?Run@Task@@QAEXXZ          0040e860 f   task.obj
 0001:0000d870       ?IsRunning@Task@@QAE_NXZ   0040e870 f   task.obj
 0001:0000d880       ?Done@Task@@QAEXXZ         0040e880 f   task.obj
 0001:0000d890       ?IsDone@Task@@QAE_NXZ      0040e890 f   task.obj
 0001:0000d8a0       ??0ChaseAI@@QAE@PAVVehicle@@M@Z 0040e8a0 f   chaseai.obj
 0001:0000d900       ??_EChaseAI@@UAEPAXI@Z     0040e900 f i chaseai.obj
 0001:0000d900       ??_GChaseAI@@UAEPAXI@Z     0040e900 f i chaseai.obj
 0001:0000d920       ??1ChaseAI@@UAE@XZ         0040e920 f   chaseai.obj
 0001:0000d940       ?Initialize@ChaseAI@@UAEXXZ 0040e940 f   chaseai.obj
 0001:0000d950       ?Reset@ChaseAI@@UAEXXZ     0040e950 f   chaseai.obj
 0001:0000d990       ?Update@ChaseAI@@UAEXM@Z   0040e990 f   chaseai.obj
 0001:0000dba0       ?DoCatchUp@ChaseAI@@MAEXM@Z 0040eba0 f   chaseai.obj
 0001:0000dbc0       ?MustRepopulateSegments@ChaseAI@@MAE_NXZ 0040ebc0 f   chaseai.obj
 0001:0000dbe0       ?TestReachedTarget@ChaseAI@@MAE_NABVVector@RadicalMathLibrary@@0@Z 0040ebe0 f   chaseai.obj
 0001:0000dc70       ?GetClosestPathElementToTarget@ChaseAI@@MAEXAAVVector@RadicalMathLibrary@@AAUPathElement@RoadManager@@AAPAVRoadSegment@@AAM3@Z 0040ec70 f   chaseai.obj
 0001:0000dcf0       ?UpdateTarget@ChaseAI@@IAEXXZ 0040ecf0 f   chaseai.obj
 0001:0000dde0       ?Beeline@ChaseAI@@IAEXM@Z  0040ede0 f   chaseai.obj
 0001:0000ded0       ?TestIntersectBBox@ChaseAI@@IAE_NVVector@RadicalMathLibrary@@0PAVCollisionVolume@sim@@@Z 0040eed0 f   chaseai.obj
 0001:0000e010       ?RegisterHudMapIcon@ChaseAI@@EAEHXZ 0040f010 f   chaseai.obj
 0001:0000e0f0       ??K@YA?AVVector@RadicalMathLibrary@@ABV01@M@Z 0040f0f0 f i chaseai.obj
 0001:0000e120       ?Add@Vector@RadicalMathLibrary@@QAEXABV12@0@Z 0040f120 f i chaseai.obj
 0001:0000e150       ??0PotentialField@@QAE@XZ  0040f150 f   potentialfield.obj
 0001:0000e170       ??_GPotentialField@@UAEPAXI@Z 0040f170 f i potentialfield.obj
 0001:0000e170       ??_EPotentialField@@UAEPAXI@Z 0040f170 f i potentialfield.obj
 0001:0000e190       ??1PotentialField@@UAE@XZ  0040f190 f   potentialfield.obj
 0001:0000e1b0       ??0Potentials@@QAE@XZ      0040f1b0 f   potentials.obj
 0001:0000e1c0       ??_EPotentials@@UAEPAXI@Z  0040f1c0 f i potentials.obj
 0001:0000e1c0       ??_GPotentials@@UAEPAXI@Z  0040f1c0 f i potentials.obj
 0001:0000e1e0       ??1Potentials@@UAE@XZ      0040f1e0 f   potentials.obj
 0001:0000e1f0       ??0TrafficAI@@QAE@PAVVehicle@@@Z 0040f1f0 f   trafficai.obj
 0001:0000e210       ??_ETrafficAI@@UAEPAXI@Z   0040f210 f i trafficai.obj
 0001:0000e210       ??_GTrafficAI@@UAEPAXI@Z   0040f210 f i trafficai.obj
 0001:0000e230       ??1TrafficAI@@UAE@XZ       0040f230 f   trafficai.obj
 0001:0000e240       ?Init@TrafficAI@@UAEXXZ    0040f240 f   trafficai.obj
 0001:0000e310       ?Update@TrafficAI@@UAEXM@Z 0040f310 f   trafficai.obj
 0001:0000e8c0       ?StartSwerving@TrafficAI@@QAEX_N@Z 0040f8c0 f   trafficai.obj
 0001:0000e930       ?StopSwerving@TrafficAI@@AAEXXZ 0040f930 f   trafficai.obj
 0001:0000e980       ?Swerve@TrafficAI@@AAEXXZ  0040f980 f   trafficai.obj
 0001:0000e9c0       ?PerhapsTriggerImpedence@TrafficAI@@AAEXW4ObstacleType@1@MPAX@Z 0040f9c0 f   trafficai.obj
 0001:0000ea30       ?DecideTurn@TrafficAI@@QAE?AW4Direction@1@XZ 0040fa30 f   trafficai.obj
 0001:0000ea90       ?SetSegmentIndex@TrafficAI@@QAEXI@Z 0040fa90 f   trafficai.obj
 0001:0000eac0       ?GetGoSpeedMps@TrafficAI@@AAEMXZ 0040fac0 f   trafficai.obj
 0001:0000eb10       ?AttemptLaneChange@TrafficAI@@AAE_NW4ObstacleType@1@MPAX@Z 0040fb10 f   trafficai.obj
 0001:0000ee40       ?SetAISpeed@TrafficAI@@QAEXM@Z 0040fe40 f   trafficai.obj
 0001:0000ee70       ?GetAISpeed@TrafficAI@@QBEMXZ 0040fe70 f   trafficai.obj
 0001:0000ee80       ?MaintainSpeed@TrafficAI@@AAEXM@Z 0040fe80 f   trafficai.obj
 0001:0000ef10       ?StopForSomething@TrafficAI@@AAEXMW4ObstacleType@1@MPAX@Z 0040ff10 f   trafficai.obj
 0001:0000f000       ?GetLookAheadDistance@TrafficAI@@AAEMXZ 00410000 f   trafficai.obj
 0001:0000f020       ?CheckForObstacles@TrafficAI@@QAEXAAW4ObstacleType@1@AAMAAPAXAA_N@Z 00410020 f   trafficai.obj
 0001:0000f6d0       ??0VehicleAI@@QAE@PAVVehicle@@W4VehicleAITypeEnum@0@_NHH2@Z 004106d0 f   vehicleai.obj
 0001:0000f940       ??_EVehicleAI@@UAEPAXI@Z   00410940 f i vehicleai.obj
 0001:0000f940       ??_GVehicleAI@@UAEPAXI@Z   00410940 f i vehicleai.obj
 0001:0000f960       ??1VehicleAI@@UAE@XZ       00410960 f   vehicleai.obj
 0001:0000fa10       ?SetRaceCatchupParams@VehicleAI@@QAEXABURaceCatchupParams@1@@Z 00410a10 f   vehicleai.obj
 0001:0000fa30       ?SetEvadeCatchupParams@VehicleAI@@QAEXABUEvadeCatchupParams@1@@Z 00410a30 f   vehicleai.obj
 0001:0000fa50       ?SetTargetCatchupParams@VehicleAI@@QAEXABUTargetCatchupParams@1@@Z 00410a50 f   vehicleai.obj
 0001:0000fa70       ?ResetControllerValues@VehicleAI@@QAEXXZ 00410a70 f   vehicleai.obj
 0001:0000faa0       ?Reset@VehicleAI@@UAEXXZ   00410aa0 f   vehicleai.obj
 0001:0000fb70       ?Initialize@VehicleAI@@UAEXXZ 00410b70 f   vehicleai.obj
 0001:0000fba0       ?Finalize@VehicleAI@@UAEXXZ 00410ba0 f   vehicleai.obj
 0001:0000fbb0       ?Update@VehicleAI@@UAEXM@Z 00410bb0 f   vehicleai.obj
 0001:0000fbf0       ?SetActive@VehicleAI@@QAEX_N@Z 00410bf0 f   vehicleai.obj
 0001:0000fc50       ?GetPosition@VehicleAI@@UAEXPAVVector@RadicalMathLibrary@@@Z 00410c50 f   vehicleai.obj
 0001:0000fc60       ?GetHeading@VehicleAI@@UAEXPAVVector@RadicalMathLibrary@@@Z 00410c60 f   vehicleai.obj
 0001:0000fc80       ?SetMaxShortcutSkill@VehicleAI@@QAEXH@Z 00410c80 f   vehicleai.obj
 0001:0000fc90       ?SetMinShortcutSkill@VehicleAI@@QAEXH@Z 00410c90 f   vehicleai.obj
 0001:0000fca0       ?EnterLimbo@VehicleAI@@UAEXXZ 00410ca0 f   vehicleai.obj
 0001:0000fce0       ?ExitLimbo@VehicleAI@@UAEXXZ 00410ce0 f   vehicleai.obj
 0001:0000fd00       ?DetermineShortcutSkill@VehicleAI@@IAEHXZ 00410d00 f   vehicleai.obj
 0001:0000fd50       ?ResetCatchUpParams@VehicleAI@@IAEXXZ 00410d50 f   vehicleai.obj
 0001:0000fd80       ?FillPathElements@VehicleAI@@IAEXXZ 00410d80 f   vehicleai.obj
 0001:0000fe40       ?UpdateSelf@VehicleAI@@MAEXXZ 00410e40 f   vehicleai.obj
 0001:00010020       ?FollowRoad@VehicleAI@@IAEXXZ 00411020 f   vehicleai.obj
 0001:00010220       ?FindClosestSegment@VehicleAI@@IAEXABVVector@RadicalMathLibrary@@AAHAAMAAV23@@Z 00411220 f   vehicleai.obj
 0001:000102e0       ?ResetSegments@VehicleAI@@IAEXXZ 004112e0 f   vehicleai.obj
 0001:000102f0       ?ShiftSegments@VehicleAI@@IAEXHH@Z 004112f0 f   vehicleai.obj
 0001:00010370       ?FillSegments@VehicleAI@@IAEXXZ 00411370 f   vehicleai.obj
 0001:00011350       ?GetPosAheadAlongRoad@VehicleAI@@IAEXMMHPAVVector@RadicalMathLibrary@@@Z 00412350 f   vehicleai.obj
 0001:00011440       ?UpdateSegments@VehicleAI@@IAEXXZ 00412440 f   vehicleai.obj
 0001:000117e0       ?EvadeTraffic@VehicleAI@@IAEXPAVVehicle@@@Z 004127e0 f   vehicleai.obj
 0001:00011af0       ?DoSteering@VehicleAI@@IAEXXZ 00412af0 f   vehicleai.obj
 0001:00011be0       ?CheckState@VehicleAI@@IAEXM@Z 00412be0 f   vehicleai.obj
 0001:00012270       ?DriveTowards@VehicleAI@@IAEXPAVVector@RadicalMathLibrary@@AAM1@Z 00413270 f   vehicleai.obj
 0001:00012430       ?SetDestination@VehicleAI@@IAEXAAVVector@RadicalMathLibrary@@@Z 00413430 f   vehicleai.obj
 0001:00012450       ?SetNextDestination@VehicleAI@@IAEXAAVVector@RadicalMathLibrary@@@Z 00413450 f   vehicleai.obj
 0001:00012470       ?FindClosestPathElement@VehicleAI@@SA_NAAVVector@RadicalMathLibrary@@AAUPathElement@RoadManager@@AAPAVRoadSegment@@AAM3_N@Z 00413470 f   vehicleai.obj
 0001:00012560       ?GetLastPathInfo@VehicleAI@@QAEXAAUPathElement@RoadManager@@AAPAVRoadSegment@@AAM2@Z 00413560 f   vehicleai.obj
 0001:000125a0       ?GetRacePathInfo@VehicleAI@@QAEXAAUPathElement@RoadManager@@AAPAVRoadSegment@@AAM2@Z 004135a0 f   vehicleai.obj
 0001:000125e0       ??1?$SwapArray@PAVZoneEventLocator@@@@QAE@XZ 004135e0 f i RenderManager.obj
 0001:000125e0       ??1?$SwapArray@PAVBehaviour@@@@QAE@XZ 004135e0 f i spawnpoint.obj
 0001:000125e0       ??1PathStruct@MissionObjective@@QAE@XZ 004135e0 f i collectibleobjective.obj
 0001:000125e0       ??1?$SwapArray@PAVActor@@@@QAE@XZ 004135e0 f i actormanager.obj
 0001:000125e0       ??1?$SwapArray@PAUBigIntersection@RoadManager@@@@QAE@XZ 004135e0 f i roadmanager.obj
 0001:000125e0       ??1?$SwapArray@UDistErrMap@RoadManager@@@@QAE@XZ 004135e0 f i roadmanager.obj
 0001:000125e0       ??1?$SwapArray@UPathElement@RoadManager@@@@QAE@XZ 004135e0 f i vehicleai.obj
 0001:000125e0       ??1?$ReserveArray@PAVStaticPhysDSG@@@@QAE@XZ 004135e0 f i actor.obj
 0001:000125e0       ??1?$SwapArray@PAVDrawableEffectElement@tCompositeDrawable@@@@QAE@XZ 004135e0 f i animentitydsg.obj
 0001:000125e0       ??1?$SwapArray@UTrafficHornQueue@TrafficManager@@@@QAE@XZ 004135e0 f i trafficmanager.obj
 0001:000125e0       ??1?$ReserveArray@H@@QAE@XZ 004135e0 f i IntersectDSG.obj
 0001:000125e0       ??1?$SwapArray@PAVtMultiController@@@@QAE@XZ 004135e0 f i animentitydsgmanager.obj
 0001:000125e0       ??1?$SwapArray@PAVSpawnPoint@@@@QAE@XZ 004135e0 f i actormanager.obj
 0001:000125e0       ??1?$SwapArray@PAUDijkstraNode@RoadManager@@@@QAE@XZ 004135e0 f i roadmanager.obj
 0001:000125e0       ??1?$ReserveArray@PAVFenceEntityDSG@@@@QAE@XZ 004135e0 f i actor.obj
 0001:000125e0       ??1?$SwapArray@PAVAnimCollisionEntityDSG@@@@QAE@XZ 004135e0 f i WorldRenderLayer.obj
 0001:000125e0       ??1?$ReserveArray@PAVDynaPhysDSG@@@@QAE@XZ 004135e0 f i actor.obj
 0001:000125e0       ??1?$ReserveArray@E@@QAE@XZ 004135e0 f i IntersectDSG.obj
 0001:000125e0       ??1?$ReserveArray@PAVIEntityDSG@@@@QAE@XZ 004135e0 f i WorldScene.obj
 0001:000125e0       ??1?$ReserveArray@PAVPathSegment@@@@QAE@XZ 004135e0 f i pedestrianmanager.obj
 0001:000125e0       ??1?$SwapArray@PAVtGeometry@@@@QAE@XZ 004135e0 f i WorldSphereDSG.obj
 0001:000125e0       ??1?$SwapArray@PAVtRefCounted@@@@QAE@XZ 004135e0 f i RenderManager.obj
 0001:000125e0       ??1?$SwapArray@PAVtDrawable@@@@QAE@XZ 004135e0 f i RenderLayer.obj
 0001:000125e0       ??1?$SwapArray@UBrokenObject@BreakablesManager@@@@QAE@XZ 004135e0 f i breakablesmanager.obj
 0001:000125e0       ??1?$SwapArray@PAVStatePropDSG@@@@QAE@XZ 004135e0 f i deliveryobjective.obj
 0001:000125e0       ??1?$ReserveArray@PAVRoadSegment@@@@QAE@XZ 004135e0 f i trafficmanager.obj
 0001:000125e0       ??1?$ReserveArray@PAVAnimCollisionEntityDSG@@@@QAE@XZ 004135e0 f i intersectionlist.obj
 0001:000125e0       ??1?$SwapArray@PAVRoad@@@@QAE@XZ 004135e0 f i intersection.obj
 0001:000125e0       ??1?$SwapArray@PAVDynaPhysDSG@@@@QAE@XZ 004135e0 f i ufoattackbehaviour.obj
 0001:000125e0       ??1?$SwapArray@PAVWorldSphereDSG@@@@QAE@XZ 004135e0 f i WorldRenderLayer.obj
 0001:000125e0       ??1?$SwapArray@UShortestRoad@RoadManager@@@@QAE@XZ 004135e0 f i intersection.obj
 0001:000125e0       ??1?$SwapArray@PAVAnimEntityDSG@@@@QAE@XZ 004135e0 f i WorldRenderLayer.obj
 0001:000125e0       ??1?$ReserveArray@VVector@RadicalMathLibrary@@@@QAE@XZ 004135e0 f i IntersectDSG.obj
 0001:00012600       ?Allocate@?$SwapArray@UPathElement@RoadManager@@@@QAEXH@Z 00413600 f i vehicleai.obj
 0001:00012640       ?Clamp@RadicalMathLibrary@@YAMMMM@Z 00413640 f i vehicleai.obj
 0001:00012670       ?Sign@RadicalMathLibrary@@YAMM@Z 00413670 f i vehicleai.obj
 0001:000126b0       ?Set@pddiColour@@QAEXHHHH@Z 004136b0 f i vehicleairender.obj
 0001:000126e0       ??0WaypointAI@@QAE@PAVVehicle@@_NM1@Z 004136e0 f   waypointai.obj
 0001:00012770       ??_GWaypointAI@@UAEPAXI@Z  00413770 f i waypointai.obj
 0001:00012770       ??_EWaypointAI@@UAEPAXI@Z  00413770 f i waypointai.obj
 0001:00012790       ??1WaypointAI@@UAE@XZ      00413790 f   waypointai.obj
 0001:000127b0       ?Update@WaypointAI@@UAEXM@Z 004137b0 f   waypointai.obj
 0001:00012830       ?Initialize@WaypointAI@@UAEXXZ 00413830 f   waypointai.obj
 0001:00012870       ?Reset@WaypointAI@@UAEXXZ  00413870 f   waypointai.obj
 0001:000128a0       ?UpdateNeedToWaitForPlayer@WaypointAI@@IAEXM@Z 004138a0 f   waypointai.obj
 0001:00012a70       ?PossiblyUseTurbo@WaypointAI@@IAEXXZ 00413a70 f   waypointai.obj
 0001:00012b40       ?UseTurbo@WaypointAI@@QAEXXZ 00413b40 f   waypointai.obj
 0001:00012b60       ?DoCatchUp@WaypointAI@@MAEXM@Z 00413b60 f   waypointai.obj
 0001:00012e90       ?UpdateNeedsResetOnSpot@WaypointAI@@IAEXM@Z 00413e90 f   waypointai.obj
 0001:00012fd0       ?ClearWaypoints@WaypointAI@@QAEXXZ 00413fd0 f   waypointai.obj
 0001:00012ff0       ?AddWaypoint@WaypointAI@@QAEXPAVLocator@@@Z 00413ff0 f   waypointai.obj
 0001:000130e0       ?MustRepopulateSegments@WaypointAI@@MAE_NXZ 004140e0 f   waypointai.obj
 0001:000130f0       ?SetCurrentWayPoint@WaypointAI@@IAEXH@Z 004140f0 f   waypointai.obj
 0001:00013120       ?FollowWaypoints@WaypointAI@@IAEXXZ 00414120 f   waypointai.obj
 0001:000131d0       ?TestReachedTarget@WaypointAI@@MAE_NABVVector@RadicalMathLibrary@@0@Z 004141d0 f   waypointai.obj
 0001:00013290       ?GetClosestPathElementToTarget@WaypointAI@@MAEXAAVVector@RadicalMathLibrary@@AAUPathElement@RoadManager@@AAPAVRoadSegment@@AAM3@Z 00414290 f   waypointai.obj
 0001:00013340       ?RegisterHudMapIcon@WaypointAI@@EAEHXZ 00414340 f   waypointai.obj
 0001:00013430       ?TestWaypoint@WaypointAI@@AAE_NH@Z 00414430 f   waypointai.obj
 0001:000134c0       ??_GActorAnimation@@UAEPAXI@Z 004144c0 f i ActorAnimationUFO.obj
 0001:000134c0       ??_EActorAnimation@@UAEPAXI@Z 004144c0 f i ActorAnimationUFO.obj
 0001:000134e0       ??0ActorAnimationUFO@@QAE@XZ 004144e0 f   ActorAnimationUFO.obj
 0001:000134f0       ?Update@ActorAnimationUFO@@UAE_NABVMatrix@RadicalMathLibrary@@PAV23@MPAVtCompositeDrawable@@@Z 004144f0 f   ActorAnimationUFO.obj
 0001:00013560       ??0Actor@@QAE@XZ           00414560 f   actor.obj
 0001:000135f0       ??_GActor@@UAEPAXI@Z       004145f0 f i actor.obj
 0001:000135f0       ??_EActor@@UAEPAXI@Z       004145f0 f i actor.obj
 0001:00013610       ??1Actor@@UAE@XZ           00414610 f   actor.obj
 0001:00013680       ?SetPosition@Actor@@UAEXABVVector@RadicalMathLibrary@@@Z 00414680 f   actor.obj
 0001:000136b0       ?GetPosition@Actor@@UBEXPAVVector@RadicalMathLibrary@@@Z 004146b0 f   actor.obj
 0001:000136c0       ?GetTransform@Actor@@UBEXPAVMatrix@RadicalMathLibrary@@@Z 004146c0 f   actor.obj
 0001:000136d0       ?GetLength@XMLNodeList@@QAEHXZ 004146d0 f   scroobywr:XMLParser.obj
 0001:000136d0       ?GetLength@XMLAttributeList@@QAEHXZ 004146d0 f   scroobywr:XMLParser.obj
 0001:000136d0       ?GetChunkID@tSimpleChunkHandler@@UAEIXZ 004146d0 f   atcloader.obj
 0001:000136d0       ?GetNode@Iterator@Scenegraph@@UAEPAVNode@2@XZ 004146d0 f   pure3dwr:scenegraph.obj
 0001:000136d0       ?GetDSG@Actor@@UBEPBVActorDSG@@XZ 004146d0 f   actor.obj
 0001:000136d0       ?memory@pointer@ods@@QBEPAUblock@2@XZ 004146d0 f   radmusicwr:ods_memory.obj
 0001:000136d0       ?GetLoadType@tImageHandler@@UAE?AW4LoadType@1@XZ 004146d0 f   win32platform.obj
 0001:000136d0       ?GetLevel@SelectableDialog@@UBEIXZ 004146d0 f   selectabledialog.obj
 0001:000136e0       ?SetTransform@Actor@@UAEXABVMatrix@RadicalMathLibrary@@@Z 004146e0 f   actor.obj
 0001:00013710       ?SetState@Actor@@UAEXH@Z   00414710 f   actor.obj
 0001:00013730       ?GetState@Actor@@UBEIXZ    00414730 f   actor.obj
 0001:00013740       ?GetName@LocomotionSlot@choreo@@UBEPBDXZ 00414740 f   choreowr:locomotion.obj
 0001:00013740       ?GetName@Actor@@UBEPBDXZ   00414740 f   actor.obj
 0001:00013750       ?GetUID@Actor@@UBE?AVtUidUnaligned@@XZ 00414750 f   actor.obj
 0001:00013770       ?GetStatePropUID@Actor@@UBE?AVtUidUnaligned@@XZ 00414770 f   actor.obj
 0001:00013790       ?SetUID@Actor@@UAEXVtUidUnaligned@@@Z 00414790 f   actor.obj
 0001:000137d0       ?SetStatePropID@Actor@@UAEXI@Z 004147d0 f   actor.obj
 0001:000137e0       ?AddToDSG@Actor@@UAEXXZ    004147e0 f   actor.obj
 0001:00013810       ?RemoveFromDSG@Actor@@UAEXXZ 00414810 f   actor.obj
 0001:00013840       ?LoadShield@Actor@@UAEXPBD@Z 00414840 f   actor.obj
 0001:00013850       ?LoadTractorBeam@Actor@@UAEXPBD@Z 00414850 f   actor.obj
 0001:00013870       ?ActivateTractorBeam@Actor@@QAEXXZ 00414870 f   actor.obj
 0001:00013880       ?DeactivateTractorBeam@Actor@@QAEXXZ 00414880 f   actor.obj
 0001:00013890       ?IsTractorBeamOn@Actor@@QBE_NXZ 00414890 f   actor.obj
 0001:000138a0       ?FillIntersectionList@Actor@@QAEXABVVector@RadicalMathLibrary@@M@Z 004148a0 f   actor.obj
 0001:000138e0       ?FillIntersectionListDynamics@Actor@@QAEXABVVector@RadicalMathLibrary@@M@Z 004148e0 f   actor.obj
 0001:000139c0       ?FillIntersectionListStatics@Actor@@QAEXABVVector@RadicalMathLibrary@@M@Z 004149c0 f   actor.obj
 0001:00013aa0       ?FillIntersectionListFence@Actor@@QAEXABVVector@RadicalMathLibrary@@M@Z 00414aa0 f   actor.obj
 0001:00013b50       ??0?$ReserveArray@PAVDynaPhysDSG@@@@QAE@H@Z 00414b50 f i actor.obj
 0001:00013b70       ??1StatePropDSGProcAnimator@@UAE@XZ 00414b70 f i actoranimationwasp.obj
 0001:00013b80       ??_EStatePropDSGProcAnimator@@UAEPAXI@Z 00414b80 f i actoranimationwasp.obj
 0001:00013b80       ??_GStatePropDSGProcAnimator@@UAEPAXI@Z 00414b80 f i actoranimationwasp.obj
 0001:00013ba0       ??0ActorAnimationWasp@@QAE@XZ 00414ba0 f   actoranimationwasp.obj
 0001:00013bd0       ??_EActorAnimationUFO@@UAEPAXI@Z 00414bd0 f i ActorAnimationUFO.obj
 0001:00013bd0       ??_GActorAnimationWasp@@UAEPAXI@Z 00414bd0 f i actoranimationwasp.obj
 0001:00013bd0       ??_GActorAnimationUFO@@UAEPAXI@Z 00414bd0 f i ActorAnimationUFO.obj
 0001:00013bd0       ??_EActorAnimationWasp@@UAEPAXI@Z 00414bd0 f i actoranimationwasp.obj
 0001:00013bf0       ??1ActorAnimationUFO@@UAE@XZ 00414bf0 f   ActorAnimationUFO.obj
 0001:00013bf0       ??1ActorAnimationWasp@@UAE@XZ 00414bf0 f   actoranimationwasp.obj
 0001:00013c00       ?Update@ActorAnimationWasp@@UAE_NABVMatrix@RadicalMathLibrary@@PAV23@MPAVtCompositeDrawable@@@Z 00414c00 f   actoranimationwasp.obj
 0001:00013cf0       ??0WingAnimator@@QAE@M@Z   00414cf0 f   actoranimationwasp.obj
 0001:00013df0       ??_EWingAnimator@@UAEPAXI@Z 00414df0 f i actoranimationwasp.obj
 0001:00013df0       ??_GWingAnimator@@UAEPAXI@Z 00414df0 f i actoranimationwasp.obj
 0001:00013e10       ??1WingAnimator@@UAE@XZ    00414e10 f   actoranimationwasp.obj
 0001:00013e40       ?Advance@WingAnimator@@UAEXM@Z 00414e40 f   actoranimationwasp.obj
 0001:00013ee0       ?UpdateForRender@WingAnimator@@UAEXPAVtCompositeDrawable@@@Z 00414ee0 f   actoranimationwasp.obj
 0001:00014040       ?ScaleAdd@Vector@RadicalMathLibrary@@QAEXMABV12@@Z 00415040 f i actoranimationwasp.obj
 0001:00014070       ?Scale@Vector@RadicalMathLibrary@@QAEXMABV12@@Z 00415070 f i actoranimationwasp.obj
 0001:000140a0       ?CastsShadow@StaticPhysDSG@@UAEHXZ 004150a0 f i actordsg.obj
 0001:000140b0       ?GetGroundPlaneIndex@DynaPhysDSG@@UAEHXZ 004150b0 f i actordsg.obj
 0001:000140c0       ?GetAIRef@ActorDSG@@UAEHXZ 004150c0 f i actordsg.obj
 0001:000140d0       ?DisplaySimpleShadow@ActorDSG@@UAEXXZ 004150d0 f i actordsg.obj
 0001:000140e0       ??0ActorDSG@@QAE@XZ        004150e0 f   actordsg.obj
 0001:00014130       ??_GActorDSG@@UAEPAXI@Z    00415130 f i actordsg.obj
 0001:00014130       ??_EActorDSG@@UAEPAXI@Z    00415130 f i actordsg.obj
 0001:00014150       ??1ActorDSG@@UAE@XZ        00415150 f   actordsg.obj
 0001:000141f0       ?PreReactToCollision@ActorDSG@@UAE?AW4Solving_Answer@sim@@PAVSimState@3@AAVCollision@3@@Z 004151f0 f   actordsg.obj
 0001:00014230       ?SetRank@ActorDSG@@UAEXAAVVector@RadicalMathLibrary@@0@Z 00415230 f   actordsg.obj
 0001:00014290       ?PostReactToCollision@ActorDSG@@UAE?AW4Solving_Answer@sim@@AAVVector@RadicalMathLibrary@@AAVCollision@3@@Z 00415290 f   actordsg.obj
 0001:00014320       ?ApplyForce@ActorDSG@@UAEXABVVector@RadicalMathLibrary@@M@Z 00415320 f   actordsg.obj
 0001:00014380       ?RecieveEvent@ActorDSG@@UAEXHPAVCStateProp@@@Z 00415380 f   actordsg.obj
 0001:00014480       ?HandleEvent@ActorDSG@@QAEXW4Event@StatePropDSG@@@Z 00415480 f   actordsg.obj
 0001:00014490       ?LoadShield@ActorDSG@@QAE_NPBD@Z 00415490 f   actordsg.obj
 0001:00014520       ?LoadTractorBeam@ActorDSG@@QAE_NPBD@Z 00415520 f   actordsg.obj
 0001:00014590       ?ActivateTractorBeam@ActorDSG@@QAEXXZ 00415590 f   actordsg.obj
 0001:000145b0       ?DeactivateTractorBeam@ActorDSG@@QAEXXZ 004155b0 f   actordsg.obj
 0001:000145e0       ?IsTractorBeamOn@ActorDSG@@QBE_NXZ 004155e0 f   actordsg.obj
 0001:00014600       ?Display@ActorDSG@@UAEXXZ  00415600 f   actordsg.obj
 0001:00014940       ?AdvanceAnimation@ActorDSG@@UAEXM@Z 00415940 f   actordsg.obj
 0001:00014980       ?DestroyShield@ActorDSG@@IAEXXZ 00415980 f   actordsg.obj
 0001:000149a0       ?PlayShieldGettingHit@ActorDSG@@IAEXXZ 004159a0 f   actordsg.obj
 0001:000149d0       ?RestoreShield@ActorDSG@@QAEXXZ 004159d0 f   actordsg.obj
 0001:000149f0       ?SetPhysicsProperties@ActorDSG@@QAEXMMMM@Z 004159f0 f   actordsg.obj
 0001:00014a70       ?LoadSetup@ActorDSG@@UAEXPAVCStatePropData@@HABVMatrix@RadicalMathLibrary@@PAVCollisionAttributes@@_N3PAVtEntityStore@@@Z 00415a70 f   actordsg.obj
 0001:00014b40       ?GenerateCoins@ActorDSG@@UAEXH@Z 00415b40 f   actordsg.obj
 0001:00014d70       ?CastsShadow@ActorDSG@@UAEHXZ 00415d70 f   actordsg.obj
 0001:00014d90       ?find@?$@VCStatePropData@@@p3d@@YAPAVCStatePropData@@PAVtEntityStore@@PBD@Z 00415d90 f i actordsg.obj
 0001:00014e00       ?find@?$@VCStatePropData@@@p3d@@YAPAVCStatePropData@@PAVtEntityStore@@ABVtName@@@Z 00415e00 f i actordsg.obj
 0001:00014ec0       ?safe_cast@?$SafeCast@VCStatePropData@@@radLoadInventory@@UAEPAUIRefCount@@PAU3@@Z 00415ec0 f i actordsg.obj
 0001:00014ee0       ?Blue@pddiColour@@QBEHXZ   00415ee0 f i actordsg.obj
 0001:00014ef0       ?Green@pddiColour@@QBEHXZ  00415ef0 f i actordsg.obj
 0001:00014f00       ?Red@pddiColour@@QBEHXZ    00415f00 f i actordsg.obj
 0001:00014f10       ??0logic_error@std@@QAE@ABV?$basic_string@DU?$char_traits@D@std@@V?$allocator@D@2@@1@@Z 00415f10 f i actormanager.obj
 0001:00014f70       ??1length_error@std@@UAE@XZ 00415f70 f i actormanager.obj
 0001:00014f70       ??1out_of_range@std@@UAE@XZ 00415f70 f i console.obj
 0001:00014f70       ??1logic_error@std@@UAE@XZ 00415f70 f i actormanager.obj
 0001:00014fb0       ?what@logic_error@std@@UBEPBDXZ 00415fb0 f i actormanager.obj
 0001:00014fc0       ??_Gout_of_range@std@@UAEPAXI@Z 00415fc0 f i console.obj
 0001:00014fc0       ??_Eout_of_range@std@@UAEPAXI@Z 00415fc0 f i console.obj
 0001:00014fc0       ??_Elogic_error@std@@UAEPAXI@Z 00415fc0 f i actormanager.obj
 0001:00014fc0       ??_Glength_error@std@@UAEPAXI@Z 00415fc0 f i actormanager.obj
 0001:00014fc0       ??_Elength_error@std@@UAEPAXI@Z 00415fc0 f i actormanager.obj
 0001:00014fc0       ??_Glogic_error@std@@UAEPAXI@Z 00415fc0 f i actormanager.obj
 0001:00014fe0       ??0length_error@std@@QAE@ABV01@@Z 00415fe0 f i actormanager.obj
 0001:00015000       ??0logic_error@std@@QAE@ABV01@@Z 00416000 f i actormanager.obj
 0001:00015070       ?CreateInstance@ActorManager@@SAPAV1@XZ 00416070 f   actormanager.obj
 0001:000150f0       ?GetInstance@ActorManager@@SAPAV1@XZ 004160f0 f   actormanager.obj
 0001:00015100       ?DestroyInstance@ActorManager@@SAXXZ 00416100 f   actormanager.obj
 0001:00015120       ??0ActorManager@@QAE@XZ    00416120 f   actormanager.obj
 0001:000152a0       ??_EActorManager@@UAEPAXI@Z 004162a0 f i actormanager.obj
 0001:000152a0       ??_GActorManager@@UAEPAXI@Z 004162a0 f i actormanager.obj
 0001:000152c0       ??1ActorManager@@UAE@XZ    004162c0 f   actormanager.obj
 0001:000153f0       ?AddActor@ActorManager@@QAEXPAVActor@@@Z 004163f0 f   actormanager.obj
 0001:00015410       ?AddActorToBank@ActorManager@@QAEXPAVActor@@@Z 00416410 f   actormanager.obj
 0001:00015430       ?RemoveActor@ActorManager@@QAEXH_N@Z 00416430 f   actormanager.obj
 0001:00015490       ?RemoveActorByDSGPointer@ActorManager@@QAEXPAVActorDSG@@_N@Z 00416490 f   actormanager.obj
 0001:000154d0       ?RemoveAllActors@ActorManager@@QAEXXZ 004164d0 f   actormanager.obj
 0001:00015560       ?AddSpawnPoint@ActorManager@@QAEXPAVSpawnPoint@@@Z 00416560 f   actormanager.obj
 0001:00015580       ?FireProjectile@ActorManager@@QAEXVtUidUnaligned@@ABVVector@RadicalMathLibrary@@1I@Z 00416580 f   actormanager.obj
 0001:00015710       ?Update@ActorManager@@QAEXI@Z 00416710 f   actormanager.obj
 0001:000157b0       ?HandleEvent@ActorManager@@UAEXW4EventEnum@@PAX@Z 004167b0 f   actormanager.obj
 0001:00015820       ?GetActorByName@ActorManager@@QAEPAVActor@@PBD@Z 00416820 f   actormanager.obj
 0001:00015890       ?GetActorByUID@ActorManager@@QAEPAVActor@@VtUidUnaligned@@@Z 00416890 f   actormanager.obj
 0001:000158f0       ?GetActorsByType@ActorManager@@QAE?AV?$vector@PAVActor@@V?$s2alloc@PAVActor@@@@@std@@PBD@Z 004168f0 f   actormanager.obj
 0001:00015b00       ?SetupConsoleFunctions@ActorManager@@AAEXXZ 00416b00 f   actormanager.obj
 0001:00015c50       ?WithinAliveRange@ActorManager@@AAE_NH@Z 00416c50 f   actormanager.obj
 0001:00015cd0       ?AddFlyingActor@ActorManager@@CAXHPAPAD@Z 00416cd0 f   actormanager.obj
 0001:00015d80       ?AddFlyingActorByLocator@ActorManager@@CAXHPAPAD@Z 00416d80 f   actormanager.obj
 0001:00015e50       ?AddSpawnPointScript@ActorManager@@CAXHPAPAD@Z 00416e50 f   actormanager.obj
 0001:00015f50       ?AddSpawnPointByLocatorScript@ActorManager@@CAXHPAPAD@Z 00416f50 f   actormanager.obj
 0001:00016060       ?SetProjectileStats@ActorManager@@CAXHPAPAD@Z 00417060 f   actormanager.obj
 0001:00016130       ?PreallocateActors@ActorManager@@CAXHPAPAD@Z 00417130 f   actormanager.obj
 0001:000161f0       ?SetActorRotationSpeed@ActorManager@@CAXHPAPAD@Z 004171f0 f   actormanager.obj
 0001:00016280       ?AddShield@ActorManager@@CAXHPAPAD@Z 00417280 f   actormanager.obj
 0001:00016300       ?GetSpawnPointByName@ActorManager@@QAEPAVSpawnPoint@@PBD@Z 00417300 f   actormanager.obj
 0001:00016390       ?RemoveAllSpawnPoints@ActorManager@@QAEXXZ 00417390 f   actormanager.obj
 0001:000163c0       ?CreateActor@ActorManager@@QAEPAVActor@@VtUidUnaligned@@0ABVMatrix@RadicalMathLibrary@@@Z 004173c0 f   actormanager.obj
 0001:000164b0       ?AddBehaviour@ActorManager@@CAXHPAPAD@Z 004174b0 f   actormanager.obj
 0001:00016950       ?SetCollisionAttributes@ActorManager@@CAXHPAPAD@Z 00417950 f   actormanager.obj
 0001:00016990       ??0?$basic_string@DU?$char_traits@D@std@@V?$allocator@D@2@@std@@QAE@PBD@Z 00417990 f i actormanager.obj
 0001:000169d0       ??1?$basic_string@DU?$char_traits@D@std@@V?$allocator@D@2@@std@@QAE@XZ 004179d0 f i actormanager.obj
 0001:00016a00       ??0?$vector@PAVActor@@V?$s2alloc@PAVActor@@@@@std@@QAE@ABV01@@Z 00417a00 f i actormanager.obj
 0001:00016ac0       ?assign@?$basic_string@DU?$char_traits@D@std@@V?$allocator@D@2@@std@@QAEAAV12@ABV12@II@Z 00417ac0 f i actormanager.obj
 0001:00016b70       ?push_back@?$deque@W4eGuiWindowID@CGuiWindow@@V?$s2alloc@W4eGuiWindowID@CGuiWindow@@@@@std@@QAEXABW4eGuiWindowID@CGuiWindow@@@Z 00417b70 f i guimanagerbootup.obj
 0001:00016b70       ?push_back@?$deque@PAVBehaviour@@V?$allocator@PAVBehaviour@@@std@@@std@@QAEXABQAVBehaviour@@@Z 00417b70 f i actormanager.obj
 0001:00016bf0       ?_Tidy@?$deque@PAVBehaviour@@V?$allocator@PAVBehaviour@@@std@@@std@@IAEXXZ 00417bf0 f i actormanager.obj
 0001:00016bf0       ?_Tidy@?$deque@W4eGuiWindowID@CGuiWindow@@V?$s2alloc@W4eGuiWindowID@CGuiWindow@@@@@std@@IAEXXZ 00417bf0 f i guimanagerbootup.obj
 0001:00016c50       ?assign@?$basic_string@DU?$char_traits@D@std@@V?$allocator@D@2@@std@@QAEAAV12@PBDI@Z 00417c50 f i actormanager.obj
 0001:00016cf0       ?erase@?$basic_string@DU?$char_traits@D@std@@V?$allocator@D@2@@std@@QAEAAV12@II@Z 00417cf0 f i actormanager.obj
 0001:00016db0       ?_Grow@?$basic_string@DU?$char_traits@D@std@@V?$allocator@D@2@@std@@AAE_NI_N@Z 00417db0 f i actormanager.obj
 0001:00016e80       ?_Copy@?$basic_string@DU?$char_traits@D@std@@V?$allocator@D@2@@std@@AAEXII@Z 00417e80 f i actormanager.obj
 0001:00016fa0       ?_Xlen@?$deque@W4eGuiWindowID@CGuiWindow@@V?$s2alloc@W4eGuiWindowID@CGuiWindow@@@@@std@@IBEXXZ 00417fa0 f i guimanagerbootup.obj
 0001:00016fa0       ?_Xlen@?$deque@PAVBehaviour@@V?$allocator@PAVBehaviour@@@std@@@std@@IBEXXZ 00417fa0 f i actormanager.obj
 0001:00017020       ?find@?$@VLocator@@@p3d@@YAPAVLocator@@PBD@Z 00418020 f i actormanager.obj
 0001:00017040       ?find@?$@VLocator@@@p3d@@YAPAVLocator@@PAVtEntityStore@@PBD@Z 00418040 f i actormanager.obj
 0001:000170b0       ?find@?$@VLocator@@@p3d@@YAPAVLocator@@PAVtEntityStore@@ABVtName@@@Z 004180b0 f i actormanager.obj
 0001:00017170       ?safe_cast@?$SafeCast@VLocator@@@radLoadInventory@@UAEPAUIRefCount@@PAU3@@Z 00418170 f i actormanager.obj
 0001:00017190       ?IsExclusive@Behaviour@@UBE_NXZ 00418190 f i attackbehaviour.obj
 0001:00017190       ?GetAutoRepack@radLoadHashedStore@@UAE_NXZ 00418190 f i radcontentwr:inventory.obj
 0001:00017190       ?GetEndianSwap@radLoadStream@@UAE_NXZ 00418190 f i pure3dwr:chunkfile.obj
 0001:000171a0       ?SetExclusive@Behaviour@@MAEX_N@Z 004181a0 f i attackbehaviour.obj
 0001:000171b0       ??_GEvasionBehaviour@@UAEPAXI@Z 004181b0 f i evasionbehaviour.obj
 0001:000171b0       ??_EEvasionBehaviour@@UAEPAXI@Z 004181b0 f i evasionbehaviour.obj
 0001:000171b0       ??_EBehaviour@@UAEPAXI@Z   004181b0 f i attackbehaviour.obj
 0001:000171b0       ??_GBehaviour@@UAEPAXI@Z   004181b0 f i attackbehaviour.obj
 0001:000171d0       ??0AttackBehaviour@@QAE@MM@Z 004181d0 f   attackbehaviour.obj
 0001:00017280       ??_EAttackBehaviour@@UAEPAXI@Z 00418280 f i attackbehaviour.obj
 0001:00017280       ??_GAttackBehaviour@@UAEPAXI@Z 00418280 f i attackbehaviour.obj
 0001:000172a0       ??1AttackBehaviour@@UAE@XZ 004182a0 f   attackbehaviour.obj
 0001:000172d0       ?Apply@AttackBehaviour@@UAEXPAVActor@@I@Z 004182d0 f   attackbehaviour.obj
 0001:00017500       ?SetMaxFiringRange@AttackBehaviour@@QAEXM@Z 00418500 f   attackbehaviour.obj
 0001:00017520       ?SetFiringArc@AttackBehaviour@@QAEXM@Z 00418520 f   attackbehaviour.obj
 0001:00017540       ?SetMovementIntervals@AttackBehaviour@@QAEXM@Z 00418540 f   attackbehaviour.obj
 0001:00017550       ?IsMovementDisabled@AttackBehaviour@@QBE_NXZ 00418550 f   attackbehaviour.obj
 0001:00017570       ?Activate@AttackBehaviour@@UAEXXZ 00418570 f   attackbehaviour.obj
 0001:00017600       ?Deactivate@AttackBehaviour@@UAEXXZ 00418600 f   attackbehaviour.obj
 0001:00017630       ?WithinFiringRange@AttackBehaviour@@IBE_NABVVector@RadicalMathLibrary@@0@Z 00418630 f   attackbehaviour.obj
 0001:00017670       ?WithinFiringArc@AttackBehaviour@@IBE_NABVVector@RadicalMathLibrary@@00@Z 00418670 f   attackbehaviour.obj
 0001:000176e0       ?IsTooClose@AttackBehaviour@@IBE_NABVVector@RadicalMathLibrary@@0@Z 004186e0 f   attackbehaviour.obj
 0001:00017720       ?MoveIntoAttackRange@AttackBehaviour@@IAEXPAVActor@@ABVVector@RadicalMathLibrary@@@Z 00418720 f   attackbehaviour.obj
 0001:00017840       ?MoveAway@AttackBehaviour@@IAEXPAVActor@@ABVVector@RadicalMathLibrary@@@Z 00418840 f   attackbehaviour.obj
 0001:000178c0       ?HandleEvent@AttackBehaviour@@UAEXW4EventEnum@@PAX@Z 004188c0 f   attackbehaviour.obj
 0001:000179b0       ??_EAttackBehaviour@@WM@AEPAXI@Z 004189b0 f i attackbehaviour.obj
 0001:000179c0       ??0AttractionBehaviour@@QAE@MMM@Z 004189c0 f   attractionbehaviour.obj
 0001:00017bd0       ??_EAttractionBehaviour@@UAEPAXI@Z 00418bd0 f i attractionbehaviour.obj
 0001:00017bd0       ??_GAttractionBehaviour@@UAEPAXI@Z 00418bd0 f i attractionbehaviour.obj
 0001:00017bf0       ??1AttractionBehaviour@@UAE@XZ 00418bf0 f   attractionbehaviour.obj
 0001:00017c30       ?Apply@AttractionBehaviour@@UAEXPAVActor@@I@Z 00418c30 f   attractionbehaviour.obj
 0001:00017d90       ?HandleEvent@AttractionBehaviour@@UAEXW4EventEnum@@PAX@Z 00418d90 f   attractionbehaviour.obj
 0001:00017ee0       ?Activate@AttractionBehaviour@@UAEXXZ 00418ee0 f   attractionbehaviour.obj
 0001:00017ef0       ?Deactivate@AttractionBehaviour@@UAEXXZ 00418ef0 f   attractionbehaviour.obj
 0001:00017f00       ?WithinSensoryRange@AttractionBehaviour@@ABE_NABVActor@@ABVAvatar@@@Z 00418f00 f   attractionbehaviour.obj
 0001:00017f70       ?FindNewWatchPosition@AttractionBehaviour@@ABE_NABVActor@@ABVVector@RadicalMathLibrary@@PAV34@@Z 00418f70 f   attractionbehaviour.obj
 0001:00018010       ??_EAttractionBehaviour@@WM@AEPAXI@Z 00419010 f i attractionbehaviour.obj
 0001:00018020       ??0EvasionBehaviour@@QAE@MMMMM@Z 00419020 f   evasionbehaviour.obj
 0001:000180c0       ??1Behaviour@@UAE@XZ       004190c0 f   attackbehaviour.obj
 0001:000180c0       ??1EvasionBehaviour@@UAE@XZ 004190c0 f   evasionbehaviour.obj
 0001:000180d0       ?Apply@EvasionBehaviour@@UAEXPAVActor@@I@Z 004190d0 f   evasionbehaviour.obj
 0001:000181f0       ?SetSpeed@EvasionBehaviour@@QAEXM@Z 004191f0 f   evasionbehaviour.obj
 0001:00018200       ?FindEvasionDestination@EvasionBehaviour@@AAE_NABVVector@RadicalMathLibrary@@PAV23@@Z 00419200 f   evasionbehaviour.obj
 0001:000182f0       ?FindGroundHeight@EvasionBehaviour@@ABE_NMMPAM@Z 004192f0 f   evasionbehaviour.obj
 0001:00018350       ?IsMoving@FlyingActor@@UBE_NXZ 00419350 f i flyingactor.obj
 0001:00018360       ??0FlyingActor@@QAE@XZ     00419360 f   flyingactor.obj
 0001:00018460       ??_EFlyingActor@@UAEPAXI@Z 00419460 f i flyingactor.obj
 0001:00018460       ??_GFlyingActor@@UAEPAXI@Z 00419460 f i flyingactor.obj
 0001:00018480       ??1FlyingActor@@UAE@XZ     00419480 f   flyingactor.obj
 0001:00018570       ?Init@FlyingActor@@UAE_NPBD0@Z 00419570 f   flyingactor.obj
 0001:00018740       ?Update@FlyingActor@@UAEXI@Z 00419740 f   flyingactor.obj
 0001:00018890       ?AddBehaviour@FlyingActor@@UAEXPAVBehaviour@@@Z 00419890 f   flyingactor.obj
 0001:000189a0       ?Activate@FlyingActor@@UAEXXZ 004199a0 f   flyingactor.obj
 0001:000189f0       ?DeactivateBehaviours@FlyingActor@@UAEXXZ 004199f0 f   flyingactor.obj
 0001:00018a00       ?SetRotationSpeed@FlyingActor@@UAEXM@Z 00419a00 f   flyingactor.obj
 0001:00018a20       ?LookAt@FlyingActor@@UAEXABVVector@RadicalMathLibrary@@I@Z 00419a20 f   flyingactor.obj
 0001:00018bc0       ?ReleaseBehaviours@FlyingActor@@UAEXXZ 00419bc0 f   flyingactor.obj
 0001:00018c00       ?FindWaypoint@FlyingActor@@IAEXABVVector@RadicalMathLibrary@@0H@Z 00419c00 f   flyingactor.obj
 0001:00018e10       ?MoveTo@FlyingActor@@UAEXABVVector@RadicalMathLibrary@@M@Z 00419e10 f   flyingactor.obj
 0001:00019000       ?ChangeBehaviour@FlyingActor@@IAE_NPAVBehaviour@@@Z 0041a000 f   flyingactor.obj
 0001:00019060       ?UpdateMovement@FlyingActor@@IAE_NIPAVVector@RadicalMathLibrary@@@Z 0041a060 f   flyingactor.obj
 0001:00019310       ?FindGroundIntersection@FlyingActor@@IAE_NPAMPAVVector@RadicalMathLibrary@@@Z 0041a310 f   flyingactor.obj
 0001:00019440       ?RecieveEvent@FlyingActor@@UAEXHPAVCStateProp@@@Z 0041a440 f   flyingactor.obj
 0001:00019510       ?reserve@?$vector@VVector@RadicalMathLibrary@@V?$s2alloc@VVector@RadicalMathLibrary@@@@@std@@QAEXI@Z 0041a510 f i flyingactor.obj
 0001:00019630       ?push_back@?$vector@VVector@RadicalMathLibrary@@V?$s2alloc@VVector@RadicalMathLibrary@@@@@std@@QAEXABVVector@RadicalMathLibrary@@@Z 0041a630 f i flyingactor.obj
 0001:000196c0       ?resize@?$vector@VVector@RadicalMathLibrary@@V?$s2alloc@VVector@RadicalMathLibrary@@@@@std@@QAEXIVVector@RadicalMathLibrary@@@Z 0041a6c0 f i flyingactor.obj
 0001:00019770       ?insert@?$vector@VVector@RadicalMathLibrary@@V?$s2alloc@VVector@RadicalMathLibrary@@@@@std@@QAE?AV?$_Ptrit@VVector@RadicalMathLibrary@@HPAV12@AAV12@PAV12@AAV12@@2@V32@ABVVector@RadicalMathLibrary@@@Z 0041a770 f i flyingactor.obj
 0001:000197f0       ?_Insert_n@?$vector@VVector@RadicalMathLibrary@@V?$s2alloc@VVector@RadicalMathLibrary@@@@@std@@IAEXV?$_Ptrit@VVector@RadicalMathLibrary@@HPAV12@AAV12@PAV12@AAV12@@2@IABVVector@RadicalMathLibrary@@@Z 0041a7f0 f i flyingactor.obj
 0001:00019af0       ?_Ucopy@?$vector@VVector@RadicalMathLibrary@@V?$s2alloc@VVector@RadicalMathLibrary@@@@@std@@IAEPAVVector@RadicalMathLibrary@@V?$_Ptrit@VVector@RadicalMathLibrary@@HPAV12@AAV12@PAV12@AAV12@@2@0PAV34@@Z 0041aaf0 f i flyingactor.obj
 0001:00019b20       ?fill@std@@YAXV?$_Ptrit@VVector@RadicalMathLibrary@@HPAV12@AAV12@PAV12@AAV12@@1@0ABVVector@RadicalMathLibrary@@@Z 0041ab20 f i flyingactor.obj
 0001:00019b50       ?copy_backward@std@@YA?AV?$_Ptrit@VVector@RadicalMathLibrary@@HPAV12@AAV12@PAV12@AAV12@@1@V21@00@Z 0041ab50 f i flyingactor.obj
 0001:00019b80       ?find@?$@VtDrawable@@@p3d@@YAPAVtDrawable@@PAVtEntityStore@@PBD@Z 0041ab80 f i flyingactor.obj
 0001:00019bf0       ?_Copy_opt@std@@YAPAVVector@RadicalMathLibrary@@V?$_Ptrit@VVector@RadicalMathLibrary@@HPAV12@AAV12@PAV12@AAV12@@1@0PAV23@U_Nonscalar_ptr_iterator_tag@1@@Z 0041abf0 f i flyingactor.obj
 0001:00019c30       ?_Copy_backward_opt@std@@YA?AV?$_Ptrit@VVector@RadicalMathLibrary@@HPAV12@AAV12@PAV12@AAV12@@1@V21@00U_Nonscalar_ptr_iterator_tag@1@@Z 0041ac30 f i flyingactor.obj
 0001:00019c80       ?find@?$@VtDrawable@@@p3d@@YAPAVtDrawable@@PAVtEntityStore@@ABVtName@@@Z 0041ac80 f i flyingactor.obj
 0001:00019d50       ?_Uninit_copy@std@@YAPAVVector@RadicalMathLibrary@@V?$_Ptrit@VVector@RadicalMathLibrary@@HPAV12@AAV12@PAV12@AAV12@@1@0PAV23@AAV?$s2alloc@VVector@RadicalMathLibrary@@@@U_Nonscalar_ptr_iterator_tag@1@@Z 0041ad50 f i flyingactor.obj
 0001:00019d90       ?safe_cast@?$SafeCast@VtDrawable@@@radLoadInventory@@UAEPAUIRefCount@@PAU3@@Z 0041ad90 f i flyingactor.obj
 0001:00019db0       ??0IntersectionList@@QAE@XZ 0041adb0 f   intersectionlist.obj
 0001:00019e60       ??_EIntersectionList@@UAEPAXI@Z 0041ae60 f i intersectionlist.obj
 0001:00019e60       ??_GIntersectionList@@UAEPAXI@Z 0041ae60 f i intersectionlist.obj
 0001:00019e80       ??1IntersectionList@@UAE@XZ 0041ae80 f   intersectionlist.obj
 0001:00019f30       ?Clear@IntersectionList@@QAEXXZ 0041af30 f   intersectionlist.obj
 0001:00019f50       ?ClearDynamics@IntersectionList@@QAEXXZ 0041af50 f   intersectionlist.obj
 0001:00019fb0       ?ClearAnimPhys@IntersectionList@@QAEXXZ 0041afb0 f   intersectionlist.obj
 0001:00019ff0       ?ClearStatics@IntersectionList@@QAEXXZ 0041aff0 f   intersectionlist.obj
 0001:0001a030       ?ClearFencePieces@IntersectionList@@QAEXXZ 0041b030 f   intersectionlist.obj
 0001:0001a070       ?TestIntersectionStatics@IntersectionList@@QAE_NABVVector@RadicalMathLibrary@@0PAV23@@Z 0041b070 f   intersectionlist.obj
 0001:0001a2c0       ?TestIntersectionDynamics@IntersectionList@@QAE_NABVVector@RadicalMathLibrary@@0PAV23@PAPAVDynaPhysDSG@@@Z 0041b2c0 f   intersectionlist.obj
 0001:0001a450       ?TestIntersectionAnimPhys@IntersectionList@@QAE_NABVVector@RadicalMathLibrary@@0PAV23@@Z 0041b450 f   intersectionlist.obj
 0001:0001a6a0       ?TestIntersection@IntersectionList@@QAE_NABVVector@RadicalMathLibrary@@0PAV23@M@Z 0041b6a0 f   intersectionlist.obj
 0001:0001a980       ?LineOfSight@IntersectionList@@QAE_NABVVector@RadicalMathLibrary@@0M_N@Z 0041b980 f   intersectionlist.obj
 0001:0001ab70       ?AddStatic@IntersectionList@@QAEXPAVSimState@sim@@@Z 0041bb70 f   intersectionlist.obj
 0001:0001abb0       ?AddDynamic@IntersectionList@@QAEXPAVSimState@sim@@PAVDynaPhysDSG@@@Z 0041bbb0 f   intersectionlist.obj
 0001:0001ac30       ?AddAnimPhys@IntersectionList@@QAEXPAVSimStateArticulated@sim@@@Z 0041bc30 f   intersectionlist.obj
 0001:0001ac70       ?AddFencePiece@IntersectionList@@QAEXPAVFenceEntityDSG@@@Z 0041bc70 f   intersectionlist.obj
 0001:0001acc0       ?FillIntersectionListStatics@IntersectionList@@QAEHABVVector@RadicalMathLibrary@@M@Z 0041bcc0 f   intersectionlist.obj
 0001:0001ad80       ?FillIntersectionListFence@IntersectionList@@QAEHABVVector@RadicalMathLibrary@@M@Z 0041bd80 f   intersectionlist.obj
 0001:0001ae30       ?FillIntersectionListDynamics@IntersectionList@@QAEHABVVector@RadicalMathLibrary@@M_NPAVDynaPhysDSG@@@Z 0041be30 f   intersectionlist.obj
 0001:0001af00       ?FillIntersectionListAnimPhys@IntersectionList@@QAEHABVVector@RadicalMathLibrary@@M@Z 0041bf00 f   intersectionlist.obj
 0001:0001afc0       ?LineSegmentIntersection@IntersectionList@@IAE_NABULineSegment2D@1@0PAM@Z 0041bfc0 f   intersectionlist.obj
 0001:0001b110       ?push_back@?$vector@PAVSelectableDialog@@V?$s2alloc@PAVSelectableDialog@@@@@std@@QAEXABQAVSelectableDialog@@@Z 0041c110 f i dialogselectiongroup.obj
 0001:0001b110       ?push_back@?$vector@W4TutorialMode@@V?$s2alloc@W4TutorialMode@@@@@std@@QAEXABW4TutorialMode@@@Z 0041c110 f i tutorialmanager.obj
 0001:0001b110       ?push_back@?$vector@PAVEventListener@@V?$s2alloc@PAVEventListener@@@@@std@@QAEXABQAVEventListener@@@Z 0041c110 f i eventmanager.obj
 0001:0001b110       ?push_back@?$vector@PAVCollisionObject@sim@@V?$s2alloc@PAVCollisionObject@sim@@@@@std@@QAEXABQAVCollisionObject@sim@@@Z 0041c110 f i intersectionlist.obj
 0001:0001b110       ?push_back@?$vector@W4ContextEnum@@V?$s2alloc@W4ContextEnum@@@@@std@@QAEXABW4ContextEnum@@@Z 0041c110 f i gameflow.obj
 0001:0001b170       ?reserve@?$vector@ULineSegment2D@IntersectionList@@V?$s2alloc@ULineSegment2D@IntersectionList@@@@@std@@QAEXI@Z 0041c170 f i intersectionlist.obj
 0001:0001b260       ?push_back@?$vector@ULineSegment2D@IntersectionList@@V?$s2alloc@ULineSegment2D@IntersectionList@@@@@std@@QAEXABULineSegment2D@IntersectionList@@@Z 0041c260 f i intersectionlist.obj
 0001:0001b2c0       ?resize@?$vector@ULineSegment2D@IntersectionList@@V?$s2alloc@ULineSegment2D@IntersectionList@@@@@std@@QAEXIULineSegment2D@IntersectionList@@@Z 0041c2c0 f i intersectionlist.obj
 0001:0001b340       ?_Xlen@?$vector@V?$MapElement@W4ParticleID@ParticleEnum@@H@@V?$s2alloc@V?$MapElement@W4ParticleID@ParticleEnum@@H@@@@@std@@IBEXXZ 0041c340 f i vehicleparticleemitter.obj
 0001:0001b340       ?_Xlen@?$vector@W4TutorialMode@@V?$s2alloc@W4TutorialMode@@@@@std@@IBEXXZ 0041c340 f i tutorialmanager.obj
 0001:0001b340       ?_Xlen@?$vector@PAVActor@@V?$s2alloc@PAVActor@@@@@std@@IBEXXZ 0041c340 f i actormanager.obj
 0001:0001b340       ?_Xlen@?$vector@PAVSelectableDialog@@V?$s2alloc@PAVSelectableDialog@@@@@std@@IBEXXZ 0041c340 f i dialogselectiongroup.obj
 0001:0001b340       ?_Xlen@?$vector@VtName@@V?$s2alloc@VtName@@@@@std@@IBEXXZ 0041c340 f i haspresentationinfo.obj
 0001:0001b340       ?_Xlen@?$vector@V?$MapElement@PAVCollisionObject@sim@@PAVDynaPhysDSG@@@@V?$s2alloc@V?$MapElement@PAVCollisionObject@sim@@PAVDynaPhysDSG@@@@@@@std@@IBEXXZ 0041c340 f i intersectionlist.obj
 0001:0001b340       ?_Xlen@?$vector@PAVIEntityDSG@@V?$s2alloc@PAVIEntityDSG@@@@@std@@IBEXXZ 0041c340 f i WorldScene.obj
 0001:0001b340       ?_Xlen@?$vector@V?$MapElement@VtUidUnaligned@@V1@@@V?$s2alloc@V?$MapElement@VtUidUnaligned@@V1@@@@@@std@@IBEXXZ 0041c340 f i AnimDynaPhysLoader.obj
 0001:0001b340       ?_Xlen@?$vector@W4ContextEnum@@V?$s2alloc@W4ContextEnum@@@@@std@@IBEXXZ 0041c340 f i gameflow.obj
 0001:0001b340       ?_Xlen@?$vector@PAVCollisionObject@sim@@V?$s2alloc@PAVCollisionObject@sim@@@@@std@@IBEXXZ 0041c340 f i intersectionlist.obj
 0001:0001b340       ?_Xlen@?$vector@UzSortBlah@WorldScene@@V?$s2alloc@UzSortBlah@WorldScene@@@@@std@@IBEXXZ 0041c340 f i WorldScene.obj
 0001:0001b340       ?_Xlen@?$vector@ULineSegment2D@IntersectionList@@V?$s2alloc@ULineSegment2D@IntersectionList@@@@@std@@IBEXXZ 0041c340 f i intersectionlist.obj
 0001:0001b340       ?_Xlen@?$vector@UVehicleFrameController@GeometryVehicle@@V?$s2alloc@UVehicleFrameController@GeometryVehicle@@@@@std@@IBEXXZ 0041c340 f i geometryvehicle.obj
 0001:0001b340       ?_Xlen@?$vector@PAVEventListener@@V?$s2alloc@PAVEventListener@@@@@std@@IBEXXZ 0041c340 f i eventmanager.obj
 0001:0001b340       ?_Xlen@?$vector@V?$MapElement@VtUidUnaligned@@PAVtPose@@@@V?$s2alloc@V?$MapElement@VtUidUnaligned@@PAVtPose@@@@@@@std@@IBEXXZ 0041c340 f i StatePropDSG.obj
 0001:0001b340       ?_Xlen@?$vector@VVector@RadicalMathLibrary@@V?$s2alloc@VVector@RadicalMathLibrary@@@@@std@@IBEXXZ 0041c340 f i flyingactor.obj
 0001:0001b340       ?_Xlen@?$vector@_NV?$s2alloc@_N@@@std@@IBEXXZ 0041c340 f i particlemanager.obj
 0001:0001b3c0       ?_Insert_n@?$vector@PAVActor@@V?$s2alloc@PAVActor@@@@@std@@IAEXV?$_Ptrit@PAVActor@@HPAPAV1@AAPAV1@PAPAV1@AAPAV1@@2@IABQAVActor@@@Z 0041c3c0 f i actormanager.obj
 0001:0001b3c0       ?_Insert_n@?$vector@PAVEventListener@@V?$s2alloc@PAVEventListener@@@@@std@@IAEXV?$_Ptrit@PAVEventListener@@HPAPAV1@AAPAV1@PAPAV1@AAPAV1@@2@IABQAVEventListener@@@Z 0041c3c0 f i eventmanager.obj
 0001:0001b3c0       ?_Insert_n@?$vector@W4ContextEnum@@V?$s2alloc@W4ContextEnum@@@@@std@@IAEXV?$_Ptrit@W4ContextEnum@@HPAW41@AAW41@PAW41@AAW41@@2@IABW4ContextEnum@@@Z 0041c3c0 f i gameflow.obj
 0001:0001b3c0       ?_Insert_n@?$vector@PAVSelectableDialog@@V?$s2alloc@PAVSelectableDialog@@@@@std@@IAEXV?$_Ptrit@PAVSelectableDialog@@HPAPAV1@AAPAV1@PAPAV1@AAPAV1@@2@IABQAVSelectableDialog@@@Z 0041c3c0 f i dialogselectiongroup.obj
 0001:0001b3c0       ?_Insert_n@?$vector@PAVCollisionObject@sim@@V?$s2alloc@PAVCollisionObject@sim@@@@@std@@IAEXV?$_Ptrit@PAVCollisionObject@sim@@HPAPAV12@AAPAV12@PAPAV12@AAPAV12@@2@IABQAVCollisionObject@sim@@@Z 0041c3c0 f i intersectionlist.obj
 0001:0001b3c0       ?_Insert_n@?$vector@PAVIEntityDSG@@V?$s2alloc@PAVIEntityDSG@@@@@std@@IAEXV?$_Ptrit@PAVIEntityDSG@@HPAPAV1@AAPAV1@PAPAV1@AAPAV1@@2@IABQAVIEntityDSG@@@Z 0041c3c0 f i WorldScene.obj
 0001:0001b3c0       ?_Insert_n@?$vector@W4TutorialMode@@V?$s2alloc@W4TutorialMode@@@@@std@@IAEXV?$_Ptrit@W4TutorialMode@@HPAW41@AAW41@PAW41@AAW41@@2@IABW4TutorialMode@@@Z 0041c3c0 f i tutorialmanager.obj
 0001:0001b660       ?_Insert_n@?$vector@ULineSegment2D@IntersectionList@@V?$s2alloc@ULineSegment2D@IntersectionList@@@@@std@@IAEXV?$_Ptrit@ULineSegment2D@IntersectionList@@HPAU12@AAU12@PAU12@AAU12@@2@IABULineSegment2D@IntersectionList@@@Z 0041c660 f i intersectionlist.obj
 0001:0001b910       ?begin@?$Map@VtUidUnaligned@@PAVtPose@@@@QAE?AV?$_Ptrit@V?$MapElement@VtUidUnaligned@@PAVtPose@@@@HPAV1@AAV1@PAV1@AAV1@@std@@XZ 0041c910 f i StatePropDSG.obj
 0001:0001b910       ?begin@?$Map@PAVCollisionObject@sim@@PAVDynaPhysDSG@@@@QAE?AV?$_Ptrit@V?$MapElement@PAVCollisionObject@sim@@PAVDynaPhysDSG@@@@HPAV1@AAV1@PAV1@AAV1@@std@@XZ 0041c910 f i intersectionlist.obj
 0001:0001b920       ?clear@?$Map@PAVCollisionObject@sim@@PAVDynaPhysDSG@@@@QAEXXZ 0041c920 f i intersectionlist.obj
 0001:0001b950       ?find@?$Map@PAVCollisionObject@sim@@PAVDynaPhysDSG@@@@QAE?AV?$_Ptrit@V?$MapElement@PAVCollisionObject@sim@@PAVDynaPhysDSG@@@@HPAV1@AAV1@PAV1@AAV1@@std@@ABQAVCollisionObject@sim@@@Z 0041c950 f i intersectionlist.obj
 0001:0001b9c0       ?insert@?$Map@PAVCollisionObject@sim@@PAVDynaPhysDSG@@@@QAEXABQAVCollisionObject@sim@@ABQAVDynaPhysDSG@@@Z 0041c9c0 f i intersectionlist.obj
 0001:0001ba10       ?size@?$Map@PAVCollisionObject@sim@@PAVDynaPhysDSG@@@@QBEIXZ 0041ca10 f i intersectionlist.obj
 0001:0001ba30       ?_Ucopy@?$vector@ULineSegment2D@IntersectionList@@V?$s2alloc@ULineSegment2D@IntersectionList@@@@@std@@IAEPAULineSegment2D@IntersectionList@@V?$_Ptrit@ULineSegment2D@IntersectionList@@HPAU12@AAU12@PAU12@AAU12@@2@0PAU34@@Z 0041ca30 f i intersectionlist.obj
 0001:0001ba60       ?fill@std@@YAXV?$_Ptrit@ULineSegment2D@IntersectionList@@HPAU12@AAU12@PAU12@AAU12@@1@0ABULineSegment2D@IntersectionList@@@Z 0041ca60 f i intersectionlist.obj
 0001:0001baa0       ?copy_backward@std@@YA?AV?$_Ptrit@ULineSegment2D@IntersectionList@@HPAU12@AAU12@PAU12@AAU12@@1@V21@00@Z 0041caa0 f i intersectionlist.obj
 0001:0001bad0       ?reserve@?$vector@V?$MapElement@W4ParticleID@ParticleEnum@@H@@V?$s2alloc@V?$MapElement@W4ParticleID@ParticleEnum@@H@@@@@std@@QAEXI@Z 0041cad0 f i vehicleparticleemitter.obj
 0001:0001bad0       ?reserve@?$vector@V?$MapElement@PAVCollisionObject@sim@@PAVDynaPhysDSG@@@@V?$s2alloc@V?$MapElement@PAVCollisionObject@sim@@PAVDynaPhysDSG@@@@@@@std@@QAEXI@Z 0041cad0 f i intersectionlist.obj
 0001:0001bbc0       ?push_back@?$vector@V?$MapElement@PAVCollisionObject@sim@@PAVDynaPhysDSG@@@@V?$s2alloc@V?$MapElement@PAVCollisionObject@sim@@PAVDynaPhysDSG@@@@@@@std@@QAEXABV?$MapElement@PAVCollisionObject@sim@@PAVDynaPhysDSG@@@@@Z 0041cbc0 f i intersectionlist.obj
 0001:0001bbc0       ?push_back@?$vector@V?$MapElement@W4ParticleID@ParticleEnum@@H@@V?$s2alloc@V?$MapElement@W4ParticleID@ParticleEnum@@H@@@@@std@@QAEXABV?$MapElement@W4ParticleID@ParticleEnum@@H@@@Z 0041cbc0 f i vehicleparticleemitter.obj
 0001:0001bc20       ?_Insert_n@?$vector@V?$MapElement@W4ParticleID@ParticleEnum@@H@@V?$s2alloc@V?$MapElement@W4ParticleID@ParticleEnum@@H@@@@@std@@IAEXV?$_Ptrit@V?$MapElement@W4ParticleID@ParticleEnum@@H@@HPAV1@AAV1@PAV1@AAV1@@2@IABV?$MapElement@W4ParticleID@ParticleEnum@@H@@@Z 0041cc20 f i vehicleparticleemitter.obj
 0001:0001bc20       ?_Insert_n@?$vector@V?$MapElement@PAVCollisionObject@sim@@PAVDynaPhysDSG@@@@V?$s2alloc@V?$MapElement@PAVCollisionObject@sim@@PAVDynaPhysDSG@@@@@@@std@@IAEXV?$_Ptrit@V?$MapElement@PAVCollisionObject@sim@@PAVDynaPhysDSG@@@@HPAV1@AAV1@PAV1@AAV1@@2@IABV?$MapElement@PAVCollisionObject@sim@@PAVDynaPhysDSG@@@@@Z 0041cc20 f i intersectionlist.obj
 0001:0001bec0       ?RefreshIfDirty@?$Map@PAVCollisionObject@sim@@PAVDynaPhysDSG@@@@IBEXXZ 0041cec0 f i intersectionlist.obj
 0001:0001bef0       ?_Uninit_fill_n@std@@YAXPAULineSegment2D@IntersectionList@@IABU23@AAV?$s2alloc@ULineSegment2D@IntersectionList@@@@U_Nonscalar_ptr_iterator_tag@1@@Z 0041cef0 f i intersectionlist.obj
 0001:0001bf20       ?_Copy_opt@std@@YAPAULineSegment2D@IntersectionList@@V?$_Ptrit@ULineSegment2D@IntersectionList@@HPAU12@AAU12@PAU12@AAU12@@1@0PAU23@U_Nonscalar_ptr_iterator_tag@1@@Z 0041cf20 f i intersectionlist.obj
 0001:0001bf60       ?_Copy_backward_opt@std@@YA?AV?$_Ptrit@ULineSegment2D@IntersectionList@@HPAU12@AAU12@PAU12@AAU12@@1@V21@00U_Nonscalar_ptr_iterator_tag@1@@Z 0041cf60 f i intersectionlist.obj
 0001:0001bfb0       ?_Lower_bound@std@@YA?AV?$_Ptrit@V?$MapElement@PAVCollisionObject@sim@@PAVDynaPhysDSG@@@@HPAV1@AAV1@PAV1@AAV1@@1@V21@0ABV?$MapElement@PAVCollisionObject@sim@@PAVDynaPhysDSG@@@@PAH@Z 0041cfb0 f i intersectionlist.obj
 0001:0001bff0       ?_Uninit_copy@std@@YAPAULineSegment2D@IntersectionList@@V?$_Ptrit@ULineSegment2D@IntersectionList@@HPAU12@AAU12@PAU12@AAU12@@1@0PAU23@AAV?$s2alloc@ULineSegment2D@IntersectionList@@@@U_Nonscalar_ptr_iterator_tag@1@@Z 0041cff0 f i intersectionlist.obj
 0001:0001c030       ?_Sort@std@@YAXV?$_Ptrit@V?$MapElement@PAVCollisionObject@sim@@PAVDynaPhysDSG@@@@HPAV1@AAV1@PAV1@AAV1@@1@0H@Z 0041d030 f i intersectionlist.obj
 0001:0001c140       ?_Unguarded_partition@std@@YA?AU?$pair@V?$_Ptrit@V?$MapElement@PAVCollisionObject@sim@@PAVDynaPhysDSG@@@@HPAV1@AAV1@PAV1@AAV1@@std@@V12@@1@V?$_Ptrit@V?$MapElement@PAVCollisionObject@sim@@PAVDynaPhysDSG@@@@HPAV1@AAV1@PAV1@AAV1@@1@0@Z 0041d140 f i intersectionlist.obj
 0001:0001c310       ?sort_heap@std@@YAXV?$_Ptrit@V?$MapElement@PAVCollisionObject@sim@@PAVDynaPhysDSG@@@@HPAV1@AAV1@PAV1@AAV1@@1@0@Z 0041d310 f i intersectionlist.obj
 0001:0001c370       ?_Insertion_sort@std@@YAXV?$_Ptrit@V?$MapElement@PAVCollisionObject@sim@@PAVDynaPhysDSG@@@@HPAV1@AAV1@PAV1@AAV1@@1@0@Z 0041d370 f i intersectionlist.obj
 0001:0001c400       ?_Median@std@@YAXV?$_Ptrit@V?$MapElement@PAVCollisionObject@sim@@PAVDynaPhysDSG@@@@HPAV1@AAV1@PAV1@AAV1@@1@00@Z 0041d400 f i intersectionlist.obj
 0001:0001c4e0       ?_Make_heap@std@@YAXV?$_Ptrit@V?$MapElement@PAVCollisionObject@sim@@PAVDynaPhysDSG@@@@HPAV1@AAV1@PAV1@AAV1@@1@0PAHPAV?$MapElement@PAVCollisionObject@sim@@PAVDynaPhysDSG@@@@@Z 0041d4e0 f i intersectionlist.obj
 0001:0001c530       ?_Med3@std@@YAXV?$_Ptrit@V?$MapElement@PAVCollisionObject@sim@@PAVDynaPhysDSG@@@@HPAV1@AAV1@PAV1@AAV1@@1@00@Z 0041d530 f i intersectionlist.obj
 0001:0001c590       ?_Adjust_heap@std@@YAXV?$_Ptrit@V?$MapElement@PAVCollisionObject@sim@@PAVDynaPhysDSG@@@@HPAV1@AAV1@PAV1@AAV1@@1@HHV?$MapElement@PAVCollisionObject@sim@@PAVDynaPhysDSG@@@@@Z 0041d590 f i intersectionlist.obj
 0001:0001c5f0       ?_Push_heap@std@@YAXV?$_Ptrit@V?$MapElement@PAVCollisionObject@sim@@PAVDynaPhysDSG@@@@HPAV1@AAV1@PAV1@AAV1@@1@HHV?$MapElement@PAVCollisionObject@sim@@PAVDynaPhysDSG@@@@@Z 0041d5f0 f i intersectionlist.obj
 0001:0001c640       ??0Projectile@@QAE@XZ      0041d640 f   projectile.obj
 0001:0001c660       ??_EProjectile@@UAEPAXI@Z  0041d660 f i projectile.obj
 0001:0001c660       ??_GProjectile@@UAEPAXI@Z  0041d660 f i projectile.obj
 0001:0001c680       ??1Projectile@@UAE@XZ      0041d680 f   projectile.obj
 0001:0001c6e0       ?SetSpeed@Projectile@@SAXM@Z 0041d6e0 f   projectile.obj
 0001:0001c700       ?Init@Projectile@@UAE_NPBD0@Z 0041d700 f   projectile.obj
 0001:0001c800       ?Update@Projectile@@UAEXI@Z 0041d800 f   projectile.obj
 0001:0001ca30       ?Fire@Projectile@@QAEXXZ   0041da30 f   projectile.obj
 0001:0001ca40       ?CalculateIntersections@Projectile@@QAEXXZ 0041da40 f   projectile.obj
 0001:0001cb00       ?AdjustCollisionPosition@Projectile@@IAEXABVVector@RadicalMathLibrary@@00PAV23@@Z 0041db00 f   projectile.obj
 0001:0001cbb0       ?ApplyDamage@Projectile@@IAEXPAVDynaPhysDSG@@@Z 0041dbb0 f   projectile.obj
 0001:0001ce30       ?IsJumpingPlayer@Projectile@@IAE_NPAVDynaPhysDSG@@@Z 0041de30 f   projectile.obj
 0001:0001ce60       ??0ProjectileDSG@@QAE@XZ   0041de60 f   projectiledsg.obj
 0001:0001ce90       ??_GProjectileDSG@@UAEPAXI@Z 0041de90 f i projectiledsg.obj
 0001:0001ce90       ??_EProjectileDSG@@UAEPAXI@Z 0041de90 f i projectiledsg.obj
 0001:0001ceb0       ??1ProjectileDSG@@UAE@XZ   0041deb0 f   projectiledsg.obj
 0001:0001ced0       ?PreReactToCollision@ProjectileDSG@@UAE?AW4Solving_Answer@sim@@PAVSimState@3@AAVCollision@3@@Z 0041ded0 f   projectiledsg.obj
 0001:0001ced0       ?PostReactToCollision@ProjectileDSG@@UAE?AW4Solving_Answer@sim@@AAVVector@RadicalMathLibrary@@AAVCollision@3@@Z 0041ded0 f   projectiledsg.obj
 0001:0001cee0       ?GetNumTriggers@TriggerLocator@@UAEIXZ 0041dee0 f i spawnpoint.obj
 0001:0001cef0       ?GetType@StaticCam@@UAE?AW4Type@SuperCam@@XZ 0041def0 f i staticcam.obj
 0001:0001cef0       ?GetDataType@SpawnPoint@@UBE?AW4Type@LocatorType@@XZ 0041def0 f i spawnpoint.obj
 0001:0001cf00       ??0SpawnPoint@@QAE@PBD0ABVSphere@RadicalMathLibrary@@I@Z 0041df00 f   spawnpoint.obj
 0001:0001d0f0       ??_ESpawnPoint@@UAEPAXI@Z  0041e0f0 f i spawnpoint.obj
 0001:0001d0f0       ??_GSpawnPoint@@UAEPAXI@Z  0041e0f0 f i spawnpoint.obj
 0001:0001d110       ??1SpawnPoint@@UAE@XZ      0041e110 f   spawnpoint.obj
 0001:0001d1e0       ?AddBehaviour@SpawnPoint@@QAEXPAVBehaviour@@@Z 0041e1e0 f   spawnpoint.obj
 0001:0001d200       ?OnTrigger@SpawnPoint@@MAEXI@Z 0041e200 f   spawnpoint.obj
 0001:0001d2e0       ?CanRespawn@SpawnPoint@@QBE_NXZ 0041e2e0 f   spawnpoint.obj
 0001:0001d2f0       ?HandleEvent@SpawnPoint@@UAEXW4EventEnum@@PAX@Z 0041e2f0 f   spawnpoint.obj
 0001:0001d350       ??_ESpawnPoint@@WDM@AEPAXI@Z 0041e350 f i spawnpoint.obj
 0001:0001d360       ??0UFOAttackBehaviour@@QAE@M@Z 0041e360 f   ufoattackbehaviour.obj
 0001:0001d400       ??_GUFOAttackBehaviour@@UAEPAXI@Z 0041e400 f i ufoattackbehaviour.obj
 0001:0001d400       ??_EUFOAttackBehaviour@@UAEPAXI@Z 0041e400 f i ufoattackbehaviour.obj
 0001:0001d420       ??1UFOAttackBehaviour@@UAE@XZ 0041e420 f   ufoattackbehaviour.obj
 0001:0001d450       ?Apply@UFOAttackBehaviour@@UAEXPAVActor@@I@Z 0041e450 f   ufoattackbehaviour.obj
 0001:0001d670       ?SetMaxFiringRange@UFOAttackBehaviour@@QAEXM@Z 0041e670 f   ufoattackbehaviour.obj
 0001:0001d690       ?SetActorMoveSpeed@AttackBehaviour@@QAEXM@Z 0041e690 f   attackbehaviour.obj
 0001:0001d690       ?SetActorMoveSpeed@UFOAttackBehaviour@@QAEXM@Z 0041e690 f   ufoattackbehaviour.obj
 0001:0001d6a0       ?FindTarget@UFOAttackBehaviour@@IAEPAVDynaPhysDSG@@ABVVector@RadicalMathLibrary@@PBVActorDSG@@@Z 0041e6a0 f   ufoattackbehaviour.obj
 0001:0001d760       ??0UFOBeamAlwaysOn@@QAE@XZ 0041e760 f   ufobeamalwaysonbehaviour.obj
 0001:0001d770       ??_GUFOBeamAlwaysOn@@UAEPAXI@Z 0041e770 f i ufobeamalwaysonbehaviour.obj
 0001:0001d770       ??_EUFOBeamAlwaysOn@@UAEPAXI@Z 0041e770 f i ufobeamalwaysonbehaviour.obj
 0001:0001d790       ??1UFOBeamAlwaysOn@@UAE@XZ 0041e790 f   ufobeamalwaysonbehaviour.obj
 0001:0001d7a0       ?Apply@UFOBeamAlwaysOn@@UAEXPAVActor@@I@Z 0041e7a0 f   ufobeamalwaysonbehaviour.obj
 0001:0001d910       ??0UFOBehaviour@@QAE@XZ    0041e910 f   ufobehaviour.obj
 0001:0001d990       ??1UFOBehaviour@@UAE@XZ    0041e990 f   ufobehaviour.obj
 0001:0001da00       ?SetCharacterRespawnPosition@UFOBehaviour@@QAEXPAVEventLocator@@@Z 0041ea00 f   ufobehaviour.obj
 0001:0001da40       ?WithinTractorBeamRange@UFOBehaviour@@IBE_NABVVector@RadicalMathLibrary@@PAVIEntityDSG@@@Z 0041ea40 f   ufobehaviour.obj
 0001:0001da90       ?SuckIntoUFO@UFOBehaviour@@IAE_NABVVector@RadicalMathLibrary@@PAVDynaPhysDSG@@M@Z 0041ea90 f   ufobehaviour.obj
 0001:0001dc10       ?ReachedTopOfTractorBeam@UFOBehaviour@@IAE_NABVVector@RadicalMathLibrary@@PAVDynaPhysDSG@@@Z 0041ec10 f   ufobehaviour.obj
 0001:0001dc70       ?DestroyObject@UFOBehaviour@@IAE_NPAVDynaPhysDSG@@@Z 0041ec70 f   ufobehaviour.obj
 0001:0001de80       ?GetTargetsInTractorRange@UFOBehaviour@@IAEXAAVVector@RadicalMathLibrary@@MPAV?$SwapArray@PAVDynaPhysDSG@@@@@Z 0041ee80 f   ufobehaviour.obj
 0001:0001df80       ?find@?$@VEventLocator@@@p3d@@YAPAVEventLocator@@PBD@Z 0041ef80 f i ufobehaviour.obj
 0001:0001dfa0       ?find@?$@VEventLocator@@@p3d@@YAPAVEventLocator@@PAVtEntityStore@@PBD@Z 0041efa0 f i ufobehaviour.obj
 0001:0001e010       ?find@?$@VEventLocator@@@p3d@@YAPAVEventLocator@@PAVtEntityStore@@ABVtName@@@Z 0041f010 f i ufobehaviour.obj
 0001:0001e0d0       ?safe_cast@?$SafeCast@VEventLocator@@@radLoadInventory@@UAEPAUIRefCount@@PAU3@@Z 0041f0d0 f i ufobehaviour.obj
 0001:0001e0f0       ??0ATCLoader@@QAE@XZ       0041f0f0 f   atcloader.obj
 0001:0001e110       ?LoadObject@ATCLoader@@EAEPAVtEntity@@PAVtChunkFile@@PAVtEntityStore@@@Z 0041f110 f   atcloader.obj
 0001:0001e2a0       ?GetFloat@tChunkFile@@QAEMXZ 0041f2a0 f i atcloader.obj
 0001:0001e2d0       ?GetPString@tChunkFile@@QAEPADPAD@Z 0041f2d0 f i locatorloader.obj
 0001:0001e2d0       ?GetString@tChunkFile@@QAEPADPAD@Z 0041f2d0 f i atcloader.obj
 0001:0001e310       ?CreateInstance@ATCManager@@SAPAV1@XZ 0041f310 f   atcmanager.obj
 0001:0001e360       ?GetInstance@ATCManager@@SAPAV1@XZ 0041f360 f   atcmanager.obj
 0001:0001e370       ?DestroyInstance@ATCManager@@SAXXZ 0041f370 f   atcmanager.obj
 0001:0001e3a0       ?CreateCollisionAttributes@ATCManager@@QAEPAVCollisionAttributes@@IIM@Z 0041f3a0 f   atcmanager.obj
 0001:0001e400       ?Init@ATCManager@@QAEXXZ   0041f400 f   atcmanager.obj
 0001:0001e430       ?SetATCTable@ATCManager@@QAEXPAUAttributeRow@@I@Z 0041f430 f   atcmanager.obj
 0001:0001e4a0       ??0ATCManager@@AAE@XZ      0041f4a0 f   atcmanager.obj
 0001:0001e4b0       ??1ATCManager@@AAE@XZ      0041f4b0 f   atcmanager.obj
 0001:0001e4c0       ?GetCollisionRadius@SuperCam@@UBEMXZ 0041f4c0 f i animatedcam.obj
 0001:0001e4d0       ?EnableShake@SuperCam@@UAEXXZ 0041f4d0 f i animatedcam.obj
 0001:0001e4f0       ?DisableShake@FollowCam@@UAEXXZ 0041f4f0 f i followcam.obj
 0001:0001e4f0       ?DisableShake@ReverseCam@@UAEXXZ 0041f4f0 f i reversecam.obj
 0001:0001e4f0       ?DisableShake@DebugCam@@UAEXXZ 0041f4f0 f i debugcam.obj
 0001:0001e4f0       ?DisableShake@SuperCam@@UAEXXZ 0041f4f0 f i animatedcam.obj
 0001:0001e510       ?LookBack@SuperCam@@UAEX_N@Z 0041f510 f i animatedcam.obj
 0001:0001e530       ?DoFirstTime@SuperCam@@UAEXXZ 0041f530 f i animatedcam.obj
 0001:0001e540       ?DoCameraCut@SuperCam@@UAEXXZ 0041f540 f i animatedcam.obj
 0001:0001e550       ?Abort@AnimatedCam@@QAEXXZ 0041f550 f   animatedcam.obj
 0001:0001e5f0       ??0AnimatedCam@@QAE@XZ     0041f5f0 f   animatedcam.obj
 0001:0001e610       ??_GAnimatedCam@@UAEPAXI@Z 0041f610 f i animatedcam.obj
 0001:0001e610       ??_EAnimatedCam@@UAEPAXI@Z 0041f610 f i animatedcam.obj
 0001:0001e630       ??1AnimatedCam@@UAE@XZ     0041f630 f   animatedcam.obj
 0001:0001e6f0       ?AllowSkipping@AnimatedCam@@SAX_N@Z 0041f6f0 f   animatedcam.obj
 0001:0001e700       ?CameraSwitchPending@AnimatedCam@@KA_NXZ 0041f700 f   animatedcam.obj
 0001:0001e710       ?CheckPendingCameraSwitch@AnimatedCam@@SAXXZ 0041f710 f   animatedcam.obj
 0001:0001e770       ?ClearCamera@AnimatedCam@@SAXXZ 0041f770 f   animatedcam.obj
 0001:0001e7b0       ?GetName@AnimatedCam@@UBEQBDXZ 0041f7b0 f   animatedcam.obj
 0001:0001e7c0       ?GetType@AnimatedCam@@UAE?AW4Type@SuperCam@@XZ 0041f7c0 f   animatedcam.obj
 0001:0001e7d0       ?LetterBoxStart@AnimatedCam@@MAEXXZ 0041f7d0 f   animatedcam.obj
 0001:0001e8a0       ?LetterBoxStop@AnimatedCam@@MAEXXZ 0041f8a0 f   animatedcam.obj
 0001:0001e8e0       ?LookupCamera@AnimatedCam@@KAXXZ 0041f8e0 f   animatedcam.obj
 0001:0001e960       ?LookupMulticontroller@AnimatedCam@@KAXXZ 0041f960 f   animatedcam.obj
 0001:0001e9e0       ?OnInit@AnimatedCam@@UAEXXZ 0041f9e0 f   animatedcam.obj
 0001:0001ea00       ?OnShutdown@AnimatedCam@@UAEXXZ 0041fa00 f   animatedcam.obj
 0001:0001ea40       ?Reset@AnimatedCam@@SAXXZ  0041fa40 f   animatedcam.obj
 0001:0001ea60       ?SetCamera@AnimatedCam@@SAXVtName@@@Z 0041fa60 f   animatedcam.obj
 0001:0001eaf0       ?SetMulticontroller@AnimatedCam@@SAXVtName@@@Z 0041faf0 f   animatedcam.obj
 0001:0001eb80       ?SetMissionStartCamera@AnimatedCam@@SAXVtName@@@Z 0041fb80 f   animatedcam.obj
 0001:0001ebd0       ?SetMissionStartMulticontroller@AnimatedCam@@SAXVtName@@@Z 0041fbd0 f   animatedcam.obj
 0001:0001ec20       ?SetNextCameraType@AnimatedCam@@QAEXW4Type@SuperCam@@@Z 0041fc20 f   animatedcam.obj
 0001:0001ec30       ?Skip@AnimatedCam@@SAXXZ   0041fc30 f   animatedcam.obj
 0001:0001ec60       ?TriggerMissionStartCamera@AnimatedCam@@SAXXZ 0041fc60 f   animatedcam.obj
 0001:0001ed30       ?SetCameraSwitchPending@AnimatedCam@@KAX_N@Z 0041fd30 f   animatedcam.obj
 0001:0001ed40       ?SetCameraTransitionFlags@AnimatedCam@@SAXH@Z 0041fd40 f   animatedcam.obj
 0001:0001ed50       ?SupressNextLetterbox@AnimatedCam@@SAXXZ 0041fd50 f   animatedcam.obj
 0001:0001ed60       ?Update@AnimatedCam@@UAEXI@Z 0041fd60 f   animatedcam.obj
 0001:0001efb0       ?find@?$@VtCamera@@@p3d@@YAPAVtCamera@@VtUidUnaligned@@@Z 0041ffb0 f i animatedcam.obj
 0001:0001f030       ?find@?$@VtMultiController@@@p3d@@YAPAVtMultiController@@VtUidUnaligned@@@Z 00420030 f i animatedcam.obj
 0001:0001f0b0       ?find@?$@VtCamera@@@p3d@@YAPAVtCamera@@PAVtEntityStore@@ABVtName@@@Z 004200b0 f i animatedcam.obj
 0001:0001f180       ?find@?$@VtMultiController@@@p3d@@YAPAVtMultiController@@PAVtEntityStore@@ABVtName@@@Z 00420180 f i animatedcam.obj
 0001:0001f250       ?safe_cast@?$SafeCast@VtCamera@@@radLoadInventory@@UAEPAUIRefCount@@PAU3@@Z 00420250 f i animatedcam.obj
 0001:0001f270       ?safe_cast@?$SafeCast@VtMultiController@@@radLoadInventory@@UAEPAUIRefCount@@PAU3@@Z 00420270 f i animatedcam.obj
 0001:0001f290       ??_EBumperCamData@@UAEPAXI@Z 00420290 f i bumpercam.obj
 0001:0001f290       ??_GBumperCamData@@UAEPAXI@Z 00420290 f i bumpercam.obj
 0001:0001f2b0       ?GetName@BumperCam@@UBEQBDXZ 004202b0 f i bumpercam.obj
 0001:0001f2c0       ?SetTarget@BumperCam@@UAEXPAVISuperCamTarget@@@Z 004202c0 f i bumpercam.obj
 0001:0001f2d0       ?GetNumTargets@BumperCam@@UBEIXZ 004202d0 f i bumpercam.obj
 0001:0001f2e0       ??0BumperCam@@QAE@XZ       004202e0 f   bumpercam.obj
 0001:0001f380       ??_EBumperCam@@UAEPAXI@Z   00420380 f i bumpercam.obj
 0001:0001f380       ??_GBumperCam@@UAEPAXI@Z   00420380 f i bumpercam.obj
 0001:0001f3a0       ??1BumperCam@@UAE@XZ       004203a0 f   bumpercam.obj
 0001:0001f3c0       ?Update@BumperCam@@UAEXI@Z 004203c0 f   bumpercam.obj
 0001:0001f6b0       ?UpdateForPhysics@BumperCam@@UAEXI@Z 004206b0 f   bumpercam.obj
 0001:0001f750       ?SetCollisionOffset@BumperCam@@UAEXPBVVector@RadicalMathLibrary@@IABV23@@Z 00420750 f   bumpercam.obj
 0001:0001f760       ?MotionCubic@SuperCam@@IBEXPAM0MM@Z 00420760 f i chasecam.obj
 0001:0001f7c0       ??_EChaseCamData@@UAEPAXI@Z 004207c0 f i chasecam.obj
 0001:0001f7c0       ??_GChaseCamData@@UAEPAXI@Z 004207c0 f i chasecam.obj
 0001:0001f7e0       ?GetName@ChaseCam@@UBEQBDXZ 004207e0 f i chasecam.obj
 0001:0001f7f0       ?SetTarget@RailCam@@UAEXPAVISuperCamTarget@@@Z 004207f0 f i railcam.obj
 0001:0001f7f0       ?SetTarget@StaticCam@@UAEXPAVISuperCamTarget@@@Z 004207f0 f i staticcam.obj
 0001:0001f7f0       ?SetPeeloutMin@globalSettings@@UAEXM@Z 004207f0 f i globalsettings.obj
 0001:0001f7f0       ?SetTarget@PCCam@@UAEXPAVISuperCamTarget@@@Z 004207f0 f i pccam.obj
 0001:0001f7f0       ?SetTarget@ChaseCam@@UAEXPAVISuperCamTarget@@@Z 004207f0 f i chasecam.obj
 0001:0001f7f0       ?SetTarget@ReverseCam@@UAEXPAVISuperCamTarget@@@Z 004207f0 f i reversecam.obj
 0001:0001f7f0       ?SetTarget@TrackerCam@@UAEXPAVISuperCamTarget@@@Z 004207f0 f i trackercam.obj
 0001:0001f800       ?GetNumTargets@PCCam@@UBEIXZ 00420800 f i pccam.obj
 0001:0001f800       ?GetNumTargets@ReverseCam@@UBEIXZ 00420800 f i reversecam.obj
 0001:0001f800       ?GetNumTargets@ChaseCam@@UBEIXZ 00420800 f i chasecam.obj
 0001:0001f800       ?GetNumTargets@RailCam@@UBEIXZ 00420800 f i railcam.obj
 0001:0001f800       ?GetNumTargets@TrackerCam@@UBEIXZ 00420800 f i trackercam.obj
 0001:0001f800       ?GetNumTargets@WalkerCam@@UBEIXZ 00420800 f i walkercam.obj
 0001:0001f800       ?GetNumTargets@StaticCam@@UBEIXZ 00420800 f i staticcam.obj
 0001:0001f810       ??0ChaseCam@@QAE@XZ        00420810 f   chasecam.obj
 0001:0001f8e0       ??_EChaseCam@@UAEPAXI@Z    004208e0 f i chasecam.obj
 0001:0001f8e0       ??_GChaseCam@@UAEPAXI@Z    004208e0 f i chasecam.obj
 0001:0001f900       ??1ChaseCam@@UAE@XZ        00420900 f   chasecam.obj
 0001:0001f920       ?Update@ChaseCam@@UAEXI@Z  00420920 f   chasecam.obj
 0001:0001fc20       ?DoCameraCut@ChaseCam@@EAEXXZ 00420c20 f   chasecam.obj
 0001:0001fd00       ??1ConversationCamData@@UAE@XZ 00420d00 f i conversationcam.obj
 0001:0001fd10       ??_EConversationCamData@@UAEPAXI@Z 00420d10 f i conversationcam.obj
 0001:0001fd10       ??_GConversationCamData@@UAEPAXI@Z 00420d10 f i conversationcam.obj
 0001:0001fd30       ?GetName@ConversationCam@@UBEQBDXZ 00420d30 f i conversationcam.obj
 0001:0001fd40       ?GetType@ConversationCam@@UAE?AW4Type@SuperCam@@XZ 00420d40 f i conversationcam.obj
 0001:0001fd50       ??0ConversationCam@@QAE@XZ 00420d50 f   conversationcam.obj
 0001:0001fe40       ??_GConversationCam@@UAEPAXI@Z 00420e40 f i conversationcam.obj
 0001:0001fe40       ??_EConversationCam@@UAEPAXI@Z 00420e40 f i conversationcam.obj
 0001:0001fe60       ??1ConversationCam@@UAE@XZ 00420e60 f   conversationcam.obj
 0001:0001fee0       ?Update@ConversationCam@@UAEXI@Z 00420ee0 f   conversationcam.obj
 0001:00020970       ?LockCharacterPositions@ConversationCam@@QAEXXZ 00421970 f   conversationcam.obj
 0001:000209a0       ?SetBurnoutMinPitch@carSoundParameters@@UAEXM@Z 004219a0 f   carsoundparameters.obj
 0001:000209a0       ?SetTarget@ConversationCam@@UAEXPAVISuperCamTarget@@@Z 004219a0 f   conversationcam.obj
 0001:000209b0       ?AddTarget@ConversationCam@@UAEXPAVISuperCamTarget@@@Z 004219b0 f   conversationcam.obj
 0001:000209b0       ?SetBurnoutMaxPitch@carSoundParameters@@UAEXM@Z 004219b0 f   carsoundparameters.obj
 0001:000209c0       ?GetNumTargets@ConversationCam@@UBEIXZ 004219c0 f   conversationcam.obj
 0001:00020bc0       ?SetCameraByIndex@ConversationCam@@CAXI@Z 00421bc0 f   conversationcam.obj
 0001:00020cb0       ?SetCameraByName@ConversationCam@@SAXABVtName@@@Z 00421cb0 f   conversationcam.obj
 0001:00020cc0       ?SetCameraDistanceByName@ConversationCam@@SAXABVtName@@M@Z 00421cc0 f   conversationcam.obj
 0001:00020ce0       ?SetCamBestSide@ConversationCam@@SAXABVtName@@@Z 00421ce0 f   conversationcam.obj
 0001:00020d10       ?SetCameraDistanceByIndex@ConversationCam@@CAXIM@Z 00421d10 f   conversationcam.obj
 0001:00020d20       ?SetCharacter@ConversationCam@@QAEXHPAVCharacter@@@Z 00421d20 f   conversationcam.obj
 0001:00020d30       ?SetPcCameraByName@ConversationCam@@SAXABVtName@@@Z 00421d30 f   conversationcam.obj
 0001:00020d40       ?SetNpcCameraByName@ConversationCam@@SAXABVtName@@@Z 00421d40 f   conversationcam.obj
 0001:00020d50       ?SetNpcIsChild@ConversationCam@@SAX_N@Z 00421d50 f   conversationcam.obj
 0001:00020d60       ?SetPcIsChild@ConversationCam@@SAX_N@Z 00421d60 f   conversationcam.obj
 0001:00020d70       ?UsePcCam@ConversationCam@@SAXXZ 00421d70 f   conversationcam.obj
 0001:00020d80       ?UseNpcCam@ConversationCam@@SAXXZ 00421d80 f   conversationcam.obj
 0001:00020d90       ?OnInit@ConversationCam@@UAEXXZ 00421d90 f   conversationcam.obj
 0001:00020da0       ?OnShutdown@ConversationCam@@UAEXXZ 00421da0 f   conversationcam.obj
 0001:00020e10       ?find@?$@VLocator@@@p3d@@YAPAVLocator@@VtUidUnaligned@@@Z 00421e10 f i conversationcam.obj
 0001:00020e90       ?GetName@DebugCam@@UBEQBDXZ 00421e90 f i debugcam.obj
 0001:00020ea0       ??0DebugCam@@QAE@XZ        00421ea0 f   debugcam.obj
 0001:00020ed0       ??_GDebugCam@@UAEPAXI@Z    00421ed0 f i debugcam.obj
 0001:00020ed0       ??_EDebugCam@@UAEPAXI@Z    00421ed0 f i debugcam.obj
 0001:00020ef0       ??1DebugCam@@UAE@XZ        00421ef0 f   debugcam.obj
 0001:00020f00       ?Update@DebugCam@@UAEXI@Z  00421f00 f   debugcam.obj
 0001:000211b0       ?FilterFov@SuperCam@@IAEXMMMAAM0MMM@Z 004221b0 f i firstpersoncam.obj
 0001:00021240       ??_EFollowCamData@@UAEPAXI@Z 00422240 f i followcam.obj
 0001:00021240       ??_GFollowCamData@@UAEPAXI@Z 00422240 f i followcam.obj
 0001:00021260       ??0FollowCamData@@QAE@XZ   00422260 f i followcam.obj
 0001:000212e0       ?GetCollisionRadius@FollowCam@@UBEMXZ 004222e0 f i followcam.obj
 0001:000212f0       ?GetIntersectionRadius@FollowCam@@UBEMXZ 004222f0 f i followcam.obj
 0001:00021300       ?GetName@FollowCam@@UBEQBDXZ 00422300 f i followcam.obj
 0001:00021320       ?GetNumTargets@WrecklessCam@@UBEIXZ 00422320 f i wrecklesscam.obj
 0001:00021320       ?GetNumTargets@FollowCam@@UBEIXZ 00422320 f i followcam.obj
 0001:00021330       ?GetType@FollowCam@@UAE?AW4Type@SuperCam@@XZ 00422330 f i followcam.obj
 0001:00021340       ?SetCollisionOffset@FollowCam@@UAEXPBVVector@RadicalMathLibrary@@IABV23@@Z 00422340 f i followcam.obj
 0001:00021380       ?OnInit@FollowCam@@MAEXXZ  00422380 f i followcam.obj
 0001:000213a0       ??0FollowCam@@QAE@W4FollowType@0@@Z 004223a0 f   followcam.obj
 0001:00021490       ??_GFollowCam@@UAEPAXI@Z   00422490 f i followcam.obj
 0001:00021490       ??_EFollowCam@@UAEPAXI@Z   00422490 f i followcam.obj
 0001:000214b0       ??1FollowCam@@UAE@XZ       004224b0 f   followcam.obj
 0001:000214d0       ?Update@FollowCam@@UAEXI@Z 004224d0 f   followcam.obj
 0001:00021a30       ?UpdateForPhysics@FollowCam@@UAEXI@Z 00422a30 f   followcam.obj
 0001:00021db0       ?CopyToData@FollowCam@@QAEXXZ 00422db0 f   followcam.obj
 0001:00021dc0       ?SetTarget@FollowCam@@UAEXPAVISuperCamTarget@@@Z 00422dc0 f   followcam.obj
 0001:00021e50       ?ShouldReverse@FollowCam@@QBE_NXZ 00422e50 f   followcam.obj
 0001:00021ee0       ?DoCameraCut@FollowCam@@EAEXXZ 00422ee0 f   followcam.obj
 0001:00021ff0       ?InitUnstable@FollowCam@@AAEXXZ 00422ff0 f   followcam.obj
 0001:00022090       ?UpdateUnstable@FollowCam@@AAEXI@Z 00423090 f   followcam.obj
 0001:00022110       ?InitQuickTurn@FollowCam@@AAEXXZ 00423110 f   followcam.obj
 0001:00022120       ?UpdateQuickTurn@FollowCam@@AAEXI@Z 00423120 f   followcam.obj
 0001:00022150       ?GetTargetPosition@FollowCam@@AAEXPAVVector@RadicalMathLibrary@@_N@Z 00423150 f   followcam.obj
 0001:00022250       ?CalculateRod@FollowCam@@AAEXPAVVector@RadicalMathLibrary@@IM@Z 00423250 f   followcam.obj
 0001:000226b0       ?CalculateTarget@FollowCam@@AAEXPAVVector@RadicalMathLibrary@@IM@Z 004236b0 f   followcam.obj
 0001:000227e0       ?GetDesiredRod@FollowCam@@AAE_NPAVVector@RadicalMathLibrary@@@Z 004237e0 f   followcam.obj
 0001:00022850       ?IsPushingStick@FollowCam@@AAE_NXZ 00423850 f   followcam.obj
 0001:00022920       ?GetName@KullCam@@UBEQBDXZ 00423920 f i kullcam.obj
 0001:00022930       ?SetTarget@KullCam@@UAEXPAVISuperCamTarget@@@Z 00423930 f i kullcam.obj
 0001:00022930       ?SetIdleEnginePitch@carSoundParameters@@UAEXM@Z 00423930 f i carsoundparameters.obj
 0001:00022940       ?GetNumTargets@KullCam@@UBEIXZ 00423940 f i kullcam.obj
 0001:00022950       ??0KullCam@@QAE@XZ         00423950 f   kullcam.obj
 0001:000229a0       ??_GKullCam@@UAEPAXI@Z     004239a0 f i kullcam.obj
 0001:000229a0       ??_EKullCam@@UAEPAXI@Z     004239a0 f i kullcam.obj
 0001:000229c0       ??1KullCam@@UAE@XZ         004239c0 f   kullcam.obj
 0001:000229d0       ?Update@KullCam@@UAEXI@Z   004239d0 f   kullcam.obj
 0001:00022c20       ?GetName@PCCam@@UBEQBDXZ   00423c20 f i pccam.obj
 0001:00022c30       ?GetType@PCCam@@UAE?AW4Type@SuperCam@@XZ 00423c30 f i pccam.obj
 0001:00022c40       ??0PCCam@@QAE@XZ           00423c40 f   pccam.obj
 0001:00022ca0       ??_GPCCam@@UAEPAXI@Z       00423ca0 f i pccam.obj
 0001:00022ca0       ??_EPCCam@@UAEPAXI@Z       00423ca0 f i pccam.obj
 0001:00022cc0       ??1PCCam@@UAE@XZ           00423cc0 f   pccam.obj
 0001:00022cd0       ?Update@PCCam@@UAEXI@Z     00423cd0 f   pccam.obj
 0001:00023190       ?UpdateForPhysics@PCCam@@UAEXI@Z 00424190 f   pccam.obj
 0001:000234b0       ?SetCollisionOffset@PCCam@@UAEXPBVVector@RadicalMathLibrary@@IABV23@@Z 004244b0 f   pccam.obj
 0001:000234f0       ?GetIntersectionRadius@PCCam@@UBEMXZ 004244f0 f   pccam.obj
 0001:00023500       ?GetName@RailCam@@UBEQBDXZ 00424500 f i railcam.obj
 0001:00023510       ??0RailCam@@QAE@XZ         00424510 f   railcam.obj
 0001:00023680       ??_ERailCam@@UAEPAXI@Z     00424680 f i railcam.obj
 0001:00023680       ??_GRailCam@@UAEPAXI@Z     00424680 f i railcam.obj
 0001:000236a0       ??1RailCam@@UAE@XZ         004246a0 f   railcam.obj
 0001:00023710       ?OnInit@RailCam@@MAEXXZ    00424710 f   railcam.obj
 0001:00023760       ?OnShutdown@RailCam@@MAEXXZ 00424760 f   railcam.obj
 0001:00023770       ?Update@RailCam@@UAEXI@Z   00424770 f   railcam.obj
 0001:00023b20       ?GetTargetPosition@RailCam@@AAEXPAVVector@RadicalMathLibrary@@_N@Z 00424b20 f   railcam.obj
 0001:00023b40       ?IntervalClamp@RailCam@@ABE?AW4SolutionType@1@AAM@Z 00424b40 f   railcam.obj
 0001:00023b90       ?ProjectPointOnLine@RailCam@@ABEAAMABVVector@RadicalMathLibrary@@00AAM@Z 00424b90 f   railcam.obj
 0001:00023c20       ?IntersectLineCylinder@RailCam@@AAE?AW4SolutionType@1@HABVVector@RadicalMathLibrary@@M0AAM@Z 00424c20 f   railcam.obj
 0001:00023fd0       ?FindCameraPosition_Distance@RailCam@@AAE?AVVector@RadicalMathLibrary@@ABV23@M@Z 00424fd0 f   railcam.obj
 0001:000242a0       ?FindCameraPosition_Projection@RailCam@@AAE?AVVector@RadicalMathLibrary@@ABV23@M@Z 004252a0 f   railcam.obj
 0001:00024680       ?FinalizeRailPosition@RailCam@@AAE?AVVector@RadicalMathLibrary@@W4SolutionType@1@@Z 00425680 f   railcam.obj
 0001:000247f0       ?FindCameraLookAt@RailCam@@AAE?AVVector@RadicalMathLibrary@@ABV23@0@Z 004257f0 f   railcam.obj
 0001:000249b0       ?TestEval@RailCam@@AAE?AVVector@RadicalMathLibrary@@M@Z 004259b0 f   railcam.obj
 0001:00024c90       ?Interpolate@Vector@RadicalMathLibrary@@QAEXABV12@0M@Z 00425c90 f i railcam.obj
 0001:00024cd0       ??0RelativeAnimatedCam@@QAE@XZ 00425cd0 f   relativeanimatedcam.obj
 0001:00024d20       ??_ERelativeAnimatedCam@@UAEPAXI@Z 00425d20 f i relativeanimatedcam.obj
 0001:00024d20       ??_GRelativeAnimatedCam@@UAEPAXI@Z 00425d20 f i relativeanimatedcam.obj
 0001:00024d40       ??1RelativeAnimatedCam@@UAE@XZ 00425d40 f i relativeanimatedcam.obj
 0001:00024d50       ?CheckPendingCameraSwitch@RelativeAnimatedCam@@SAXXZ 00425d50 f   relativeanimatedcam.obj
 0001:00024dc0       ?GetName@RelativeAnimatedCam@@UBEQBDXZ 00425dc0 f   relativeanimatedcam.obj
 0001:00024dd0       ?GetType@RelativeAnimatedCam@@UAE?AW4Type@SuperCam@@XZ 00425dd0 f   relativeanimatedcam.obj
 0001:00024de0       ?SetCameraAnimationController@RelativeAnimatedCam@@QAEXPAVtCameraAnimationController@@@Z 00425de0 f   relativeanimatedcam.obj
 0001:00024e00       ?SetOffsetMatrix@RelativeAnimatedCam@@QAEXABVMatrix@RadicalMathLibrary@@@Z 00425e00 f   relativeanimatedcam.obj
 0001:00024e30       ?Update@RelativeAnimatedCam@@UAEXI@Z 00425e30 f   relativeanimatedcam.obj
 0001:00024e40       ?GetDialogueVolume@daSoundTuner@Sound@@UAEMXZ 00425e40 f i soundtuner.obj
 0001:00024e40       ?GetGroundFixupWeight@RootBlender@choreo@@QBEMXZ 00425e40 f i choreowr:rootblender.obj
 0001:00024e40       ?GetCollisionRadius@ReverseCam@@UBEMXZ 00425e40 f i reversecam.obj
 0001:00024e50       ?GetName@ReverseCam@@UBEQBDXZ 00425e50 f i reversecam.obj
 0001:00024e60       ?GetType@ReverseCam@@UAE?AW4Type@SuperCam@@XZ 00425e60 f i reversecam.obj
 0001:00024e70       ?SetCollisionOffset@ReverseCam@@UAEXPBVVector@RadicalMathLibrary@@IABV23@@Z 00425e70 f i reversecam.obj
 0001:00024eb0       ??0ReverseCam@@QAE@XZ      00425eb0 f   reversecam.obj
 0001:00024f10       ??_GReverseCam@@UAEPAXI@Z  00425f10 f i reversecam.obj
 0001:00024f10       ??_EReverseCam@@UAEPAXI@Z  00425f10 f i reversecam.obj
 0001:00024f30       ??1ReverseCam@@UAE@XZ      00425f30 f   reversecam.obj
 0001:00024f40       ?Update@ReverseCam@@UAEXI@Z 00425f40 f   reversecam.obj
 0001:000254a0       ?UpdateForPhysics@ReverseCam@@UAEXI@Z 004264a0 f   reversecam.obj
 0001:000256c0       ?EnableShake@DebugCam@@UAEXXZ 004266c0 f   debugcam.obj
 0001:000256c0       ?EnableShake@FollowCam@@UAEXXZ 004266c0 f   followcam.obj
 0001:000256c0       ?EnableShake@ReverseCam@@UAEXXZ 004266c0 f   reversecam.obj
 0001:000256f0       ?CanSwitch@ReverseCam@@MAE_NXZ 004266f0 f   reversecam.obj
 0001:00025770       ??1ICameraShaker@@UAE@XZ   00426770 f i sinecosshaker.obj
 0001:00025780       ??_GICameraShaker@@UAEPAXI@Z 00426780 f i sinecosshaker.obj
 0001:00025780       ??_EICameraShaker@@UAEPAXI@Z 00426780 f i sinecosshaker.obj
 0001:000257a0       ?Reset@SineCosShaker@@UAEXXZ 004267a0 f i sinecosshaker.obj
 0001:000257b0       ?SetTime@SineCosShaker@@UAEXI@Z 004267b0 f i sinecosshaker.obj
 0001:000257b0       ?SetHitnRunValue@HitnRunManager@@QAEXM@Z 004267b0 f i hitnrunmanager.obj
 0001:000257c0       ?SetVisibility@tParticleSystem@@UAEX_N@Z 004267c0 f i pure3dwr:particlesystem.obj
 0001:000257c0       ?SetCameraRelative@SineCosShaker@@UAEX_N@Z 004267c0 f i sinecosshaker.obj
 0001:000257d0       ?SetDirection@SineCosShaker@@UAEXABVVector@RadicalMathLibrary@@@Z 004267d0 f i sinecosshaker.obj
 0001:000257f0       ?SetLooping@SineCosShaker@@UAEX_N@Z 004267f0 f i sinecosshaker.obj
 0001:00025800       ?DoneShaking@SineCosShaker@@UAE_NXZ 00426800 f i sinecosshaker.obj
 0001:00025810       ?GetName@SineCosShaker@@UAEQBDXZ 00426810 f i sinecosshaker.obj
 0001:00025820       ??0SineCosShaker@@QAE@XZ   00426820 f   sinecosshaker.obj
 0001:00025870       ??_ESineCosShaker@@UAEPAXI@Z 00426870 f i sinecosshaker.obj
 0001:00025870       ??_GSineCosShaker@@UAEPAXI@Z 00426870 f i sinecosshaker.obj
 0001:00025890       ??1SineCosShaker@@UAE@XZ   00426890 f   sinecosshaker.obj
 0001:000258f0       ?ShakeCamera@SineCosShaker@@UAEXPAVVector@RadicalMathLibrary@@0I@Z 004268f0 f   sinecosshaker.obj
 0001:000259f0       ?SetShakeData@SineCosShaker@@UAEXPBUShakeEventData@@@Z 004269f0 f   sinecosshaker.obj
 0001:00025a20       ?safe_cast@?$SafeCast@VtVectorCamera@@@radLoadInventory@@UAEPAUIRefCount@@PAU3@@Z 00426a20 f i snapshotcam.obj
 0001:00025a40       ?DoWrecklessZoom@SuperCam@@IAEXMMMMMAAM0MM@Z 00426a40 f i staticcam.obj
 0001:00025af0       ?GetName@StaticCam@@UBEQBDXZ 00426af0 f i staticcam.obj
 0001:00025b00       ??0StaticCam@@QAE@XZ       00426b00 f   staticcam.obj
 0001:00025b80       ??_GStaticCam@@UAEPAXI@Z   00426b80 f i staticcam.obj
 0001:00025b80       ??_EStaticCam@@UAEPAXI@Z   00426b80 f i staticcam.obj
 0001:00025ba0       ??1StaticCam@@UAE@XZ       00426ba0 f   staticcam.obj
 0001:00025bb0       ?Update@StaticCam@@UAEXI@Z 00426bb0 f   staticcam.obj
 0001:00025fb0       ?GetTargetSpeedModifier@StaticCam@@MAEMXZ 00426fb0 f   staticcam.obj
 0001:00025fb0       ?GetTargetSpeedModifier@RailCam@@MAEMXZ 00426fb0 f   railcam.obj
 0001:00026060       ??0SuperCam@@QAE@XZ        00427060 f   supercam.obj
 0001:000261d0       ??_ESuperCam@@UAEPAXI@Z    004271d0 f i supercam.obj
 0001:000261d0       ??_GSuperCam@@UAEPAXI@Z    004271d0 f i supercam.obj
 0001:000261f0       ??1SuperCam@@UAE@XZ        004271f0 f   supercam.obj
 0001:000262a0       ?UnregisterDebugControls@SuperCam@@QAEXXZ 004272a0 f   supercam.obj
 0001:000262b0       ?GetPosition@SuperCam@@QBEXPAVVector@RadicalMathLibrary@@@Z 004272b0 f   supercam.obj
 0001:00026310       ?GetTarget@SuperCam@@QBEXPAVVector@RadicalMathLibrary@@@Z 00427310 f   supercam.obj
 0001:00026370       ?GetHeading@SuperCam@@QBEXPAVVector@RadicalMathLibrary@@@Z 00427370 f   supercam.obj
 0001:00026430       ?GetHeadingNormalized@SuperCam@@QAEXPAVVector@RadicalMathLibrary@@@Z 00427430 f   supercam.obj
 0001:00026480       ?GetCameraUp@SuperCam@@QBEXPAVVector@RadicalMathLibrary@@@Z 00427480 f   supercam.obj
 0001:000264b0       ?SetFOV@SuperCam@@QAEXM@Z  004274b0 f   supercam.obj
 0001:00026500       ?GetFOV@SuperCam@@QBEMXZ   00427500 f   supercam.obj
 0001:00026520       ?SetCameraValues@SuperCam@@IAEXIVVector@RadicalMathLibrary@@0PBV23@@Z 00427520 f   supercam.obj
 0001:00026920       ?OverrideFOV@SuperCam@@IAEX_NMM@Z 00427920 f   supercam.obj
 0001:000269e0       ?DisableOverride@SuperCam@@IAEXXZ 004279e0 f   supercam.obj
 0001:00026a30       ?SetFOVOverride@SuperCam@@IAEXM@Z 00427a30 f   supercam.obj
 0001:00026a70       ?SetCamera@SuperCam@@IAEXPAVtPointCamera@@@Z 00427a70 f   supercam.obj
 0001:00026a90       ?ClampAngle@SuperCam@@IBEHPAM@Z 00427a90 f   supercam.obj
 0001:00026b00       ?AdjustAngles@SuperCam@@IBEXPAM00@Z 00427b00 f   supercam.obj
 0001:00026b70       ?Shutdown@SuperCam@@IAEXXZ 00427b70 f   supercam.obj
 0001:00026b90       ?CorrectDist@SuperCam@@IAEXABVVector@RadicalMathLibrary@@AAV23@@Z 00427b90 f   supercam.obj
 0001:00026c10       ?InitMyController@SuperCam@@IAEXH@Z 00427c10 f   supercam.obj
 0001:00026cd0       ?ShutDownMyController@SuperCam@@IAEXXZ 00427cd0 f   supercam.obj
 0001:00026d20       ?GetBreakable@CollisionAttributes@@QAE?AW4BreakableID@BreakablesEnum@@XZ 00427d20 f   collisionentitydsg.obj
 0001:00026d20       ?GetCameraNonConst@SuperCam@@IAEPAVtPointCamera@@XZ 00427d20 f   supercam.obj
 0001:00026d30       ?SphericalMotion@SuperCam@@IBEXABVVector@RadicalMathLibrary@@AAV23@01M@Z 00427d30 f   supercam.obj
 0001:00026e70       ?UpdateVUP@SuperCam@@IAE?AVVector@RadicalMathLibrary@@V23@0@Z 00427e70 f   supercam.obj
 0001:00026f50       ?EaseMotion@SuperCam@@IAEMMMM@Z 00427f50 f   supercam.obj
 0001:00027010       ?DoCameraTransition@SuperCam@@UAEX_NI@Z 00428010 f   supercam.obj
 0001:00027070       ?SetupShake@SuperCam@@AAEXXZ 00428070 f   supercam.obj
 0001:000270f0       ?EndShake@SuperCam@@AAEXXZ 004280f0 f   supercam.obj
 0001:00027150       ?SetupTransition@SuperCam@@AAEX_N@Z 00428150 f   supercam.obj
 0001:00027230       ?EndTransition@SuperCam@@IAEX_N@Z 00428230 f   supercam.obj
 0001:000272d0       ?TransitionCamera@SuperCam@@AAEXMPAVVector@RadicalMathLibrary@@0PAMI_N@Z 004282d0 f   supercam.obj
 0001:00027500       ?TransitionFOV@SuperCam@@AAEXMPAMI@Z 00428500 f   supercam.obj
 0001:00027590       ?EaseIn@SuperCam@@AAEXMPAVVector@RadicalMathLibrary@@0I@Z 00428590 f   supercam.obj
 0001:00027600       ?SetCameraShakerData@SuperCam@@IAEXPBUShakeEventData@@@Z 00428600 f   supercam.obj
 0001:00027620       ??0FollowCamDataChunk@@QAE@XZ 00428620 f i supercamcentral.obj
 0001:00027640       ??1FollowCamDataChunk@@UAE@XZ 00428640 f i supercamcentral.obj
 0001:000276a0       ??_GFollowCamDataChunk@@UAEPAXI@Z 004286a0 f i supercamcentral.obj
 0001:000276a0       ??_EFollowCamDataChunk@@UAEPAXI@Z 004286a0 f i supercamcentral.obj
 0001:000276c0       ??0SuperCamCentral@@QAE@XZ 004286c0 f   supercamcentral.obj
 0001:00027860       ??_ESuperCamCentral@@UAEPAXI@Z 00428860 f i supercamcentral.obj
 0001:00027860       ??_GSuperCamCentral@@UAEPAXI@Z 00428860 f i supercamcentral.obj
 0001:00027880       ??1SuperCamCentral@@UAE@XZ 00428880 f   supercamcentral.obj
 0001:00027910       ?Init@SuperCamCentral@@QAEX_N@Z 00428910 f   supercamcentral.obj
 0001:00027d80       ?IsInit@SuperCamCentral@@QBE_NXZ 00428d80 f   supercamcentral.obj
 0001:00027d90       ?UpdateCameraCollisionSpherePosition@SuperCamCentral@@AAEXAAVVector@RadicalMathLibrary@@@Z 00428d90 f   supercamcentral.obj
 0001:00027dd0       ?UpdateCameraCollisionSphereRadius@SuperCamCentral@@AAEXM@Z 00428dd0 f   supercamcentral.obj
 0001:00027de0       ?Update@SuperCamCentral@@QAEXI_N@Z 00428de0 f   supercamcentral.obj
 0001:00028190       ?PreCollisionPrep@SuperCamCentral@@QAEXXZ 00429190 f   supercamcentral.obj
 0001:00028290       ?AddCameraCollisionOffset@SuperCamCentral@@QAEXAAVVector@RadicalMathLibrary@@@Z 00429290 f   supercamcentral.obj
 0001:000283a0       ?RegisterSuperCam@SuperCamCentral@@QAEIPAVSuperCam@@@Z 004293a0 f   supercamcentral.obj
 0001:00028410       ?UnregisterSuperCam@SuperCamCentral@@QAEXPAVSuperCam@@@Z 00429410 f   supercamcentral.obj
 0001:000284f0       ?UnregisterSuperCam@SuperCamCentral@@QAEXI@Z 004294f0 f   supercamcentral.obj
 0001:00028500       ?GetActiveSuperCamIndex@SuperCamCentral@@QBEIXZ 00429500 f   supercamcentral.obj
 0001:00028500       ?GetMissionTimeLeftInMilliSeconds@Mission@@QAEHXZ 00429500 f   mission.obj
 0001:00028510       ?GetSuperCam@SuperCamCentral@@QBEPAVSuperCam@@W4Type@2@@Z 00429510 f   supercamcentral.obj
 0001:00028550       ?ToggleSuperCam@SuperCamCentral@@QAE_N_N0@Z 00429550 f   supercamcentral.obj
 0001:00028620       ?SelectSuperCam@SuperCamCentral@@QAEXIHI@Z 00429620 f   supercamcentral.obj
 0001:000287f0       ?SelectSuperCam@SuperCamCentral@@QAEXW4Type@SuperCam@@HI@Z 004297f0 f   supercamcentral.obj
 0001:000288e0       ?SelectSuperCam@SuperCamCentral@@QAEXPAVSuperCam@@HI@Z 004298e0 f   supercamcentral.obj
 0001:00028920       ?SetCamera@SuperCamCentral@@QAEXPAVtPointCamera@@@Z 00429920 f   supercamcentral.obj
 0001:00028970       ?SetTarget@SuperCamCentral@@QAEXPAVISuperCamTarget@@@Z 00429970 f   supercamcentral.obj
 0001:000289d0       ?AddTarget@SuperCamCentral@@QAEXPAVISuperCamTarget@@@Z 004299d0 f   supercamcentral.obj
 0001:00028a00       ?SetActiveSuperCam@SuperCamCentral@@AAEXIHI@Z 00429a00 f   supercamcentral.obj
 0001:00028ba0       ?SubmitStatics@SuperCamCentral@@QAEXXZ 00429ba0 f   supercamcentral.obj
 0001:00028cc0       ?UpdateForPhysics@SuperCamCentral@@QAEXI@Z 00429cc0 f   supercamcentral.obj
 0001:00028d00       ?AllowCameraToggle@SuperCamCentral@@QAE_NXZ 00429d00 f   supercamcentral.obj
 0001:00028d30       ?AllowAutoCameraChange@SuperCamCentral@@QAE_NXZ 00429d30 f   supercamcentral.obj
 0001:00028d80       ?RegisterFOVLocator@SuperCamCentral@@QAEXPAVFOVLocator@@@Z 00429d80 f   supercamcentral.obj
 0001:00028dc0       ?UnregisterFOVLocator@SuperCamCentral@@QAEXXZ 00429dc0 f   supercamcentral.obj
 0001:00028e00       ?NoTransition@SuperCamCentral@@QAEXXZ 00429e00 f   supercamcentral.obj
 0001:00028e30       ?HandleEvent@SuperCamCentral@@UAEXW4EventEnum@@PAX@Z 00429e30 f   supercamcentral.obj
 0001:00028f40       ?IsCutCam@SuperCamCentral@@QAE_NXZ 00429f40 f   supercamcentral.obj
 0001:00028f70       ?LoadData@SuperCamCentral@@UAEXPBEI@Z 00429f70 f   supercamcentral.obj
 0001:00028fd0       ?SaveData@SuperCamCentral@@UAEXPAEI@Z 00429fd0 f   supercamcentral.obj
 0001:00029000       ?ResetData@SuperCamCentral@@UAEXXZ 0042a000 f   supercamcentral.obj
 0001:00029020       ?IsLegalType@SuperCamCentral@@QAE_NW4Type@SuperCam@@@Z 0042a020 f   supercamcentral.obj
 0001:00029130       ?GetNewFollowCamDataChunk@SuperCamCentral@@SAAAVFollowCamDataChunk@@XZ 0042a130 f   supercamcentral.obj
 0001:00029160       ?FindFCD@SuperCamCentral@@SAPAVFollowCamDataChunk@@I@Z 0042a160 f   supercamcentral.obj
 0001:00029190       ??0SuperCamController@@QAE@XZ 0042a190 f   supercamcontroller.obj
 0001:000291b0       ??_ESuperCamController@@UAEPAXI@Z 0042a1b0 f i supercamcontroller.obj
 0001:000291b0       ??_GSuperCamController@@UAEPAXI@Z 0042a1b0 f i supercamcontroller.obj
 0001:000291d0       ??1SuperCamController@@UAE@XZ 0042a1d0 f   supercamcontroller.obj
 0001:000291e0       ?LoadControllerMappings@SuperCamController@@UAEXI@Z 0042a1e0 f   supercamcontroller.obj
 0001:000292e0       ?OnButtonDown@SuperCamController@@UAEXHHPBVButton@@@Z 0042a2e0 f   supercamcontroller.obj
 0001:00029310       ?CreateInstance@SuperCamManager@@SAPAV1@XZ 0042a310 f   supercammanager.obj
 0001:00029380       ?GetInstance@SuperCamManager@@SAPAV1@XZ 0042a380 f   supercammanager.obj
 0001:00029390       ?DestroyInstance@SuperCamManager@@SAXXZ 0042a390 f   supercammanager.obj
 0001:000293b0       ?Init@SuperCamManager@@QAEX_N@Z 0042a3b0 f   supercammanager.obj
 0001:000293e0       ?GetSCC@SuperCamManager@@QAEPAVSuperCamCentral@@H@Z 0042a3e0 f   supercammanager.obj
 0001:00029400       ?PreCollisionPrep@SuperCamManager@@QAEXXZ 0042a400 f   supercammanager.obj
 0001:00029410       ?Update@SuperCamManager@@QAEXI_N@Z 0042a410 f   supercammanager.obj
 0001:00029420       ?SubmitStatics@SuperCamManager@@QAEXXZ 0042a420 f   supercammanager.obj
 0001:00029430       ?ToggleFirstPerson@SuperCamManager@@QAEXH@Z 0042a430 f   supercammanager.obj
 0001:00029460       ??0SuperCamManager@@AAE@XZ 0042a460 f   supercammanager.obj
 0001:00029480       ??1SuperCamManager@@AAE@XZ 0042a480 f   supercammanager.obj
 0001:000294a0       ?GetName@SuperSprintCam@@UBEQBDXZ 0042a4a0 f i supersprintcam.obj
 0001:000294b0       ?GetType@SuperSprintCam@@UAE?AW4Type@SuperCam@@XZ 0042a4b0 f i supersprintcam.obj
 0001:000294c0       ??0SuperSprintCam@@QAE@XZ  0042a4c0 f   supersprintcam.obj
 0001:00029510       ??_GSuperSprintCam@@UAEPAXI@Z 0042a510 f i supersprintcam.obj
 0001:00029510       ??_ESuperSprintCam@@UAEPAXI@Z 0042a510 f i supersprintcam.obj
 0001:00029530       ??1SuperSprintCam@@UAE@XZ  0042a530 f   supersprintcam.obj
 0001:00029540       ?Update@SuperSprintCam@@UAEXI@Z 0042a540 f   supersprintcam.obj
 0001:000296c0       ?OnRegisterDebugControls@SuperSprintCam@@MAEXXZ 0042a6c0 f   supersprintcam.obj
 0001:000296d0       ?OnUnregisterDebugControls@SuperSprintCam@@MAEXXZ 0042a6d0 f   supersprintcam.obj
 0001:000296e0       ?find@?$@VtVectorCamera@@@p3d@@YAPAVtVectorCamera@@PAVtEntityStore@@PBD@Z 0042a6e0 f i supersprintcam.obj
 0001:00029750       ?find@?$@VtVectorCamera@@@p3d@@YAPAVtVectorCamera@@PAVtEntityStore@@ABVtName@@@Z 0042a750 f i supersprintcam.obj
 0001:00029820       ??_GTrackerCamData@@UAEPAXI@Z 0042a820 f i trackercam.obj
 0001:00029820       ??_ETrackerCamData@@UAEPAXI@Z 0042a820 f i trackercam.obj
 0001:00029840       ?GetName@TrackerCam@@UBEQBDXZ 0042a840 f i trackercam.obj
 0001:00029850       ??0TrackerCam@@QAE@XZ      0042a850 f   trackercam.obj
 0001:000298a0       ??_GTrackerCam@@UAEPAXI@Z  0042a8a0 f i trackercam.obj
 0001:000298a0       ??_ETrackerCam@@UAEPAXI@Z  0042a8a0 f i trackercam.obj
 0001:000298c0       ??1TrackerCam@@UAE@XZ      0042a8c0 f   trackercam.obj
 0001:000298e0       ?Update@TrackerCam@@UAEXI@Z 0042a8e0 f   trackercam.obj
 0001:00029c00       ??_GWalkerCamData@@UAEPAXI@Z 0042ac00 f i walkercam.obj
 0001:00029c00       ??_EWalkerCamData@@UAEPAXI@Z 0042ac00 f i walkercam.obj
 0001:00029c20       ??0WalkerCamData@@QAE@XZ   0042ac20 f i walkercam.obj
 0001:00029cb0       ?GetCollisionRadius@WalkerCam@@UBEMXZ 0042acb0 f i walkercam.obj
 0001:00029cb0       ?GetCollisionRadius@BumperCam@@UBEMXZ 0042acb0 f i bumpercam.obj
 0001:00029cc0       ?GetIntersectionRadius@WalkerCam@@UBEMXZ 0042acc0 f i walkercam.obj
 0001:00029cd0       ?OnInit@ReverseCam@@MAEXXZ 0042acd0 f i reversecam.obj
 0001:00029cd0       ?OnInit@WalkerCam@@MAEXXZ  0042acd0 f i walkercam.obj
 0001:00029cd0       ?OnInit@PCCam@@MAEXXZ      0042acd0 f i pccam.obj
 0001:00029cd0       ?OnInit@StaticCam@@MAEXXZ  0042acd0 f i staticcam.obj
 0001:00029ce0       ?GetName@WalkerCam@@UBEQBDXZ 0042ace0 f i walkercam.obj
 0001:00029cf0       ?SetCollisionOffset@WalkerCam@@UAEXPBVVector@RadicalMathLibrary@@IABV23@@Z 0042acf0 f i walkercam.obj
 0001:00029d30       ??0WalkerCam@@QAE@XZ       0042ad30 f   walkercam.obj
 0001:00029e10       ??_GWalkerCam@@UAEPAXI@Z   0042ae10 f i walkercam.obj
 0001:00029e10       ??_EWalkerCam@@UAEPAXI@Z   0042ae10 f i walkercam.obj
 0001:00029e30       ??1WalkerCam@@UAE@XZ       0042ae30 f   walkercam.obj
 0001:00029e50       ?Update@WalkerCam@@UAEXI@Z 0042ae50 f   walkercam.obj
 0001:0002a2a0       ?UpdateForPhysics@WalkerCam@@UAEXI@Z 0042b2a0 f   walkercam.obj
 0001:0002a6a0       ?SetTarget@WalkerCam@@UAEXPAVISuperCamTarget@@@Z 0042b6a0 f   walkercam.obj
 0001:0002a850       ?UpdatePositionNormal@WalkerCam@@AAEXIM@Z 0042b850 f   walkercam.obj
 0001:0002b450       ?UpdatePositionInCollision@WalkerCam@@AAEXIM@Z 0042c450 f   walkercam.obj
 0001:0002b4e0       ?UpdatePositionOneCollsion@WalkerCam@@AAE_NIMI@Z 0042c4e0 f   walkercam.obj
 0001:0002b5c0       ?UpdatePositionMultipleCollision@WalkerCam@@AAEXIM@Z 0042c5c0 f   walkercam.obj
 0001:0002ba10       ?IsPushingStick@WalkerCam@@AAE_NXZ 0042ca10 f   walkercam.obj
 0001:0002baf0       ?IsStickStill@WalkerCam@@AAE_NXZ 0042caf0 f   walkercam.obj
 0001:0002bb50       ?GetTargetPosition@WalkerCam@@ABEXPAVVector@RadicalMathLibrary@@_N@Z 0042cb50 f   walkercam.obj
 0001:0002bbb0       ?IsTargetNearPed@WalkerCam@@AAEMI@Z 0042cbb0 f   walkercam.obj
 0001:0002be30       ??1?$Iterator@VEventLocator@@@tInventory@@QAE@XZ 0042ce30 f i wrecklesscam.obj
 0001:0002be30       ??1?$Iterator@VtEntity@@@tInventory@@QAE@XZ 0042ce30 f i guiscreenmissionbase.obj
 0001:0002be30       ??1?$Iterator@VWalkerCamDataChunk@@@tInventory@@QAE@XZ 0042ce30 f i walkercam.obj
 0001:0002be30       ??1?$Iterator@VLocator@@@tInventory@@QAE@XZ 0042ce30 f i missionmanager.obj
 0001:0002be60       ?Next@?$Iterator@VWalkerCamDataChunk@@@tInventory@@QAEPAVWalkerCamDataChunk@@XZ 0042ce60 f i walkercam.obj
 0001:0002bea0       ?GetName@WrecklessCam@@UBEQBDXZ 0042cea0 f i wrecklesscam.obj
 0001:0002beb0       ??0WrecklessCam@@QAE@XZ    0042ceb0 f   wrecklesscam.obj
 0001:0002bf30       ??_EWrecklessCam@@UAEPAXI@Z 0042cf30 f i wrecklesscam.obj
 0001:0002bf30       ??_GWrecklessCam@@UAEPAXI@Z 0042cf30 f i wrecklesscam.obj
 0001:0002bf50       ??1WrecklessCam@@UAE@XZ    0042cf50 f   wrecklesscam.obj
 0001:0002bf70       ?Update@WrecklessCam@@UAEXI@Z 0042cf70 f   wrecklesscam.obj
 0001:0002c100       ?SetTarget@WrecklessCam@@UAEXPAVISuperCamTarget@@@Z 0042d100 f   wrecklesscam.obj
 0001:0002c160       ?AddTarget@WrecklessCam@@UAEXPAVISuperCamTarget@@@Z 0042d160 f   wrecklesscam.obj
 0001:0002c160       ?AddTarget@FollowCam@@UAEXPAVISuperCamTarget@@@Z 0042d160 f   followcam.obj
 0001:0002c180       ?OnInit@WrecklessCam@@MAEXXZ 0042d180 f   wrecklesscam.obj
 0001:0002c360       ?OnShutdown@WrecklessCam@@MAEXXZ 0042d360 f   wrecklesscam.obj
 0001:0002c4e0       ?Next@?$Iterator@VEventLocator@@@tInventory@@QAEPAVEventLocator@@XZ 0042d4e0 f i wrecklesscam.obj
 0001:0002c520       ??0WrecklessEventListener@@QAE@XZ 0042d520 f   wrecklesseventlistener.obj
 0001:0002c540       ??_EWrecklessEventListener@@UAEPAXI@Z 0042d540 f i wrecklesseventlistener.obj
 0001:0002c540       ??_GWrecklessEventListener@@UAEPAXI@Z 0042d540 f i wrecklesseventlistener.obj
 0001:0002c560       ??1WrecklessEventListener@@UAE@XZ 0042d560 f   wrecklesseventlistener.obj
 0001:0002c570       ?HandleEvent@WrecklessEventListener@@UAEXW4EventEnum@@PAX@Z 0042d570 f   wrecklesseventlistener.obj
 0001:0002c5b0       ??0BonusCard@@QAE@IIIVtUidUnaligned@@PBW4eQuoteID@@H@Z 0042d5b0 f   bonuscard.obj
 0001:0002c5f0       ??_GBonusCard@@UAEPAXI@Z   0042d5f0 f i bonuscard.obj
 0001:0002c5f0       ??_EBonusCard@@UAEPAXI@Z   0042d5f0 f i bonuscard.obj
 0001:0002c610       ??1BonusCard@@UAE@XZ       0042d610 f   bonuscard.obj
 0001:0002c620       ??0Card@@QAE@IIIVtUidUnaligned@@PBW4eQuoteID@@H@Z 0042d620 f   card.obj
 0001:0002c670       ??_ECard@@UAEPAXI@Z        0042d670 f i card.obj
 0001:0002c670       ??_GCard@@UAEPAXI@Z        0042d670 f i card.obj
 0001:0002c690       ??1Card@@UAE@XZ            0042d690 f   card.obj
 0001:0002c6a0       ?GetQuoteID@Card@@QBE?AW4eQuoteID@@H@Z 0042d6a0 f   card.obj
 0001:0002c6b0       ?ResetData@CardGallery@@UAEXXZ 0042d6b0 f i cardgallery.obj
 0001:0002c6c0       ??0CardList@@QAE@XZ        0042d6c0 f   cardgallery.obj
 0001:0002c6e0       ?Add@CardList@@QAEXPAVCard@@@Z 0042d6e0 f   cardgallery.obj
 0001:0002c700       ?Empty@CardList@@QAEXXZ    0042d700 f   cardgallery.obj
 0001:0002c720       ?CreateInstance@CardGallery@@SAPAV1@XZ 0042d720 f   cardgallery.obj
 0001:0002c7b0       ?DestroyInstance@CardGallery@@SAXXZ 0042d7b0 f   cardgallery.obj
 0001:0002c7d0       ?GetInstance@CardGallery@@SAPAV1@XZ 0042d7d0 f   cardgallery.obj
 0001:0002c7e0       ??0CardGallery@@QAE@XZ     0042d7e0 f   cardgallery.obj
 0001:0002c8a0       ??_ECardGallery@@UAEPAXI@Z 0042d8a0 f i cardgallery.obj
 0001:0002c8a0       ??_GCardGallery@@UAEPAXI@Z 0042d8a0 f i cardgallery.obj
 0001:0002c8c0       ??1CardGallery@@UAE@XZ     0042d8c0 f   cardgallery.obj
 0001:0002c900       ?Init@CardGallery@@QAEXXZ  0042d900 f   cardgallery.obj
 0001:0002c940       ?AddCollectedCardByID@CardGallery@@QAEPAVCard@@I@Z 0042d940 f   cardgallery.obj
 0001:0002c960       ?AddCollectedCardByName@CardGallery@@QAEPAVCard@@VtUidUnaligned@@@Z 0042d960 f   cardgallery.obj
 0001:0002c990       ?AddAllCollectedCards@CardGallery@@QAEXXZ 0042d990 f   cardgallery.obj
 0001:0002c9c0       ?RemoveAllCollectedCards@CardGallery@@QAEXXZ 0042d9c0 f   cardgallery.obj
 0001:0002c9f0       ?GetCollectedCards@CardGallery@@QBEPBUCardList@@I@Z 0042d9f0 f   cardgallery.obj
 0001:0002ca00       ?IsCardCollected@CardGallery@@QBE_NVtUidUnaligned@@@Z 0042da00 f   cardgallery.obj
 0001:0002ca40       ?GetNumCardDecksCompleted@CardGallery@@QBEHXZ 0042da40 f   cardgallery.obj
 0001:0002ca60       ?IsCardDeckComplete@CardGallery@@QBE_NI@Z 0042da60 f   cardgallery.obj
 0001:0002ca80       ?LoadData@CardGallery@@UAEXPBEI@Z 0042da80 f   cardgallery.obj
 0001:0002cad0       ?SaveData@CardGallery@@UAEXPAEI@Z 0042dad0 f   cardgallery.obj
 0001:0002cbf0       ?OnCheatEntered@CardGallery@@UAEXW4eCheatID@@_N@Z 0042dbf0 f   cardgallery.obj
 0001:0002cc10       ?AddCollectedCard@CardGallery@@AAEXPAVCard@@@Z 0042dc10 f   cardgallery.obj
 0001:0002cc30       ??0CardsDB@@QAE@XZ         0042dc30 f   cardsdb.obj
 0001:0002cca0       ??_ECardsDB@@UAEPAXI@Z     0042dca0 f i cardsdb.obj
 0001:0002cca0       ??_GCardsDB@@UAEPAXI@Z     0042dca0 f i cardsdb.obj
 0001:0002ccc0       ??1CardsDB@@UAE@XZ         0042dcc0 f   cardsdb.obj
 0001:0002cd10       ?LoadCards@CardsDB@@QAEXXZ 0042dd10 f   cardsdb.obj
 0001:0002ce50       ?GetCardByID@CardsDB@@QAEPAVCard@@I@Z 0042de50 f   cardsdb.obj
 0001:0002ce50       ?GetSimState@GroundPlanePool@@QAEPAVManualSimState@sim@@H@Z 0042de50 f   groundplanepool.obj
 0001:0002ce50       ?GetCheatID@CheatsDB@@QBE?AW4eCheatID@@I@Z 0042de50 f   cheats.obj
 0001:0002ce60       ?GetCardByName@CardsDB@@QAEPAVCard@@VtUidUnaligned@@@Z 0042de60 f   cardsdb.obj
 0001:0002cec0       ??0CollectorCard@@QAE@IIIVtUidUnaligned@@PBW4eQuoteID@@H@Z 0042dec0 f   collectorcard.obj
 0001:0002cf00       ??_GCollectorCard@@UAEPAXI@Z 0042df00 f i collectorcard.obj
 0001:0002cf00       ??_ECollectorCard@@UAEPAXI@Z 0042df00 f i collectorcard.obj
 0001:0002cf20       ??1CollectorCard@@UAE@XZ   0042df20 f   collectorcard.obj
 0001:0002cf30       ??0out_of_range@std@@QAE@ABV01@@Z 0042df30 f i console.obj
 0001:0002cf50       ??3FunctionTableEntry@Console@@SAXPAXI@Z 0042df50 f i console.obj
 0001:0002cf70       ?CreateInstance@Console@@SAPAV1@XZ 0042df70 f   console.obj
 0001:0002cff0       ?GetInstance@Console@@SAPAV1@XZ 0042dff0 f   console.obj
 0001:0002d000       ?DestroyInstance@Console@@SAXXZ 0042e000 f   console.obj
 0001:0002d030       ??0Console@@AAE@XZ         0042e030 f   console.obj
 0001:0002d150       ??1?$map@IHU?$less@I@std@@V?$allocator@U?$pair@$$CBIH@std@@@2@@std@@QAE@XZ 0042e150 f i console.obj
 0001:0002d180       ??1Console@@AAE@XZ         0042e180 f   console.obj
 0001:0002d2f0       ?FlushLogFile@Console@@AAEXXZ 0042e2f0 f   console.obj
 0001:0002d350       ?AddFunction@Console@@QAE_NPBDP6AXHPAPAD@Z0HH@Z 0042e350 f   console.obj
 0001:0002d380       ?AddFunc@Console@@AAE_NPBDP6AXHPAPAD@ZP6A_NH1@Z0HH@Z 0042e380 f   console.obj
 0001:0002d520       ?SkipWhiteSpace@Console@@AAEPADPBD@Z 0042e520 f   console.obj
 0001:0002d560       ?FoundComment@Console@@AAE_NPAPAD@Z 0042e560 f   console.obj
 0001:0002d5d0       ?FindTokenEnd@Console@@AAEPADPBD@Z 0042e5d0 f   console.obj
 0001:0002d620       ?ReadToken@Console@@AAE_NPAPADPBD@Z 0042e620 f   console.obj
 0001:0002d6a0       ?GetNextToken@Console@@AAEPADPAPADPAD@Z 0042e6a0 f   console.obj
 0001:0002d7d0       ?Evaluate@Console@@QAE_NPBD0@Z 0042e7d0 f   console.obj
 0001:0002dcd0       ?ExecuteScript@Console@@QAEXPBDPAUExecuteScriptCallback@1@PAX_N@Z 0042ecd0 f   console.obj
 0001:0002dd10       ?OnProcessRequestsComplete@Console@@UAEXPAX@Z 0042ed10 f   console.obj
 0001:0002dd20       ??0FunctionTableEntry@Console@@QAE@PBDP6AXHPAPAD@Z0HH@Z 0042ed20 f   console.obj
 0001:0002ddd0       ??0FunctionTableEntry@Console@@QAE@PBDP6A_NHPAPAD@Z0HH@Z 0042edd0 f   console.obj
 0001:0002de80       ??A?$map@IHU?$less@I@std@@V?$allocator@U?$pair@$$CBIH@std@@@2@@std@@QAEAAHABI@Z 0042ee80 f i console.obj
 0001:0002deb0       ?find@?$_Tree@V?$_Tmap_traits@IHU?$less@I@std@@V?$allocator@U?$pair@$$CBIH@std@@@2@$0A@@std@@@std@@QAE?AViterator@12@ABI@Z 0042eeb0 f i console.obj
 0001:0002df10       ?insert@?$_Tree@V?$_Tmap_traits@IHU?$less@I@std@@V?$allocator@U?$pair@$$CBIH@std@@@2@$0A@@std@@@std@@QAE?AU?$pair@Viterator@?$_Tree@V?$_Tmap_traits@IHU?$less@I@std@@V?$allocator@U?$pair@$$CBIH@std@@@2@$0A@@std@@@std@@_N@2@ABU?$pair@$$CBIH@2@@Z 0042ef10 f i console.obj
 0001:0002dfd0       ?erase@?$_Tree@V?$_Tmap_traits@IHU?$less@I@std@@V?$allocator@U?$pair@$$CBIH@std@@@2@$0A@@std@@@std@@QAE?AViterator@12@V312@0@Z 0042efd0 f i console.obj
 0001:0002e050       ?_Insert@?$_Tree@V?$_Tmap_traits@IHU?$less@I@std@@V?$allocator@U?$pair@$$CBIH@std@@@2@$0A@@std@@@std@@IAE?AViterator@12@_NPAU_Node@?$_Tree_nod@V?$_Tmap_traits@IHU?$less@I@std@@V?$allocator@U?$pair@$$CBIH@std@@@2@$0A@@std@@@2@ABU?$pair@$$CBIH@2@@Z 0042f050 f i console.obj
 0001:0002e220       ?_Buynode@?$_Tree@V?$_Tmap_traits@IHU?$less@I@std@@V?$allocator@U?$pair@$$CBIH@std@@@2@$0A@@std@@@std@@IAEPAU_Node@?$_Tree_nod@V?$_Tmap_traits@IHU?$less@I@std@@V?$allocator@U?$pair@$$CBIH@std@@@2@$0A@@std@@@2@PAU342@00ABU?$pair@$$CBIH@2@D@Z 0042f220 f i console.obj
 0001:0002e260       ?_Dec@const_iterator@?$_Tree@V?$_Tmap_traits@IHU?$less@I@std@@V?$allocator@U?$pair@$$CBIH@std@@@2@$0A@@std@@@std@@QAEXXZ 0042f260 f i console.obj
 0001:0002e2c0       ?_Erase@?$_Tree@V?$_Tmap_traits@IHU?$less@I@std@@V?$allocator@U?$pair@$$CBIH@std@@@2@$0A@@std@@@std@@IAEXPAU_Node@?$_Tree_nod@V?$_Tmap_traits@IHU?$less@I@std@@V?$allocator@U?$pair@$$CBIH@std@@@2@$0A@@std@@@2@@Z 0042f2c0 f i console.obj
 0001:0002e300       ?_Inc@const_iterator@?$_Tree@V?$_Tmap_traits@IHU?$less@I@std@@V?$allocator@U?$pair@$$CBIH@std@@@2@$0A@@std@@@std@@QAEXXZ 0042f300 f i console.obj
 0001:0002e300       ?_Inc@const_iterator@?$_Tree@V?$_Tmap_traits@PBXIU?$less@PBX@std@@V?$s2alloc@U?$pair@QBXI@std@@@@$0A@@std@@@std@@QAEXXZ 0042f300 f i leakdetection.obj
 0001:0002e360       ?radMakeCaseInsensitiveKey32@@YAIPBDI@Z 0042f360 f i console.obj
 0001:0002e390       ?smStricmp@@YAHPBD0@Z      0042f390 f   fbstricmp.obj
 0001:0002e400       ??0tNameInsensitive@@QAE@XZ 0042f400 f   nameinsensitive.obj
 0001:0002e410       ??4tNameInsensitive@@QAEABV0@PBD@Z 0042f410 f   nameinsensitive.obj
 0001:0002e420       ?SetText@tNameInsensitive@@QAEXPBD@Z 0042f420 f   nameinsensitive.obj
 0001:0002e480       ?Upcase@@YAXPAD@Z          0042f480 f   upcase.obj
 0001:0002e4c0       ?GetInstance@BootupContext@@SAPAV1@XZ 0042f4c0 f   bootupcontext.obj
 0001:0002e540       ?StartMovies@BootupContext@@QAEXXZ 0042f540 f   bootupcontext.obj
 0001:0002e780       ?StartLoadingSound@BootupContext@@QAEXXZ 0042f780 f   bootupcontext.obj
 0001:0002e7c0       ?LoadConfig@BootupContext@@QAEXXZ 0042f7c0 f   bootupcontext.obj
 0001:0002e7f0       ?OnStart@BootupContext@@MAEXW4ContextEnum@@@Z 0042f7f0 f   bootupcontext.obj
 0001:0002e9b0       ?OnStop@BootupContext@@MAEXW4ContextEnum@@@Z 0042f9b0 f   bootupcontext.obj
 0001:0002ea10       ?OnUpdate@BootupContext@@MAEXI@Z 0042fa10 f   bootupcontext.obj
 0001:0002ea80       ?OnProcessRequestsComplete@BootupContext@@MAEXPAX@Z 0042fa80 f   bootupcontext.obj
 0001:0002eac0       ?OnPresentationEventEnd@BootupContext@@MAEXPAVPresentationEvent@@@Z 0042fac0 f   bootupcontext.obj
 0001:0002eaf0       ??0BootupContext@@AAE@XZ   0042faf0 f   bootupcontext.obj
 0001:0002eb80       ??_EBootupContext@@EAEPAXI@Z 0042fb80 f i bootupcontext.obj
 0001:0002eb80       ??_GBootupContext@@EAEPAXI@Z 0042fb80 f i bootupcontext.obj
 0001:0002eba0       ??1BootupContext@@EAE@XZ   0042fba0 f   bootupcontext.obj
 0001:0002ec10       ?DestroyInstance@Context@@QAEXXZ 0042fc10 f   context.obj
 0001:0002ec20       ?Start@Context@@QAEXW4ContextEnum@@@Z 0042fc20 f   context.obj
 0001:0002ec30       ?Stop@Context@@QAEXW4ContextEnum@@@Z 0042fc30 f   context.obj
 0001:0002ec40       ?Update@Context@@QAEXI@Z   0042fc40 f   context.obj
 0001:0002ec60       ?Activate@Junction3@GuiSFX@@UAEXXZ 0042fc60 f   transitions.obj
 0001:0002ec60       ?HandleEvent@Context@@UAEXW4EventEnum@@PAX@Z 0042fc60 f   context.obj
 0001:0002ec70       ?Suspend@Context@@QAEXXZ   0042fc70 f   context.obj
 0001:0002ec80       ?Resume@Context@@QAEXXZ    0042fc80 f   context.obj
 0001:0002ec90       ??0Context@@IAE@XZ         0042fc90 f   context.obj
 0001:0002eca0       ??_EContext@@MAEPAXI@Z     0042fca0 f i context.obj
 0001:0002eca0       ??_GContext@@MAEPAXI@Z     0042fca0 f i context.obj
 0001:0002ecc0       ??1Context@@MAE@XZ         0042fcc0 f   context.obj
 0001:0002ecd0       ?GetInstance@EntryContext@@SAPAV1@XZ 0042fcd0 f   entrycontext.obj
 0001:0002ed10       ??0EntryContext@@AAE@XZ    0042fd10 f   entrycontext.obj
 0001:0002ed20       ??_GEntryContext@@EAEPAXI@Z 0042fd20 f i entrycontext.obj
 0001:0002ed20       ??_EEntryContext@@EAEPAXI@Z 0042fd20 f i entrycontext.obj
 0001:0002ed40       ??1EntryContext@@EAE@XZ    0042fd40 f   entrycontext.obj
 0001:0002ed60       ?GetInstance@ExitContext@@SAPAV1@XZ 0042fd60 f   exitcontext.obj
 0001:0002eda0       ?OnStart@ExitContext@@MAEXW4ContextEnum@@@Z 0042fda0 f   exitcontext.obj
 0001:0002ee00       ?OnStop@ExitContext@@MAEXW4ContextEnum@@@Z 0042fe00 f   exitcontext.obj
 0001:0002ee10       ??0ExitContext@@AAE@XZ     0042fe10 f   exitcontext.obj
 0001:0002ee20       ??_EExitContext@@EAEPAXI@Z 0042fe20 f i exitcontext.obj
 0001:0002ee20       ??_GExitContext@@EAEPAXI@Z 0042fe20 f i exitcontext.obj
 0001:0002ee40       ??1ExitContext@@EAE@XZ     0042fe40 f   exitcontext.obj
 0001:0002ee60       ?GetInstance@FrontEndContext@@SAPAV1@XZ 0042fe60 f   frontendcontext.obj
 0001:0002eea0       ??0FrontEndContext@@AAE@XZ 0042fea0 f   frontendcontext.obj
 0001:0002eec0       ??_EFrontEndContext@@EAEPAXI@Z 0042fec0 f i frontendcontext.obj
 0001:0002eec0       ??_GFrontEndContext@@EAEPAXI@Z 0042fec0 f i frontendcontext.obj
 0001:0002eee0       ??1FrontEndContext@@EAE@XZ 0042fee0 f   frontendcontext.obj
 0001:0002ef00       ?OnStart@FrontEndContext@@MAEXW4ContextEnum@@@Z 0042ff00 f   frontendcontext.obj
 0001:0002efd0       ?OnStop@FrontEndContext@@MAEXW4ContextEnum@@@Z 0042ffd0 f   frontendcontext.obj
 0001:0002f030       ?OnUpdate@FrontEndContext@@MAEXI@Z 00430030 f   frontendcontext.obj
 0001:0002f070       ?OnProcessRequestsComplete@FrontEndContext@@MAEXPAX@Z 00430070 f   frontendcontext.obj
 0001:0002f0d0       ?StartFrontEnd@FrontEndContext@@AAEXI@Z 004300d0 f   frontendcontext.obj
 0001:0002f100       ??0LoadingContext@@IAE@XZ  00430100 f   loadingcontext.obj
 0001:0002f120       ??_GLoadingContext@@MAEPAXI@Z 00430120 f i loadingcontext.obj
 0001:0002f120       ??_ELoadingContext@@MAEPAXI@Z 00430120 f i loadingcontext.obj
 0001:0002f140       ??1LoadingContext@@MAE@XZ  00430140 f   loadingcontext.obj
 0001:0002f160       ?OnStart@LoadingContext@@MAEXW4ContextEnum@@@Z 00430160 f   loadingcontext.obj
 0001:0002f250       ?OnStop@LoadingContext@@MAEXW4ContextEnum@@@Z 00430250 f   loadingcontext.obj
 0001:0002f310       ?OnUpdate@PlayingContext@@MAEXI@Z 00430310 f   playingcontext.obj
 0001:0002f310       ?OnUpdate@LoadingContext@@MAEXI@Z 00430310 f   loadingcontext.obj
 0001:0002f310       ?OnUpdate@SuperSprintFEContext@@MAEXI@Z 00430310 f   supersprintfecontext.obj
 0001:0002f330       ?OnProcessRequestsComplete@LoadingContext@@UAEXPAX@Z 00430330 f   loadingcontext.obj
 0001:0002f350       ?IsLoading@LoadingManager@@QAE_NXZ 00430350 f i pausecontext.obj
 0001:0002f380       ?GetInstance@PauseContext@@SAPAV1@XZ 00430380 f   pausecontext.obj
 0001:0002f3c0       ??0PauseContext@@AAE@XZ    004303c0 f   pausecontext.obj
 0001:0002f3e0       ??_EPauseContext@@EAEPAXI@Z 004303e0 f i pausecontext.obj
 0001:0002f3e0       ??_GPauseContext@@EAEPAXI@Z 004303e0 f i pausecontext.obj
 0001:0002f400       ??1PauseContext@@EAE@XZ    00430400 f   pausecontext.obj
 0001:0002f410       ?OnStart@PauseContext@@MAEXW4ContextEnum@@@Z 00430410 f   pausecontext.obj
 0001:0002f4a0       ?OnStop@PauseContext@@MAEXW4ContextEnum@@@Z 004304a0 f   pausecontext.obj
 0001:0002f840       ?OnUpdate@PauseContext@@MAEXI@Z 00430840 f   pausecontext.obj
 0001:0002f900       ?RemoveSectionElements@tInventory@@QAEXPBD@Z 00430900 f i pausecontext.obj
 0001:0002f930       ??0PlayingContext@@IAE@XZ  00430930 f   playingcontext.obj
 0001:0002f940       ??_EPlayingContext@@MAEPAXI@Z 00430940 f i playingcontext.obj
 0001:0002f940       ??_GPlayingContext@@MAEPAXI@Z 00430940 f i playingcontext.obj
 0001:0002f960       ??1PlayingContext@@MAE@XZ  00430960 f   playingcontext.obj
 0001:0002f970       ?OnStart@PlayingContext@@MAEXW4ContextEnum@@@Z 00430970 f   playingcontext.obj
 0001:0002f9e0       ?OnStop@PlayingContext@@MAEXW4ContextEnum@@@Z 004309e0 f   playingcontext.obj
 0001:0002fa30       ??1ComedyCam@@UAE@XZ       00430a30 f i gameplaycontext.obj
 0001:0002fa40       ?GetName@ComedyCam@@UBEQBDXZ 00430a40 f i gameplaycontext.obj
 0001:0002fa50       ?GetType@ComedyCam@@UAE?AW4Type@SuperCam@@XZ 00430a50 f i gameplaycontext.obj
 0001:0002fa50       ?GetDataType@ActionEventLocator@@UBE?AW4Type@LocatorType@@XZ 00430a50 f i actioneventlocator.obj
 0001:0002fa60       ??_GComedyCam@@UAEPAXI@Z   00430a60 f i gameplaycontext.obj
 0001:0002fa60       ??_EComedyCam@@UAEPAXI@Z   00430a60 f i gameplaycontext.obj
 0001:0002fa80       ?GetInstance@GameplayContext@@SAPAV1@XZ 00430a80 f   gameplaycontext.obj
 0001:0002fac0       ??0GameplayContext@@AAE@XZ 00430ac0 f   gameplaycontext.obj
 0001:0002fae0       ??_EGameplayContext@@EAEPAXI@Z 00430ae0 f i gameplaycontext.obj
 0001:0002fae0       ??_GGameplayContext@@EAEPAXI@Z 00430ae0 f i gameplaycontext.obj
 0001:0002fb00       ??1GameplayContext@@EAE@XZ 00430b00 f   gameplaycontext.obj
 0001:0002fb10       ?OnStart@GameplayContext@@MAEXW4ContextEnum@@@Z 00430b10 f   gameplaycontext.obj
 0001:00030160       ?OnStop@GameplayContext@@MAEXW4ContextEnum@@@Z 00431160 f   gameplaycontext.obj
 0001:00030190       ?OnUpdate@GameplayContext@@MAEXI@Z 00431190 f   gameplaycontext.obj
 0001:00030390       ?PauseAllButPresentation@GameplayContext@@QAEX_N@Z 00431390 f   gameplaycontext.obj
 0001:000303a0       ?find@?$@VtLightGroup@@@p3d@@YAPAVtLightGroup@@PAVtEntityStore@@PBD@Z 004313a0 f i gameplaycontext.obj
 0001:00030410       ?find@?$@VtLightGroup@@@p3d@@YAPAVtLightGroup@@PAVtEntityStore@@ABVtName@@@Z 00431410 f i gameplaycontext.obj
 0001:000304e0       ?safe_cast@?$SafeCast@VtLightGroup@@@radLoadInventory@@UAEPAUIRefCount@@PAU3@@Z 004314e0 f i gameplaycontext.obj
 0001:00030500       ?GetInstance@LoadingGameplayContext@@SAPAV1@XZ 00431500 f   loadinggameplaycontext.obj
 0001:00030540       ??0LoadingGameplayContext@@AAE@XZ 00431540 f   loadinggameplaycontext.obj
 0001:00030560       ??_ELoadingGameplayContext@@EAEPAXI@Z 00431560 f i loadinggameplaycontext.obj
 0001:00030560       ??_GLoadingGameplayContext@@EAEPAXI@Z 00431560 f i loadinggameplaycontext.obj
 0001:00030580       ??1LoadingGameplayContext@@EAE@XZ 00431580 f   loadinggameplaycontext.obj
 0001:000305a0       ?OnStart@LoadingGameplayContext@@MAEXW4ContextEnum@@@Z 004315a0 f   loadinggameplaycontext.obj
 0001:00030620       ?PrepareNewHeaps@LoadingGameplayContext@@MAEXXZ 00431620 f   loadinggameplaycontext.obj
 0001:00030620       ?PrepareNewHeaps@LoadingDemoContext@@MAEXXZ 00431620 f   loadingdemocontext.obj
 0001:00030630       ?OnProcessRequestsComplete@LoadingGameplayContext@@UAEXPAX@Z 00431630 f   loadinggameplaycontext.obj
 0001:00030630       ?OnProcessRequestsComplete@LoadingDemoContext@@UAEXPAX@Z 00431630 f   loadingdemocontext.obj
 0001:00030660       ?GetInstance@DemoContext@@SAPAV1@XZ 00431660 f   democontext.obj
 0001:00030690       ??0DemoContext@@AAE@XZ     00431690 f   democontext.obj
 0001:000306b0       ??_EDemoContext@@EAEPAXI@Z 004316b0 f i democontext.obj
 0001:000306b0       ??_GDemoContext@@EAEPAXI@Z 004316b0 f i democontext.obj
 0001:000306d0       ??1DemoContext@@EAE@XZ     004316d0 f   democontext.obj
 0001:000306e0       ?OnStart@DemoContext@@MAEXW4ContextEnum@@@Z 004316e0 f   democontext.obj
 0001:00030a00       ?OnStop@DemoContext@@MAEXW4ContextEnum@@@Z 00431a00 f   democontext.obj
 0001:00030c10       ?OnUpdate@DemoContext@@MAEXI@Z 00431c10 f   democontext.obj
 0001:00030da0       ?GetInstance@LoadingDemoContext@@SAPAV1@XZ 00431da0 f   loadingdemocontext.obj
 0001:00030dd0       ??0LoadingDemoContext@@AAE@XZ 00431dd0 f   loadingdemocontext.obj
 0001:00030df0       ??_GLoadingDemoContext@@EAEPAXI@Z 00431df0 f i loadingdemocontext.obj
 0001:00030df0       ??_ELoadingDemoContext@@EAEPAXI@Z 00431df0 f i loadingdemocontext.obj
 0001:00030e10       ??1LoadingDemoContext@@EAE@XZ 00431e10 f   loadingdemocontext.obj
 0001:00030e30       ?OnStart@LoadingDemoContext@@MAEXW4ContextEnum@@@Z 00431e30 f   loadingdemocontext.obj
 0001:00030ea0       ?OnUpdate@LoadingDemoContext@@MAEXI@Z 00431ea0 f   loadingdemocontext.obj
 0001:00030ea0       ?OnUpdate@LoadingGameplayContext@@MAEXI@Z 00431ea0 f   loadinggameplaycontext.obj
 0001:00030ed0       ?GetInstance@LoadingSuperSprintContext@@SAPAV1@XZ 00431ed0 f   loadingsupersprintcontext.obj
 0001:00030f10       ??0LoadingSuperSprintContext@@AAE@XZ 00431f10 f   loadingsupersprintcontext.obj
 0001:00030f30       ??_ELoadingSuperSprintContext@@EAEPAXI@Z 00431f30 f i loadingsupersprintcontext.obj
 0001:00030f30       ??_GLoadingSuperSprintContext@@EAEPAXI@Z 00431f30 f i loadingsupersprintcontext.obj
 0001:00030f50       ??1LoadingSuperSprintContext@@EAE@XZ 00431f50 f   loadingsupersprintcontext.obj
 0001:00030f70       ?OnStart@LoadingSuperSprintContext@@MAEXW4ContextEnum@@@Z 00431f70 f   loadingsupersprintcontext.obj
 0001:00030fd0       ?OnStop@LoadingDemoContext@@MAEXW4ContextEnum@@@Z 00431fd0 f   loadingdemocontext.obj
 0001:00030fd0       ?OnStop@LoadingGameplayContext@@MAEXW4ContextEnum@@@Z 00431fd0 f   loadinggameplaycontext.obj
 0001:00030fd0       ?OnStop@LoadingSuperSprintContext@@MAEXW4ContextEnum@@@Z 00431fd0 f   loadingsupersprintcontext.obj
 0001:00030fe0       ?OnUpdate@LoadingSuperSprintContext@@MAEXI@Z 00431fe0 f   loadingsupersprintcontext.obj
 0001:00030ff0       ?OnProcessRequestsComplete@LoadingSuperSprintContext@@UAEXPAX@Z 00431ff0 f   loadingsupersprintcontext.obj
 0001:00031020       ?GetInstance@SuperSprintContext@@SAPAV1@XZ 00432020 f   supersprintcontext.obj
 0001:00031070       ?OnStart@SuperSprintContext@@MAEXW4ContextEnum@@@Z 00432070 f   supersprintcontext.obj
 0001:000314e0       ?OnStop@SuperSprintContext@@MAEXW4ContextEnum@@@Z 004324e0 f   supersprintcontext.obj
 0001:00031740       ?OnUpdate@SuperSprintContext@@MAEXI@Z 00432740 f   supersprintcontext.obj
 0001:00031820       ??0SuperSprintContext@@AAE@XZ 00432820 f   supersprintcontext.obj
 0001:00031830       ??_ESuperSprintContext@@EAEPAXI@Z 00432830 f i supersprintcontext.obj
 0001:00031830       ??_GSuperSprintContext@@EAEPAXI@Z 00432830 f i supersprintcontext.obj
 0001:00031850       ??1SuperSprintContext@@EAE@XZ 00432850 f   supersprintcontext.obj
 0001:00031860       ?GetInstance@SuperSprintFEContext@@SAPAV1@XZ 00432860 f   supersprintfecontext.obj
 0001:000318b0       ?OnStart@SuperSprintFEContext@@MAEXW4ContextEnum@@@Z 004328b0 f   supersprintfecontext.obj
 0001:00031940       ?OnStop@SuperSprintFEContext@@MAEXW4ContextEnum@@@Z 00432940 f   supersprintfecontext.obj
 0001:000319a0       ?OnProcessRequestsComplete@SuperSprintFEContext@@MAEXPAX@Z 004329a0 f   supersprintfecontext.obj
 0001:000319d0       ??0SuperSprintFEContext@@AAE@XZ 004329d0 f   supersprintfecontext.obj
 0001:000319f0       ??_GSuperSprintFEContext@@EAEPAXI@Z 004329f0 f i supersprintfecontext.obj
 0001:000319f0       ??_ESuperSprintFEContext@@EAEPAXI@Z 004329f0 f i supersprintfecontext.obj
 0001:00031a10       ??1SuperSprintFEContext@@EAE@XZ 00432a10 f   supersprintfecontext.obj
 0001:00031a30       ??0EventListener@@QAE@XZ   00432a30 f   eventlistener.obj
 0001:00031a40       ??_EEventListener@@UAEPAXI@Z 00432a40 f i eventlistener.obj
 0001:00031a40       ??_GEventListener@@UAEPAXI@Z 00432a40 f i eventlistener.obj
 0001:00031a60       ??1EventListener@@UAE@XZ   00432a60 f   eventlistener.obj
 0001:00031a80       ?CreateInstance@EventManager@@SAPAV1@XZ 00432a80 f   eventmanager.obj
 0001:00031b00       ?GetInstance@EventManager@@SAPAV1@XZ 00432b00 f   eventmanager.obj
 0001:00031b10       ?DestroyInstance@EventManager@@SAXXZ 00432b10 f   eventmanager.obj
 0001:00031b40       ?AddListener@EventManager@@QAEXPAVEventListener@@W4EventEnum@@@Z 00432b40 f   eventmanager.obj
 0001:00031bc0       ?RemoveListener@EventManager@@QAEXPAVEventListener@@W4EventEnum@@@Z 00432bc0 f   eventmanager.obj
 0001:00031c10       ?RemoveAll@EventManager@@QAEXPAVEventListener@@@Z 00432c10 f   eventmanager.obj
 0001:00031c30       ?TriggerEvent@EventManager@@QBEHW4EventEnum@@PAX@Z 00432c30 f   eventmanager.obj
 0001:00031cb0       ??0EventManager@@AAE@XZ    00432cb0 f   eventmanager.obj
 0001:00031d60       ??1EventManager@@AAE@XZ    00432d60 f   eventmanager.obj
 0001:00031de0       ??0?$vector@PAVEventListener@@V?$s2alloc@PAVEventListener@@@@@std@@QAE@XZ 00432de0 f i eventmanager.obj
 0001:00031df0       ??1?$vector@PAVEventListener@@V?$s2alloc@PAVEventListener@@@@@std@@QAE@XZ 00432df0 f i eventmanager.obj
 0001:00031e20       ?reserve@?$vector@PAVCollisionObject@sim@@V?$s2alloc@PAVCollisionObject@sim@@@@@std@@QAEXI@Z 00432e20 f i intersectionlist.obj
 0001:00031e20       ?reserve@?$vector@PAVEventListener@@V?$s2alloc@PAVEventListener@@@@@std@@QAEXI@Z 00432e20 f i eventmanager.obj
 0001:00031e20       ?reserve@?$vector@W4TutorialMode@@V?$s2alloc@W4TutorialMode@@@@@std@@QAEXI@Z 00432e20 f i tutorialmanager.obj
 0001:00031e20       ?reserve@?$vector@PAVIEntityDSG@@V?$s2alloc@PAVIEntityDSG@@@@@std@@QAEXI@Z 00432e20 f i WorldScene.obj
 0001:00031e20       ?reserve@?$vector@PAVSelectableDialog@@V?$s2alloc@PAVSelectableDialog@@@@@std@@QAEXI@Z 00432e20 f i dialogselectiongroup.obj
 0001:00031e20       ?reserve@?$vector@PAVActor@@V?$s2alloc@PAVActor@@@@@std@@QAEXI@Z 00432e20 f i actormanager.obj
 0001:00031f10       ?CreateInstance@GameFlow@@SAPAV1@XZ 00432f10 f   gameflow.obj
 0001:00031f80       ?GetInstance@GameFlow@@SAPAV1@XZ 00432f80 f   gameflow.obj
 0001:00031f90       ?DestroyInstance@GameFlow@@SAXXZ 00432f90 f   gameflow.obj
 0001:00031fb0       ?PushContext@GameFlow@@QAEXW4ContextEnum@@@Z 00432fb0 f   gameflow.obj
 0001:00031fd0       ?SetContext@GameFlow@@QAEXW4ContextEnum@@@Z 00432fd0 f   gameflow.obj
 0001:00032010       ?OnTimerDone@GameFlow@@UAEXIPAX@Z 00433010 f   gameflow.obj
 0001:000320b0       ??0GameFlow@@AAE@XZ        004330b0 f   gameflow.obj
 0001:00032180       ??_GGameFlow@@EAEPAXI@Z    00433180 f i gameflow.obj
 0001:00032180       ??_EGameFlow@@EAEPAXI@Z    00433180 f i gameflow.obj
 0001:000321a0       ??1GameFlow@@EAE@XZ        004331a0 f   gameflow.obj
 0001:00032210       ?_Ucopy@?$vector@W4TutorialMode@@V?$s2alloc@W4TutorialMode@@@@@std@@IAEPAW4TutorialMode@@V?$_Ptrit@W4TutorialMode@@HPAW41@AAW41@PAW41@AAW41@@2@0PAW43@@Z 00433210 f i tutorialmanager.obj
 0001:00032210       ?_Ucopy@?$vector@PAVEventListener@@V?$s2alloc@PAVEventListener@@@@@std@@IAEPAPAVEventListener@@V?$_Ptrit@PAVEventListener@@HPAPAV1@AAPAV1@PAPAV1@AAPAV1@@2@0PAPAV3@@Z 00433210 f i eventmanager.obj
 0001:00032210       ?_Ucopy@?$vector@PAVActor@@V?$s2alloc@PAVActor@@@@@std@@IAEPAPAVActor@@V?$_Ptrit@PAVActor@@HPAPAV1@AAPAV1@PAPAV1@AAPAV1@@2@0PAPAV3@@Z 00433210 f i actormanager.obj
 0001:00032210       ?_Ucopy@?$vector@PAVIEntityDSG@@V?$s2alloc@PAVIEntityDSG@@@@@std@@IAEPAPAVIEntityDSG@@V?$_Ptrit@PAVIEntityDSG@@HPAPAV1@AAPAV1@PAPAV1@AAPAV1@@2@0PAPAV3@@Z 00433210 f i WorldScene.obj
 0001:00032210       ?_Ucopy@?$vector@PAVCollisionObject@sim@@V?$s2alloc@PAVCollisionObject@sim@@@@@std@@IAEPAPAVCollisionObject@sim@@V?$_Ptrit@PAVCollisionObject@sim@@HPAPAV12@AAPAV12@PAPAV12@AAPAV12@@2@0PAPAV34@@Z 00433210 f i intersectionlist.obj
 0001:00032210       ?_Ucopy@?$vector@W4ContextEnum@@V?$s2alloc@W4ContextEnum@@@@@std@@IAEPAW4ContextEnum@@V?$_Ptrit@W4ContextEnum@@HPAW41@AAW41@PAW41@AAW41@@2@0PAW43@@Z 00433210 f i gameflow.obj
 0001:00032210       ?_Ucopy@?$vector@PAVSelectableDialog@@V?$s2alloc@PAVSelectableDialog@@@@@std@@IAEPAPAVSelectableDialog@@V?$_Ptrit@PAVSelectableDialog@@HPAPAV1@AAPAV1@PAPAV1@AAPAV1@@2@0PAPAV3@@Z 00433210 f i dialogselectiongroup.obj
 0001:00032240       ??0FEMouse@@QAE@XZ         00433240 f   FEMouse.obj
 0001:000322a0       ??1FEMouse@@QAE@XZ         004332a0 f   FEMouse.obj
 0001:000322c0       ?InitMouseCursor@FEMouse@@QAEXPAVtDrawable@@@Z 004332c0 f   FEMouse.obj
 0001:000322d0       ?OnSliderHorizontalClickDrag@FEMouse@@QBE?AW4eFEMouseHorzDir@@XZ 004332d0 f   FEMouse.obj
 0001:00032300       ?DidWeMove@FEMouse@@QBE_NHH@Z 00433300 f   FEMouse.obj
 0001:00032320       ?Move@FEMouse@@QAEXHHJJ@Z  00433320 f   FEMouse.obj
 0001:000323b0       ?Update@FEMouse@@QAEXXZ    004333b0 f   FEMouse.obj
 0001:00032500       ?ButtonDown@FEMouse@@QAEXW4eFEMouseButton@@@Z 00433500 f   FEMouse.obj
 0001:00032580       ?ButtonUp@FEMouse@@QAEXW4eFEMouseButton@@@Z 00433580 f   FEMouse.obj
 0001:00032660       ?SetInGameMode@FEMouse@@QAEX_N@Z 00433660 f   FEMouse.obj
 0001:00032670       ?SetInGameOverride@FEMouse@@QAEX_N@Z 00433670 f   FEMouse.obj
 0001:00032680       ?SetupInGameMode@FEMouse@@AAEXXZ 00433680 f   FEMouse.obj
 0001:00032770       ??0Gamepad@@QAE@XZ         00433770 f   Gamepad.obj
 0001:00032790       ??_GGamepad@@UAEPAXI@Z     00433790 f i Gamepad.obj
 0001:00032790       ??_EGamepad@@UAEPAXI@Z     00433790 f i Gamepad.obj
 0001:000327b0       ??1Gamepad@@UAE@XZ         004337b0 f   Gamepad.obj
 0001:000327c0       ?IsInputAxis@Gamepad@@UBE_NH@Z 004337c0 f   Gamepad.obj
 0001:00032810       ?IsPovHat@Gamepad@@UBE_NH@Z 00433810 f   Gamepad.obj
 0001:00032830       ?IsValidInput@Gamepad@@UBE_NH@Z 00433830 f   Gamepad.obj
 0001:00032850       ?CalculatePOV@Gamepad@@QBEXMPAM000@Z 00433850 f   Gamepad.obj
 0001:00032920       ?SetMap@Gamepad@@UAE_NHW4eDirectionType@@H@Z 00433920 f   Gamepad.obj
 0001:00032960       ?ClearMap@Gamepad@@UAEXHW4eDirectionType@@H@Z 00433960 f   Gamepad.obj
 0001:000329a0       ?GetMap@Gamepad@@UBEHHW4eDirectionType@@W4eMapType@@@Z 004339a0 f   Gamepad.obj
 0001:000329d0       ?ClearMappedButtons@Gamepad@@UAEXXZ 004339d0 f   Gamepad.obj
 0001:000329f0       ?MapInputToDICode@Gamepad@@EAEXXZ 004339f0 f   Gamepad.obj
 0001:00032c20       ?GetButtonEnum@Gamepad@@ABE?AW4eGamepadButton@@H@Z 00433c20 f   Gamepad.obj
 0001:00032e90       ??0Keyboard@@QAE@XZ        00433e90 f   Keyboard.obj
 0001:00032eb0       ??_EKeyboard@@UAEPAXI@Z    00433eb0 f i Keyboard.obj
 0001:00032eb0       ??_GKeyboard@@UAEPAXI@Z    00433eb0 f i Keyboard.obj
 0001:00032ed0       ??1Keyboard@@UAE@XZ        00433ed0 f   Keyboard.obj
 0001:00032ee0       ?IsValidInput@Keyboard@@UBE_NH@Z 00433ee0 f   Keyboard.obj
 0001:00032f00       ?IsBannedInput@Keyboard@@UBE_NH@Z 00433f00 f   Keyboard.obj
 0001:00032fe0       ?SetMap@Keyboard@@UAE_NHW4eDirectionType@@H@Z 00433fe0 f   Keyboard.obj
 0001:00033020       ?ClearMap@Keyboard@@UAEXHW4eDirectionType@@H@Z 00434020 f   Keyboard.obj
 0001:00033050       ?GetMap@Keyboard@@UBEHHW4eDirectionType@@W4eMapType@@@Z 00434050 f   Keyboard.obj
 0001:00033080       ?ClearMappedButtons@Keyboard@@UAEXXZ 00434080 f   Keyboard.obj
 0001:000330a0       ?MapInputToDICode@Keyboard@@EAEXXZ 004340a0 f   Keyboard.obj
 0001:000331d0       ??0Mouse@@QAE@XZ           004341d0 f   Mouse.obj
 0001:00033210       ??_GMouse@@UAEPAXI@Z       00434210 f i Mouse.obj
 0001:00033210       ??_EMouse@@UAEPAXI@Z       00434210 f i Mouse.obj
 0001:00033230       ??1Mouse@@UAE@XZ           00434230 f   Mouse.obj
 0001:00033240       ?IsMouseAxis@Mouse@@UBE_NH@Z 00434240 f   Mouse.obj
 0001:00033260       ?IsValidInput@Mouse@@UBE_NH@Z 00434260 f   Mouse.obj
 0001:00033280       ?CalculateMouseAxis@Mouse@@QAEMHM@Z 00434280 f   Mouse.obj
 0001:00033350       ?SetMap@Mouse@@UAE_NHW4eDirectionType@@H@Z 00434350 f   Mouse.obj
 0001:00033390       ?ClearMap@Mouse@@UAEXHW4eDirectionType@@H@Z 00434390 f   Mouse.obj
 0001:000333d0       ?GetMap@Mouse@@UBEHHW4eDirectionType@@W4eMapType@@@Z 004343d0 f   Mouse.obj
 0001:00033400       ?ClearMappedButtons@Mouse@@UAEXXZ 00434400 f   Mouse.obj
 0001:00033420       ?MapInputToDICode@Mouse@@EAEXXZ 00434420 f   Mouse.obj
 0001:000335e0       ?GetButtonEnum@Mouse@@ABE?AW4eMouseButton@@H@Z 004345e0 f   Mouse.obj
 0001:000338b0       ??0MouseCursor@@QAE@XZ     004348b0 f   MouseCursor.obj
 0001:000338d0       ??1MouseCursor@@QAE@XZ     004348d0 f   MouseCursor.obj
 0001:000338f0       ?Set@MouseCursor@@QAEXPAVtDrawable@@@Z 004348f0 f   MouseCursor.obj
 0001:00033910       ?Render@MouseCursor@@QAEXXZ 00434910 f   MouseCursor.obj
 0001:00033ac0       ??0RealController@@QAE@W4eControllerType@@@Z 00434ac0 f   RealController.obj
 0001:00033b20       ??_ERealController@@UAEPAXI@Z 00434b20 f i RealController.obj
 0001:00033b20       ??_GRealController@@UAEPAXI@Z 00434b20 f i RealController.obj
 0001:00033b40       ??1RealController@@UAE@XZ  00434b40 f   RealController.obj
 0001:00033bb0       ?Init@RealController@@QAEXPAUIRadController@@@Z 00434bb0 f   RealController.obj
 0001:00033be0       ?GetInputName@RealController@@QBEPBDH@Z 00434be0 f   RealController.obj
 0001:00033c30       ?AddInputPoints@RealController@@QAEXPAUIRadControllerInputPoint@@@Z 00434c30 f   RealController.obj
 0001:00033c90       ?ReleaseInputPoints@RealController@@QAEXPAVUserController@@@Z 00434c90 f   RealController.obj
 0001:00033d00       ?GetDICode@RealController@@QBEHH@Z 00434d00 f   RealController.obj
 0001:00033d20       ??0BaseDamper@@QAE@XZ      00434d20 f   basedamper.obj
 0001:00033da0       ??_GBaseDamper@@UAEPAXI@Z  00434da0 f i basedamper.obj
 0001:00033da0       ??_EBaseDamper@@UAEPAXI@Z  00434da0 f i basedamper.obj
 0001:00033dc0       ??1BaseDamper@@UAE@XZ      00434dc0 f   basedamper.obj
 0001:00033dd0       ?SetSpringStrength@SteeringSpring@@QAEXG@Z 00434dd0 f   steeringspring.obj
 0001:00033dd0       ?SetDamperStrength@BaseDamper@@QAEXG@Z 00434dd0 f   basedamper.obj
 0001:00033de0       ?SetSpringCoefficient@SteeringSpring@@QAEXF@Z 00434de0 f   steeringspring.obj
 0001:00033de0       ?SetDamperCoefficient@BaseDamper@@QAEXF@Z 00434de0 f   basedamper.obj
 0001:00033df0       ??0ConstantEffect@@QAE@XZ  00434df0 f   constanteffect.obj
 0001:00033e60       ??_EConstantEffect@@UAEPAXI@Z 00434e60 f i constanteffect.obj
 0001:00033e60       ??_GConstantEffect@@UAEPAXI@Z 00434e60 f i constanteffect.obj
 0001:00033e80       ??1ConstantEffect@@UAE@XZ  00434e80 f   constanteffect.obj
 0001:00033e90       ?OnInit@WheelRumble@@UAEXXZ 00434e90 f   wheelrumble.obj
 0001:00033e90       ?OnInit@ConstantEffect@@UAEXXZ 00434e90 f   constanteffect.obj
 0001:00033ea0       ?SetMagnitude@ConstantEffect@@QAEXF@Z 00434ea0 f   constanteffect.obj
 0001:00033eb0       ?SetDirection@ConstantEffect@@QAEXG@Z 00434eb0 f   constanteffect.obj
 0001:00033ed0       ??0ForceEffect@@QAE@XZ     00434ed0 f   forceeffect.obj
 0001:00033f20       ??_GForceEffect@@UAEPAXI@Z 00434f20 f i forceeffect.obj
 0001:00033f20       ??_EForceEffect@@UAEPAXI@Z 00434f20 f i forceeffect.obj
 0001:00033f40       ??1ForceEffect@@UAE@XZ     00434f40 f   forceeffect.obj
 0001:00033f70       ?Init@ForceEffect@@QAEXPAUIRadControllerOutputPoint@@@Z 00434f70 f   forceeffect.obj
 0001:00033fa0       ?Start@ForceEffect@@QAEXXZ 00434fa0 f   forceeffect.obj
 0001:00033fc0       ?Stop@ForceEffect@@QAEXXZ  00434fc0 f   forceeffect.obj
 0001:00033fd0       ?Update@ForceEffect@@UAEXI@Z 00434fd0 f   forceeffect.obj
 0001:00034000       ?ShutDownEffects@ForceEffect@@QAEXXZ 00435000 f   forceeffect.obj
 0001:00034020       ?SetResetTime@ForceEffect@@QAEXK@Z 00435020 f   forceeffect.obj
 0001:00034030       ?CreateInstance@InputManager@@SAPAV1@XZ 00435030 f   inputmanager.obj
 0001:000340a0       ?GetInstance@InputManager@@SAPAV1@XZ 004350a0 f   inputmanager.obj
 0001:000340b0       ?DestroyInstance@InputManager@@SAXXZ 004350b0 f   inputmanager.obj
 0001:000340e0       ?Init@InputManager@@QAEXXZ 004350e0 f   inputmanager.obj
 0001:00034140       ?Update@InputManager@@QAEXI@Z 00435140 f   inputmanager.obj
 0001:00034250       ?OnControllerConnectionStatusChange@InputManager@@EAEXPAUIRadController@@@Z 00435250 f   inputmanager.obj
 0001:00034260       ?ToggleRumble@InputManager@@QAEX_N@Z 00435260 f   inputmanager.obj
 0001:000342a0       ?SetRumbleForDevice@InputManager@@QAEXH_N@Z 004352a0 f   inputmanager.obj
 0001:000342c0       ?GetValue@InputManager@@QBEMII@Z 004352c0 f   inputmanager.obj
 0001:000342e0       ?GetController@InputManager@@QAEPAVUserController@@I@Z 004352e0 f   inputmanager.obj
 0001:00034300       ?RegisterMappable@InputManager@@QAEHIPAVMappable@@@Z 00435300 f   inputmanager.obj
 0001:00034320       ?UnregisterMappable@InputManager@@QAEXIH@Z 00435320 f   inputmanager.obj
 0001:00034340       ?UnregisterMappable@InputManager@@QAEXIPAVMappable@@@Z 00435340 f   inputmanager.obj
 0001:00034360       ?UnregisterMappable@InputManager@@QAEXPAVMappable@@@Z 00435360 f   inputmanager.obj
 0001:00034390       ?LoadData@InputManager@@UAEXPBEI@Z 00435390 f   inputmanager.obj
 0001:000343c0       ?SaveData@InputManager@@UAEXPAEI@Z 004353c0 f   inputmanager.obj
 0001:000343e0       ??0InputManager@@AAE@XZ    004353e0 f   inputmanager.obj
 0001:000344e0       ??1InputManager@@AAE@XZ    004354e0 f   inputmanager.obj
 0001:00034590       ?EnumerateControllers@InputManager@@AAEXXZ 00435590 f   inputmanager.obj
 0001:00034870       ?ReleaseAllControllers@InputManager@@AAEXXZ 00435870 f   inputmanager.obj
 0001:000348a0       ?SetGameState@InputManager@@QAEXW4ActiveState@Input@@@Z 004358a0 f   inputmanager.obj
 0001:000348d0       ?GetGameState@InputManager@@QBE?AW4ActiveState@Input@@XZ 004358d0 f   inputmanager.obj
 0001:000348e0       ?RegisterControllerID@InputManager@@QAEXHH@Z 004358e0 f   inputmanager.obj
 0001:000348f0       ?UnregisterControllerID@InputManager@@QAEXH@Z 004358f0 f   inputmanager.obj
 0001:00034900       ?UnregisterAllControllerID@InputManager@@QAEXXZ 00435900 f   inputmanager.obj
 0001:00034910       ??0?$ref@UIRadController@@@@QAE@XZ 00435910 f i inputmanager.obj
 0001:00034920       ??0Mappable@@QAE@I@Z       00435920 f   mappable.obj
 0001:000349c0       ??_GMappable@@UAEPAXI@Z    004359c0 f i mappable.obj
 0001:000349c0       ??_EMappable@@UAEPAXI@Z    004359c0 f i mappable.obj
 0001:000349e0       ??1Mappable@@UAE@XZ        004359e0 f   mappable.obj
 0001:00034a40       ?DispatchOnButton@Mappable@@QAEXHHPBVButton@@@Z 00435a40 f   mappable.obj
 0001:00034b00       ?InitButtons@Mappable@@QAEXHPBVButton@@@Z 00435b00 f   mappable.obj
 0001:00034b40       ?OnControllerDisconnect@Mappable@@UAEXH@Z 00435b40 f   mappable.obj
 0001:00034b50       ?UpdateButtonState@Mappable@@QAEXHHPBVButton@@@Z 00435b50 f   mappable.obj
 0001:00034bb0       ?GetValue@Mappable@@QBEMI@Z 00435bb0 f   mappable.obj
 0001:00034bd0       ?GetButton@Mappable@@QAEPAVButton@@I@Z 00435bd0 f   mappable.obj
 0001:00034be0       ?GetMapper@Mappable@@QAEPAVMapper@@I@Z 00435be0 f   mappable.obj
 0001:00034bf0       ?GetActiveMapper@Mappable@@AAEPAVMapper@@XZ 00435bf0 f   mappable.obj
 0001:00034c10       ?SetGameState@Mappable@@QAEXI@Z 00435c10 f   mappable.obj
 0001:00034c50       ?IsActive@Mappable@@QBE_NXZ 00435c50 f   mappable.obj
 0001:00034c60       ?IsButtonDown@Mappable@@QAE_NI@Z 00435c60 f   mappable.obj
 0001:00034c80       ?Map@Mappable@@IAE_NPBDHII@Z 00435c80 f   mappable.obj
 0001:00034cd0       ?ClearMap@Mappable@@IAEXI@Z 00435cd0 f   mappable.obj
 0001:00034ce0       ?Reset@Mappable@@QAEXXZ    00435ce0 f   mappable.obj
 0001:00034d10       ??0Mapper@@QAE@XZ          00435d10 f   mapper.obj
 0001:00034d20       ?SetAssociation@Mapper@@QAEHHH@Z 00435d20 f   mapper.obj
 0001:00034d30       ?GetLogicalIndex@Mapper@@QBEHH@Z 00435d30 f   mapper.obj
 0001:00034d30       ?mpLoader@AllWrappers@@QAEPAVIWrappedLoader@@H@Z 00435d30 f   AllWrappers.obj
 0001:00034d30       ?mLoader@AllWrappers@@QAEAAVIWrappedLoader@@H@Z 00435d30 f   AllWrappers.obj
 0001:00034d40       ?ClearAssociations@Mapper@@QAEXXZ 00435d40 f   mapper.obj
 0001:00034d50       ??0RumbleEffect@@QAE@XZ    00435d50 f   rumbleeffect.obj
 0001:00034dc0       ??_GRumbleEffect@@UAEPAXI@Z 00435dc0 f i rumbleeffect.obj
 0001:00034dc0       ??_ERumbleEffect@@UAEPAXI@Z 00435dc0 f i rumbleeffect.obj
 0001:00034de0       ??1RumbleEffect@@UAE@XZ    00435de0 f   rumbleeffect.obj
 0001:00034e20       ?SetMotor@RumbleEffect@@QAEXIPAUIRadControllerOutputPoint@@@Z 00435e20 f   rumbleeffect.obj
 0001:00034e40       ?SetEffect@RumbleEffect@@QAEXW4Effect@1@I@Z 00435e40 f   rumbleeffect.obj
 0001:00034e50       ?SetDynaEffect@RumbleEffect@@QAEXW4DynaEffect@1@IM@Z 00435e50 f   rumbleeffect.obj
 0001:00034e90       ?Update@RumbleEffect@@QAEXI@Z 00435e90 f   rumbleeffect.obj
 0001:00034f50       ?ShutDownEffects@RumbleEffect@@QAEXXZ 00435f50 f   rumbleeffect.obj
 0001:00034f90       ?UpdateEffect@RumbleEffect@@AAEXW4Effect@1@I@Z 00435f90 f   rumbleeffect.obj
 0001:00034ff0       ?UpdateDynaEffect@RumbleEffect@@AAEXW4DynaEffect@1@IM@Z 00435ff0 f   rumbleeffect.obj
 0001:00035060       ??0SteeringSpring@@QAE@XZ  00436060 f   steeringspring.obj
 0001:000350e0       ??_GSteeringSpring@@UAEPAXI@Z 004360e0 f i steeringspring.obj
 0001:000350e0       ??_ESteeringSpring@@UAEPAXI@Z 004360e0 f i steeringspring.obj
 0001:00035100       ??1SteeringSpring@@UAE@XZ  00436100 f   steeringspring.obj
 0001:00035110       ?SetCenterPoint@SteeringSpring@@QAEXDE@Z 00436110 f   steeringspring.obj
 0001:00035110       ?SetCenterPoint@BaseDamper@@QAEXDE@Z 00436110 f   basedamper.obj
 0001:00035130       ?getController@RealController@@QBE?AV?$ref@UIRadController@@@@XZ 00436130 f i usercontrollerWin32.obj
 0001:00035150       ??0UserController@@QAE@XZ  00436150 f   usercontrollerWin32.obj
 0001:00035420       ??_GUserController@@UAEPAXI@Z 00436420 f i usercontrollerWin32.obj
 0001:00035420       ??_EUserController@@UAEPAXI@Z 00436420 f i usercontrollerWin32.obj
 0001:00035440       ?NotifyConnect@UserController@@QAEXXZ 00436440 f   usercontrollerWin32.obj
 0001:00035490       ?NotifyDisconnect@UserController@@QAEXXZ 00436490 f   usercontrollerWin32.obj
 0001:000354e0       ?IsConnected@UserController@@QBE_NXZ 004364e0 f   usercontrollerWin32.obj
 0001:000354f0       ?Create@UserController@@UAEXH@Z 004364f0 f   usercontrollerWin32.obj
 0001:00035510       ?SetGameState@UserController@@QAEXI@Z 00436510 f   usercontrollerWin32.obj
 0001:00035570       ?SetButtonValue@UserController@@IAEXIM_N@Z 00436570 f   usercontrollerWin32.obj
 0001:00035700       ?OnControllerInputPointChange@UserController@@MAEXIM@Z 00436700 f   usercontrollerWin32.obj
 0001:00035810       ?DeriveDirectionValues@UserController@@IAEHW4eControllerType@@HMPAM@Z 00436810 f   usercontrollerWin32.obj
 0001:000359d0       ?Initialize@UserController@@UAEXPAV?$ref@UIRadController@@@@@Z 004369d0 f   usercontrollerWin32.obj
 0001:00035b90       ?ReleaseRadController@UserController@@UAEXXZ 00436b90 f   usercontrollerWin32.obj
 0001:00035c40       ?SetRumble@UserController@@QAEX_N0@Z 00436c40 f   usercontrollerWin32.obj
 0001:00035cd0       ?PulseRumble@UserController@@QAEXXZ 00436cd0 f   usercontrollerWin32.obj
 0001:00035cf0       ?ApplyEffect@UserController@@QAEXW4Effect@RumbleEffect@@I@Z 00436cf0 f   usercontrollerWin32.obj
 0001:00035d20       ?ApplyDynaEffect@UserController@@QAEXW4DynaEffect@RumbleEffect@@IM@Z 00436d20 f   usercontrollerWin32.obj
 0001:00035d60       ?Update@UserController@@QAEXI@Z 00436d60 f   usercontrollerWin32.obj
 0001:00035f90       ?StartForceEffects@UserController@@QAEXXZ 00436f90 f   usercontrollerWin32.obj
 0001:00035fc0       ?StopForceEffects@UserController@@QAEXXZ 00436fc0 f   usercontrollerWin32.obj
 0001:00035ff0       ?GetInputValue@UserController@@QBEMI@Z 00436ff0 f   usercontrollerWin32.obj
 0001:00036060       ??1UserController@@UAE@XZ  00437060 f   usercontrollerWin32.obj
 0001:00036170       ?RegisterMappable@UserController@@QAEHPAVMappable@@@Z 00437170 f   usercontrollerWin32.obj
 0001:00036220       ?UnregisterMappable@UserController@@QAEXH@Z 00437220 f   usercontrollerWin32.obj
 0001:00036250       ?UnregisterMappable@UserController@@QAEXPAVMappable@@@Z 00437250 f   usercontrollerWin32.obj
 0001:000362a0       ?LoadControllerMappings@UserController@@QAEXXZ 004372a0 f   usercontrollerWin32.obj
 0001:000362e0       ?GetIdByName@UserController@@QBEHPBD@Z 004372e0 f   usercontrollerWin32.obj
 0001:00036350       ?GetSpring@UserController@@QAEPAVSteeringSpring@@XZ 00437350 f   usercontrollerWin32.obj
 0001:00036360       ?GetDamper@UserController@@QAEPAVBaseDamper@@XZ 00437360 f   usercontrollerWin32.obj
 0001:00036370       ?GetConstantEffect@UserController@@QAEPAVConstantEffect@@XZ 00437370 f   usercontrollerWin32.obj
 0001:00036380       ?GetWheelRumble@UserController@@QAEPAVWheelRumble@@XZ 00437380 f   usercontrollerWin32.obj
 0001:00036390       ?GetHeavyWheelRumble@UserController@@QAEPAVWheelRumble@@XZ 00437390 f   usercontrollerWin32.obj
 0001:000363a0       ?RegisterInputPoints@UserController@@IAEXXZ 004373a0 f   usercontrollerWin32.obj
 0001:00036470       ?RegisterInputPoint@UserController@@IAEXW4eControllerType@@H@Z 00437470 f   usercontrollerWin32.obj
 0001:00036510       ?GetConfigName@UserController@@UBEPBDXZ 00437510 f   usercontrollerWin32.obj
 0001:00036560       ?GetNumProperties@UserController@@UBEHXZ 00437560 f   usercontrollerWin32.obj
 0001:00036570       ?LoadDefaults@UserController@@UAEXXZ 00437570 f   usercontrollerWin32.obj
 0001:000369a0       ?LoadConfig@UserController@@UAEXAAVConfigString@@@Z 004379a0 f   usercontrollerWin32.obj
 0001:00036dc0       ?SaveConfig@UserController@@UAEXAAVConfigString@@@Z 00437dc0 f   usercontrollerWin32.obj
 0001:00036fd0       ?RemapButton@UserController@@QAEXHHPAUButtonMappedCallback@@@Z 00437fd0 f   usercontrollerWin32.obj
 0001:00036ff0       ?SetMap@UserController@@IAEXHHW4eControllerType@@HW4eDirectionType@@@Z 00437ff0 f   usercontrollerWin32.obj
 0001:000370e0       ?GetMap@UserController@@IBE_NHHAAW4eControllerType@@AAHAAW4eDirectionType@@@Z 004380e0 f   usercontrollerWin32.obj
 0001:00037130       ?GetMap@UserController@@QBEPBDHHAAHAAW4eControllerType@@AAW4eDirectionType@@@Z 00438130 f   usercontrollerWin32.obj
 0001:00037200       ?Remap@UserController@@IAEXW4eControllerType@@HPAMH@Z 00438200 f   usercontrollerWin32.obj
 0001:000372d0       ?ClearMappings@UserController@@IAEXXZ 004382d0 f   usercontrollerWin32.obj
 0001:00037310       ?LoadFEMappings@UserController@@IAEXXZ 00438310 f   usercontrollerWin32.obj
 0001:00037540       ?ResetMouseAxes@UserController@@IAEXXZ 00438540 f   usercontrollerWin32.obj
 0001:00037590       ?radMakeKey@@YA?AVtUidUnaligned@@PBDV1@@Z 00438590 f i usercontrollerWin32.obj
 0001:00037620       ?GetName@VirtualInputs@@SAPBDH@Z 00438620 f   virtualinputs.obj
 0001:00037630       ?GetType@VirtualInputs@@SA?AW4eMapType@@H@Z 00438630 f   virtualinputs.obj
 0001:00037690       ?GetNumber@VirtualInputs@@SAHXZ 00438690 f   virtualinputs.obj
 0001:000376a0       ??0WheelRumble@@QAE@XZ     004386a0 f   wheelrumble.obj
 0001:00037730       ??_GWheelRumble@@UAEPAXI@Z 00438730 f i wheelrumble.obj
 0001:00037730       ??_EWheelRumble@@UAEPAXI@Z 00438730 f i wheelrumble.obj
 0001:00037750       ??1WheelRumble@@UAE@XZ     00438750 f   wheelrumble.obj
 0001:00037760       ?SetMagDir@WheelRumble@@QAEXGG@Z 00438760 f   wheelrumble.obj
 0001:00037780       ?SetPPO@WheelRumble@@QAEXGGF@Z 00438780 f   wheelrumble.obj
 0001:000377a0       ?Update@WheelRumble@@UAEXI@Z 004387a0 f   wheelrumble.obj
 0001:000377e0       ?GetAIRef@StaticPhysDSG@@UAEHXZ 004387e0 f i interiormanager.obj
 0001:000377f0       ??0InteriorCentre@@QAE@XZ  004387f0 f i interiormanager.obj
 0001:00037800       ??1UsedModel@PedestrianManager@@QAE@XZ 00438800 f i pedestrianmanager.obj
 0001:00037800       ??1MouthFlapperDefaultSetting@@QAE@XZ 00438800 f i mouthflapper.obj
 0001:00037800       ??1tNameInsensitive@@QAE@XZ 00438800 f i console.obj
 0001:00037800       ??1tTextureGlyph@@QAE@XZ   00438800 f i pure3dwr:texturefont.obj
 0001:00037800       ??1InteriorCentre@@QAE@XZ  00438800 f i interiormanager.obj
 0001:00037810       ??0GagBinding@InteriorManager@@QAE@XZ 00438810 f   interiormanager.obj
 0001:00037850       ?Clear@GagBinding@InteriorManager@@QAEXXZ 00438850 f   interiormanager.obj
 0001:00037940       ??1GagDrawable@@UAE@XZ     00438940 f i interiormanager.obj
 0001:000379a0       ?GetBoundingBox@GagDrawable@@UAEXPAVBox3D@RadicalMathLibrary@@@Z 004389a0 f i interiormanager.obj
 0001:00037a00       ?GetBoundingSphere@GagDrawable@@UAEXPAVSphere@RadicalMathLibrary@@@Z 00438a00 f i interiormanager.obj
 0001:00037a40       ?SetPosition@GagDrawable@@QAEX_NABVVector@RadicalMathLibrary@@@Z 00438a40 f i interiormanager.obj
 0001:00037b40       ?SimUpdate@GagDrawable@@QAEXM@Z 00438b40 f i interiormanager.obj
 0001:00037be0       ??_EGagDrawable@@UAEPAXI@Z 00438be0 f i interiormanager.obj
 0001:00037be0       ??_GGagDrawable@@UAEPAXI@Z 00438be0 f i interiormanager.obj
 0001:00037c00       ?Load@Gag@@QAEXXZ          00438c00 f i interiormanager.obj
 0001:00037c70       ?SoundLoad@Gag@@QAEXXZ     00438c70 f i interiormanager.obj
 0001:00037c90       ?Unload@Gag@@QAEXXZ        00438c90 f i interiormanager.obj
 0001:00037d20       ?SoundUnload@Gag@@QAEXXZ   00438d20 f i interiormanager.obj
 0001:00037d40       ?HandleEvent@Gag@@UAEXW4EventEnum@@PAX@Z 00438d40 f i interiormanager.obj
 0001:00037dd0       ?NISSoundPlaybackComplete@Gag@@UAEXXZ 00438dd0 f i interiormanager.obj
 0001:00037de0       ?Update@Gag@@QAEXI@Z       00438de0 f i interiormanager.obj
 0001:00038210       ?PlayDialog@Gag@@IAEXI@Z   00439210 f i interiormanager.obj
 0001:000382f0       ?Play@Gag@@IAEXXZ          004392f0 f i interiormanager.obj
 0001:000386f0       ??0Gag@@QAE@PAUGagBinding@InteriorManager@@@Z 004396f0 f i interiormanager.obj
 0001:00038840       ??1Gag@@UAE@XZ             00439840 f i interiormanager.obj
 0001:000388e0       ?OnLoadDataComplete@Gag@@UAEXXZ 004398e0 f i interiormanager.obj
 0001:00038d80       ?Trigger@Gag@@QAEXPAVEventLocator@@@Z 00439d80 f i interiormanager.obj
 0001:00038e20       ?OnButtonPressed@Gag@@MAE_NPAVCharacter@@PAVSequencer@@@Z 00439e20 f i interiormanager.obj
 0001:00038e30       ??_EGag@@UAEPAXI@Z         00439e30 f i interiormanager.obj
 0001:00038e30       ??_GGag@@UAEPAXI@Z         00439e30 f i interiormanager.obj
 0001:00038e50       ??0GagDrawable@@QAE@PAVGag@@@Z 00439e50 f   interiormanager.obj
 0001:00038fe0       ?Display@GagDrawable@@UAEXXZ 00439fe0 f   interiormanager.obj
 0001:000390d0       ?OnButtonPressed@InteriorExit@@UAE_NPAVCharacter@@PAVSequencer@@@Z 0043a0d0 f i interiormanager.obj
 0001:00039100       ?CreateInstance@InteriorManager@@SAPAV1@XZ 0043a100 f   interiormanager.obj
 0001:00039300       ?ClassifyPoint@InteriorManager@@QAEABVtName@@ABVVector@RadicalMathLibrary@@@Z 0043a300 f   interiormanager.obj
 0001:00039400       ?GetInstance@InteriorManager@@SAPAV1@XZ 0043a400 f   interiormanager.obj
 0001:00039410       ?DestroyInstance@InteriorManager@@SAXXZ 0043a410 f   interiormanager.obj
 0001:00039430       ?OnBootupStart@InteriorManager@@QAEXXZ 0043a430 f   interiormanager.obj
 0001:00039800       ?OnGameplayStart@InteriorManager@@QAEXXZ 0043a800 f   interiormanager.obj
 0001:00039850       ?OnGameplayEnd@InteriorManager@@QAEXXZ 0043a850 f   interiormanager.obj
 0001:00039880       ?UnloadGagSounds@InteriorManager@@QAEXXZ 0043a880 f   interiormanager.obj
 0001:000398e0       ?Enter@InteriorManager@@QAEXPAVInteriorEntranceLocator@@PAVCharacter@@PAVSequencer@@@Z 0043a8e0 f   interiormanager.obj
 0001:00039a90       ?Update@InteriorManager@@QAEXI@Z 0043aa90 f   interiormanager.obj
 0001:00039b10       ?HandleEvent@InteriorManager@@UAEXW4EventEnum@@PAX@Z 0043ab10 f   interiormanager.obj
 0001:00039f30       ?ConsoleClearGagBindings@InteriorManager@@CAXHPAPAD@Z 0043af30 f   interiormanager.obj
 0001:00039f40       ?ClearGagBindings@InteriorManager@@AAEXXZ 0043af40 f   interiormanager.obj
 0001:00039f80       ?ConsoleAddGagBinding@InteriorManager@@CAXHPAPAD@Z 0043af80 f   interiormanager.obj
 0001:0003a030       ?AddGagBinding@InteriorManager@@AAEXVtUidUnaligned@@PADW4p3dCycleMode@@H1@Z 0043b030 f   interiormanager.obj
 0001:0003a130       ?GagBegin@InteriorManager@@AAEXPAD@Z 0043b130 f   interiormanager.obj
 0001:0003a150       ?GetBuildBinding@InteriorManager@@AAEPAUGagBinding@1@XZ 0043b150 f   interiormanager.obj
 0001:0003a160       ?GagEnd@InteriorManager@@AAEXXZ 0043b160 f   interiormanager.obj
 0001:0003a1b0       ?ConsoleGagBegin@InteriorManager@@CAXHPAPAD@Z 0043b1b0 f   interiormanager.obj
 0001:0003a1d0       ?ConsoleGagSetInterior@InteriorManager@@CAXHPAPAD@Z 0043b1d0 f   interiormanager.obj
 0001:0003a260       ?ConsoleGagSetCycle@InteriorManager@@CAXHPAPAD@Z 0043b260 f   interiormanager.obj
 0001:0003a320       ?ConsoleGagSetWeight@InteriorManager@@CAXHPAPAD@Z 0043b320 f   interiormanager.obj
 0001:0003a350       ?ConsoleGagSetSound@InteriorManager@@CAXHPAPAD@Z 0043b350 f   interiormanager.obj
 0001:0003a3a0       ?ConsoleGagSetIntro@InteriorManager@@CAXHPAPAD@Z 0043b3a0 f   interiormanager.obj
 0001:0003a3d0       ?ConsoleGagSetOutro@InteriorManager@@CAXHPAPAD@Z 0043b3d0 f   interiormanager.obj
 0001:0003a400       ?ConsoleGagPlayFMV@InteriorManager@@CAXHPAPAD@Z 0043b400 f   interiormanager.obj
 0001:0003a420       ?ConsoleGagSetTrigger@InteriorManager@@CAXHPAPAD@Z 0043b420 f   interiormanager.obj
 0001:0003a540       ?ConsoleGagSetPosition@InteriorManager@@CAXHPAPAD@Z 0043b540 f   interiormanager.obj
 0001:0003a5f0       ?ConsoleGagSetRandom@InteriorManager@@CAXHPAPAD@Z 0043b5f0 f   interiormanager.obj
 0001:0003a620       ?ConsoleGagSetCameraShake@InteriorManager@@CAXHPAPAD@Z 0043b620 f   interiormanager.obj
 0001:0003a6f0       ?ConsoleGagSetCoins@InteriorManager@@CAXHPAPAD@Z 0043b6f0 f   interiormanager.obj
 0001:0003a750       ?ConsoleGagSetSparkle@InteriorManager@@CAXHPAPAD@Z 0043b750 f   interiormanager.obj
 0001:0003a780       ?ConsoleGagSetAnimCollision@InteriorManager@@CAXHPAPAD@Z 0043b780 f   interiormanager.obj
 0001:0003a7b0       ?ConsoleGagSetLoadDistances@InteriorManager@@CAXHPAPAD@Z 0043b7b0 f   interiormanager.obj
 0001:0003a800       ?ConsoleGagSetSoundLoadDistances@InteriorManager@@CAXHPAPAD@Z 0043b800 f   interiormanager.obj
 0001:0003a850       ?ConsoleGagSetPersist@InteriorManager@@CAXHPAPAD@Z 0043b850 f   interiormanager.obj
 0001:0003a8a0       ?ConsoleGagCheckCollCards@InteriorManager@@CAXHPAPAD@Z 0043b8a0 f   interiormanager.obj
 0001:0003aa20       ?ConsoleGagCheckMovie@InteriorManager@@CAXHPAPAD@Z 0043ba20 f   interiormanager.obj
 0001:0003ab60       ?ConsoleGagEnd@InteriorManager@@CAXHPAPAD@Z 0043bb60 f   interiormanager.obj
 0001:0003ab70       ?LoadLevelGags@InteriorManager@@QAEXABVVector@RadicalMathLibrary@@_N@Z 0043bb70 f   interiormanager.obj
 0001:0003acb0       ??0InteriorManager@@AAE@XZ 0043bcb0 f   interiormanager.obj
 0001:0003add0       ??_GInteriorManager@@EAEPAXI@Z 0043bdd0 f i interiormanager.obj
 0001:0003add0       ??_EInteriorManager@@EAEPAXI@Z 0043bdd0 f i interiormanager.obj
 0001:0003adf0       ??1InteriorExit@@UAE@XZ    0043bdf0 f i interiormanager.obj
 0001:0003adf0       ??1AmbientDialogueButton@@UAE@XZ 0043bdf0 f i character.obj
 0001:0003ae00       ??1InteriorManager@@EAE@XZ 0043be00 f   interiormanager.obj
 0001:0003ae60       ?SwitchToInterior@InteriorManager@@AAEXXZ 0043be60 f   interiormanager.obj
 0001:0003b040       ?SetupLightsAndAnims@InteriorManager@@AAEXXZ 0043c040 f   interiormanager.obj
 0001:0003b1e0       ?AttemptEntry@InteriorManager@@AAEXXZ 0043c1e0 f   interiormanager.obj
 0001:0003b4f0       ?SwitchToExterior@InteriorManager@@AAEXXZ 0043c4f0 f   interiormanager.obj
 0001:0003b650       ?ExitInterior@InteriorManager@@AAEXXZ 0043c650 f   interiormanager.obj
 0001:0003b7a0       ?LoadGagNIS@InteriorManager@@AAEXVtUidUnaligned@@@Z 0043c7a0 f   interiormanager.obj
 0001:0003b9c0       ?ClearGags@InteriorManager@@AAEXXZ 0043c9c0 f   interiormanager.obj
 0001:0003ba00       ?GetExitPos@InteriorManager@@AAEXXZ 0043ca00 f   interiormanager.obj
 0001:0003ba70       ?CollectionEffect@InteriorManager@@QAEXPBDABVVector@RadicalMathLibrary@@@Z 0043ca70 f   interiormanager.obj
 0001:0003ba80       ?find@?$@VCollisionObject@sim@@@p3d@@YAPAVCollisionObject@sim@@PAVtEntityStore@@PBD@Z 0043ca80 f i interiormanager.obj
 0001:0003baf0       ?find@?$@VtFrameController@@@p3d@@YAPAVtFrameController@@PAVtEntityStore@@PBD@Z 0043caf0 f i interiormanager.obj
 0001:0003bb60       ?find@?$@VDirectionalLocator@@@p3d@@YAPAVDirectionalLocator@@PAVtEntityStore@@PBD@Z 0043cb60 f i interiormanager.obj
 0001:0003bbd0       ?find@?$@VCollisionObject@sim@@@p3d@@YAPAVCollisionObject@sim@@PAVtEntityStore@@ABVtName@@@Z 0043cbd0 f i interiormanager.obj
 0001:0003bca0       ?find@?$@VtFrameController@@@p3d@@YAPAVtFrameController@@PAVtEntityStore@@ABVtName@@@Z 0043cca0 f i interiormanager.obj
 0001:0003bd70       ?find@?$@VDirectionalLocator@@@p3d@@YAPAVDirectionalLocator@@PAVtEntityStore@@ABVtName@@@Z 0043cd70 f i interiormanager.obj
 0001:0003be30       ?safe_cast@?$SafeCast@VCollisionObject@sim@@@radLoadInventory@@UAEPAUIRefCount@@PAU3@@Z 0043ce30 f i interiormanager.obj
 0001:0003be50       ?safe_cast@?$SafeCast@VtFrameController@@@radLoadInventory@@UAEPAUIRefCount@@PAU3@@Z 0043ce50 f i interiormanager.obj
 0001:0003be70       ?safe_cast@?$SafeCast@VDirectionalLocator@@@radLoadInventory@@UAEPAUIRefCount@@PAU3@@Z 0043ce70 f i interiormanager.obj
 0001:0003be90       ??_EGag@@WBA@AEPAXI@Z      0043ce90 f i interiormanager.obj
 0001:0003bea0       ?CheckChunkID@CameraDataLoader@@UAE_NI@Z 0043cea0 f i cameradataloader.obj
 0001:0003bec0       ?GetChunkID@CameraDataLoader@@UAEIXZ 0043cec0 f i cameradataloader.obj
 0001:0003bed0       ??1WalkerCamDataChunk@@UAE@XZ 0043ced0 f i cameradataloader.obj
 0001:0003bee0       ??_EWalkerCamDataChunk@@UAEPAXI@Z 0043cee0 f i cameradataloader.obj
 0001:0003bee0       ??_GWalkerCamDataChunk@@UAEPAXI@Z 0043cee0 f i cameradataloader.obj
 0001:0003bf00       ??0CameraDataLoader@@QAE@XZ 0043cf00 f   cameradataloader.obj
 0001:0003bf10       ?Load@CameraDataLoader@@UAE?AW4tLoadStatus@@PAVtChunkFile@@PAVtEntityStore@@@Z 0043cf10 f   cameradataloader.obj
 0001:0003c270       ?Release@ChoreoFileHandler@@UAEXXZ 0043d270 f i choreofilehandler.obj
 0001:0003c270       ?Release@ConsoleFileHandler@@UAEXXZ 0043d270 f i consolefilehandler.obj
 0001:0003c270       ?Release@CementFileHandler@@UAEXXZ 0043d270 f i cementfilehandler.obj
 0001:0003c270       ?Release@IconFileHandler@@UAEXXZ 0043d270 f i iconfilehandler.obj
 0001:0003c270       ?Release@FileHandler@@UAEXXZ 0043d270 f i cementfilehandler.obj
 0001:0003c290       ??_EFileHandler@@UAEPAXI@Z 0043d290 f i cementfilehandler.obj
 0001:0003c290       ??_GFileHandler@@UAEPAXI@Z 0043d290 f i cementfilehandler.obj
 0001:0003c2b0       ?AddRef@SoundCluster@@UAEXXZ 0043d2b0 f i soundcluster.obj
 0001:0003c2b0       ?AddRef@daSoundPlayerBase@Sound@@UAEXXZ 0043d2b0 f i dasoundplayer.obj
 0001:0003c2b0       ?AddRef@IRadTypeInfoEnum@@UAEXXZ 0043d2b0 f i radscriptwr:TypeInfoLoader.obj
 0001:0003c2b0       ?AddRef@globalSettings@@UAEXXZ 0043d2b0 f i globalsettings.obj
 0001:0003c2b0       ?AddRef@reverbSettings@@UAEXXZ 0043d2b0 f i reverbsettings.obj
 0001:0003c2b0       ?AddRef@IRadTypeInfoParam@@UAEXXZ 0043d2b0 f i radscriptwr:TypeInfoLoader.obj
 0001:0003c2b0       ?AddRef@ConsoleFileHandler@@UAEXXZ 0043d2b0 f i consolefilehandler.obj
 0001:0003c2b0       ?AddRef@daSoundPlayerManager@Sound@@UAEXXZ 0043d2b0 f i playermanager.obj
 0001:0003c2b0       ?AddRef@radSoundMemoryDataSource@@UAEXXZ 0043d2b0 f i radsoundwr:memorydatasource.obj
 0001:0003c2b0       ?AddRef@ChoreoFileHandler@@UAEXXZ 0043d2b0 f i choreofilehandler.obj
 0001:0003c2b0       ?AddRef@radSoundHalPositionalGroup@@UAEXXZ 0043d2b0 f i radsoundwr:positionalgroup.obj
 0001:0003c2b0       ?AddRef@positionalSoundSettings@@UAEXXZ 0043d2b0 f i positionalsoundsettings.obj
 0001:0003c2b0       ?AddRef@radSoundMemorySpaceObject@@UAEXXZ 0043d2b0 f i radsoundwr:memoryspaceobject.obj
 0001:0003c2b0       ?AddRef@carSoundParameters@@UAEXXZ 0043d2b0 f i carsoundparameters.obj
 0001:0003c2b0       ?AddRef@IconFileHandler@@UAEXXZ 0043d2b0 f i iconfilehandler.obj
 0001:0003c2b0       ?AddRef@IRadScript@@UAEXXZ 0043d2b0 f i radscriptwr:script.obj
 0001:0003c2b0       ?AddRef@IRadTypeInfo@@UAEXXZ 0043d2b0 f i radscriptwr:TypeInfoLoader.obj
 0001:0003c2b0       ?AddRef@daSoundTuner@Sound@@UAEXXZ 0043d2b0 f i soundtuner.obj
 0001:0003c2b0       ?AddRef@radSoundBufferLoaderWin@@UAEXXZ 0043d2b0 f i radsoundwr:bufferloader.obj
 0001:0003c2b0       ?AddRef@daSoundResourceManager@Sound@@UAEXXZ 0043d2b0 f i soundresourcemanager.obj
 0001:0003c2b0       ?AddRef@radMoviePlayerBink@@UAEXXZ 0043d2b0 f i radmoviewr:binkmovieplayer.obj
 0001:0003c2b0       ?AddRef@radSoundHalAudioFormat@@UAEXXZ 0043d2b0 f i radsoundwr:audioformat.obj
 0001:0003c2b0       ?AddRef@SoundRenderingPlayerCallback@@UAEXXZ 0043d2b0 f i soundrenderercallback.obj
 0001:0003c2b0       ?AddRef@radSoundDataCacheDataSource@@UAEXXZ 0043d2b0 f i radsoundwr:datacache.obj
 0001:0003c2b0       ?AddRef@FileHandler@@UAEXXZ 0043d2b0 f i cementfilehandler.obj
 0001:0003c2b0       ?AddRef@radRemoteScript@@UAEXXZ 0043d2b0 f i radscriptwr:remotescript.obj
 0001:0003c2b0       ?AddRef@radSoundHalMemoryRegion@@UAEXXZ 0043d2b0 f i radsoundwr:memoryregion.obj
 0001:0003c2b0       ?AddRef@radSoundHalListener@@UAEXXZ 0043d2b0 f i radsoundwr:listener.obj
 0001:0003c2b0       ?AddRef@radSoundClipPlayer@@UAEXXZ 0043d2b0 f i radsoundwr:clipplayer.obj
 0001:0003c2b0       ?AddRef@CementFileHandler@@UAEXXZ 0043d2b0 f i cementfilehandler.obj
 0001:0003c2b0       ?AddRef@IRadTypeInfoMethod@@UAEXXZ 0043d2b0 f i radscriptwr:TypeInfoLoader.obj
 0001:0003c2b0       ?AddRef@IRadTypeInfoIntLiteral@@UAEXXZ 0043d2b0 f i radscriptwr:TypeInfoLoader.obj
 0001:0003c2b0       ?AddRef@radSoundHalSystem@@UAEXXZ 0043d2b0 f i radsoundwr:system.obj
 0001:0003c2b0       ?AddRef@radMovieRenderStrategyBink@@UAEXXZ 0043d2b0 f i radmoviewr:binkrenderstrategy.obj
 0001:0003c2b0       ?AddRef@radSoundHalEffectEAX2Reverb@@UAEXXZ 0043d2b0 f i radsoundwr:effect.obj
 0001:0003c2c0       ??0CementFileHandler@@QAE@PAUCementLibraryStruct@LoadingManager@@@Z 0043d2c0 f   cementfilehandler.obj
 0001:0003c2e0       ??_ECementFileHandler@@UAEPAXI@Z 0043d2e0 f i cementfilehandler.obj
 0001:0003c2e0       ??_GCementFileHandler@@UAEPAXI@Z 0043d2e0 f i cementfilehandler.obj
 0001:0003c300       ??1CementFileHandler@@UAE@XZ 0043d300 f   cementfilehandler.obj
 0001:0003c310       ?LoadFile@CementFileHandler@@UAEXPBDPAULoadFileCallback@FileHandler@@PAXW4GameMemoryAllocator@@@Z 0043d310 f   cementfilehandler.obj
 0001:0003c360       ?OnCementLibraryRegistered@CementFileHandler@@UAEXPAX@Z 0043d360 f   cementfilehandler.obj
 0001:0003c380       ??0ChoreoFileHandler@@QAE@XZ 0043d380 f   choreofilehandler.obj
 0001:0003c3b0       ??_GChoreoFileHandler@@UAEPAXI@Z 0043d3b0 f i choreofilehandler.obj
 0001:0003c3b0       ??_EChoreoFileHandler@@UAEPAXI@Z 0043d3b0 f i choreofilehandler.obj
 0001:0003c3d0       ??1ChoreoFileHandler@@UAE@XZ 0043d3d0 f   choreofilehandler.obj
 0001:0003c3e0       ?LoadFile@ChoreoFileHandler@@UAEXPBDPAULoadFileCallback@FileHandler@@PAXW4GameMemoryAllocator@@@Z 0043d3e0 f   choreofilehandler.obj
 0001:0003c430       ?OnFileOperationsComplete@ChoreoFileHandler@@UAEXPAX@Z 0043d430 f   choreofilehandler.obj
 0001:0003c590       ?LoadFileSync@ChoreoFileHandler@@UAEXPBD@Z 0043d590 f   choreofilehandler.obj
 0001:0003c630       ?SetSectionName@P3DFileHandler@@QAEXPBD@Z 0043d630 f   p3dfilehandler.obj
 0001:0003c630       ?SetSectionName@ChoreoFileHandler@@QAEXPBD@Z 0043d630 f   choreofilehandler.obj
 0001:0003c640       ?load@p3d@@YA_NPBD@Z       0043d640 f i choreofilehandler.obj
 0001:0003c6c0       ??0ConsoleFileHandler@@QAE@XZ 0043d6c0 f   consolefilehandler.obj
 0001:0003c6f0       ??_EConsoleFileHandler@@UAEPAXI@Z 0043d6f0 f i consolefilehandler.obj
 0001:0003c6f0       ??_GConsoleFileHandler@@UAEPAXI@Z 0043d6f0 f i consolefilehandler.obj
 0001:0003c710       ??1ConsoleFileHandler@@UAE@XZ 0043d710 f   consolefilehandler.obj
 0001:0003c720       ?LoadFile@ConsoleFileHandler@@UAEXPBDPAULoadFileCallback@FileHandler@@PAXW4GameMemoryAllocator@@@Z 0043d720 f   consolefilehandler.obj
 0001:0003c770       ?OnFileOperationsComplete@ConsoleFileHandler@@UAEXPAX@Z 0043d770 f   consolefilehandler.obj
 0001:0003c820       ?LoadFileSync@ConsoleFileHandler@@UAEXPBD@Z 0043d820 f   consolefilehandler.obj
 0001:0003c8c0       ?CreateFileHandler@FileHandlerFactory@@SAPAVFileHandler@@W4FileHandlerEnum@@PBD@Z 0043d8c0 f   filehandlerfactory.obj
 0001:0003cbe0       ??0IconFileHandler@@QAE@XZ 0043dbe0 f   iconfilehandler.obj
 0001:0003cc10       ??_GIconFileHandler@@UAEPAXI@Z 0043dc10 f i iconfilehandler.obj
 0001:0003cc10       ??_EIconFileHandler@@UAEPAXI@Z 0043dc10 f i iconfilehandler.obj
 0001:0003cc30       ??1IconFileHandler@@UAE@XZ 0043dc30 f   iconfilehandler.obj
 0001:0003cc40       ?LoadFile@IconFileHandler@@UAEXPBDPAULoadFileCallback@FileHandler@@PAXW4GameMemoryAllocator@@@Z 0043dc40 f   iconfilehandler.obj
 0001:0003cc90       ?OnFileOperationsComplete@IconFileHandler@@UAEXPAX@Z 0043dc90 f   iconfilehandler.obj
 0001:0003cd20       ?AddRef@ChoreoFileHandler@@WBA@AEXXZ 0043dd20 f i choreofilehandler.obj
 0001:0003cd20       ?AddRef@CementFileHandler@@WBA@AEXXZ 0043dd20 f i cementfilehandler.obj
 0001:0003cd20       ?AddRef@IconFileHandler@@WBA@AEXXZ 0043dd20 f i iconfilehandler.obj
 0001:0003cd20       ?AddRef@ConsoleFileHandler@@WBA@AEXXZ 0043dd20 f i consolefilehandler.obj
 0001:0003cd30       ?Release@ChoreoFileHandler@@WBA@AEXXZ 0043dd30 f i choreofilehandler.obj
 0001:0003cd30       ?Release@IconFileHandler@@WBA@AEXXZ 0043dd30 f i iconfilehandler.obj
 0001:0003cd30       ?Release@CementFileHandler@@WBA@AEXXZ 0043dd30 f i cementfilehandler.obj
 0001:0003cd30       ?Release@ConsoleFileHandler@@WBA@AEXXZ 0043dd30 f i consolefilehandler.obj
 0001:0003cd40       ??0IntersectionLoader@@QAE@XZ 0043dd40 f   intersectionloader.obj
 0001:0003cd50       ?Load@IntersectionLoader@@UAE?AW4tLoadStatus@@PAVtChunkFile@@PAVtEntityStore@@@Z 0043dd50 f   intersectionloader.obj
 0001:0003ceb0       ?CheckChunkID@IntersectionLoader@@UAE_NI@Z 0043deb0 f   intersectionloader.obj
 0001:0003ced0       ?GetChunkID@IntersectionLoader@@UAEIXZ 0043ded0 f   intersectionloader.obj
 0001:0003cee0       ?GetInstance@LoadingManager@@SAPAV1@XZ 0043dee0 f   loadingmanager.obj
 0001:0003cef0       ?CreateInstance@LoadingManager@@SAPAV1@XZ 0043def0 f   loadingmanager.obj
 0001:0003cf40       ?DestroyInstance@LoadingManager@@SAXXZ 0043df40 f   loadingmanager.obj
 0001:0003cf70       ?AddCallback@LoadingManager@@QAEXPAUProcessRequestsCallback@1@PAX@Z 0043df70 f   loadingmanager.obj
 0001:0003cfe0       ?AddRequest@LoadingManager@@QAEXW4FileHandlerEnum@@PBDW4GameMemoryAllocator@@11PAUProcessRequestsCallback@1@PAX@Z 0043dfe0 f   loadingmanager.obj
 0001:0003d290       ?OnLoadFileComplete@LoadingManager@@EAEXPAX@Z 0043e290 f   loadingmanager.obj
 0001:0003d320       ?CancelPendingRequests@LoadingManager@@QAEXXZ 0043e320 f   loadingmanager.obj
 0001:0003d3a0       ?RegisterCementLibrary@LoadingManager@@QAEHPBD@Z 0043e3a0 f   loadingmanager.obj
 0001:0003d4e0       ?UnregisterCementLibrary@LoadingManager@@QAEXH@Z 0043e4e0 f   loadingmanager.obj
 0001:0003d510       ??0LoadingManager@@AAE@XZ  0043e510 f   loadingmanager.obj
 0001:0003d560       ??1LoadingManager@@AAE@XZ  0043e560 f   loadingmanager.obj
 0001:0003d590       ?ProcessNextRequest@LoadingManager@@AAEXXZ 0043e590 f   loadingmanager.obj
 0001:0003d650       ??1IWrappedLoader@@UAE@XZ  0043e650 f i locatorloader.obj
 0001:0003d660       ??_EIWrappedLoader@@UAEPAXI@Z 0043e660 f i locatorloader.obj
 0001:0003d660       ??_GIWrappedLoader@@UAEPAXI@Z 0043e660 f i locatorloader.obj
 0001:0003d680       ?SetMatrix@EventLocator@@UAEXABVMatrix@RadicalMathLibrary@@@Z 0043e680 f i locatorloader.obj
 0001:0003d6a0       ??0PedGroupLocator@@QAE@XZ 0043e6a0 f i locatorloader.obj
 0001:0003d6d0       ??1PedGroupLocator@@UAE@XZ 0043e6d0 f i locatorloader.obj
 0001:0003d6f0       ??_GPedGroupLocator@@UAEPAXI@Z 0043e6f0 f i locatorloader.obj
 0001:0003d6f0       ??_EPedGroupLocator@@UAEPAXI@Z 0043e6f0 f i locatorloader.obj
 0001:0003d710       ?SetString@ScriptLocator@@QAEXPBD@Z 0043e710 f i locatorloader.obj
 0001:0003d740       ?SetSplineCurve@RailCam@@QAEXAAVSplineCurve@RadicalMathLibrary@@@Z 0043e740 f i locatorloader.obj
 0001:0003d7d0       ??0LocatorLoader@@QAE@XZ   0043e7d0 f   locatorloader.obj
 0001:0003d800       ??_GLocatorLoader@@UAEPAXI@Z 0043e800 f i locatorloader.obj
 0001:0003d800       ??_ELocatorLoader@@UAEPAXI@Z 0043e800 f i locatorloader.obj
 0001:0003d820       ??1LocatorLoader@@UAE@XZ   0043e820 f   locatorloader.obj
 0001:0003d840       ?LoadObject@LocatorLoader@@EAEPAVtEntity@@PAVtChunkFile@@PAVtEntityStore@@@Z 0043e840 f   locatorloader.obj
 0001:0003e5c0       ?ModRegdListener@AnimDynaPhysLoader@@UAEXPAVChunkListenerCallback@@H@Z 0043f5c0 f   AnimDynaPhysLoader.obj
 0001:0003e5c0       ?ModRegdListener@AnimObjDSGWrapperLoader@@UAEXPAVChunkListenerCallback@@H@Z 0043f5c0 f   AnimDynaPhysLoader.obj
 0001:0003e5c0       ?ModRegdListener@RoadLoader@@UAEXPAVChunkListenerCallback@@H@Z 0043f5c0 f   roadloader.obj
 0001:0003e5c0       ?ModRegdListener@BillboardWrappedLoader@@UAEXPAVChunkListenerCallback@@H@Z 0043f5c0 f   BillboardWrappedLoader.obj
 0001:0003e5c0       ?ModRegdListener@GeometryWrappedLoader@@UAEXPAVChunkListenerCallback@@H@Z 0043f5c0 f   GeometryWrappedLoader.obj
 0001:0003e5c0       ?ModRegdListener@InstStatPhysLoader@@UAEXPAVChunkListenerCallback@@H@Z 0043f5c0 f   InstStatPhysLoader.obj
 0001:0003e5c0       ?ModRegdListener@BreakableObjectLoader@@UAEXPAVChunkListenerCallback@@H@Z 0043f5c0 f   breakableobjectloader.obj
 0001:0003e5c0       ?ModRegdListener@StaticPhysLoader@@UAEXPAVChunkListenerCallback@@H@Z 0043f5c0 f   StaticPhysLoader.obj
 0001:0003e5c0       ?ModRegdListener@FenceLoader@@UAEXPAVChunkListenerCallback@@H@Z 0043f5c0 f   FenceLoader.obj
 0001:0003e5c0       ?ModRegdListener@LensFlareLoader@@UAEXPAVChunkListenerCallback@@H@Z 0043f5c0 f   LensFlareLoader.obj
 0001:0003e5c0       ?ModRegdListener@AnimDynaPhysWrapperLoader@@UAEXPAVChunkListenerCallback@@H@Z 0043f5c0 f   AnimDynaPhysLoader.obj
 0001:0003e5c0       ?ModRegdListener@StaticEntityLoader@@UAEXPAVChunkListenerCallback@@H@Z 0043f5c0 f   StaticEntityLoader.obj
 0001:0003e5c0       ?ModRegdListener@TreeDSGLoader@@UAEXPAVChunkListenerCallback@@H@Z 0043f5c0 f   TreeDSGLoader.obj
 0001:0003e5c0       ?ModRegdListener@IntersectLoader@@UAEXPAVChunkListenerCallback@@H@Z 0043f5c0 f   IntersectLoader.obj
 0001:0003e5c0       ?ModRegdListener@AnimDSGLoader@@UAEXPAVChunkListenerCallback@@H@Z 0043f5c0 f   AnimDSGLoader.obj
 0001:0003e5c0       ?ModRegdListener@PathLoader@@UAEXPAVChunkListenerCallback@@H@Z 0043f5c0 f   pathloader.obj
 0001:0003e5c0       ?ModRegdListener@DynaPhysLoader@@UAEXPAVChunkListenerCallback@@H@Z 0043f5c0 f   DynaPhysLoader.obj
 0001:0003e5c0       ?ModRegdListener@AnimCollLoader@@UAEXPAVChunkListenerCallback@@H@Z 0043f5c0 f   AnimCollLoader.obj
 0001:0003e5c0       ?ModRegdListener@InstStatEntityLoader@@UAEXPAVChunkListenerCallback@@H@Z 0043f5c0 f   InstStatEntityLoader.obj
 0001:0003e5c0       ?ModRegdListener@InstParticleSystemLoader@@UAEXPAVChunkListenerCallback@@H@Z 0043f5c0 f   instparticlesystemloader.obj
 0001:0003e5c0       ?ModRegdListener@WorldSphereLoader@@UAEXPAVChunkListenerCallback@@H@Z 0043f5c0 f   WorldSphereLoader.obj
 0001:0003e5c0       ?ModRegdListener@LocatorLoader@@UAEXPAVChunkListenerCallback@@H@Z 0043f5c0 f   locatorloader.obj
 0001:0003e5d0       ?LoadTriggerVolume@LocatorLoader@@AAE_NPAVtChunkFile@@PAVTriggerLocator@@_N@Z 0043f5d0 f   locatorloader.obj
 0001:0003e850       ?LoadSpline@LocatorLoader@@AAEPAVRailCam@@PAVtChunkFile@@PAVSplineLocator@@@Z 0043f850 f   locatorloader.obj
 0001:0003ec60       ??_ELocatorLoader@@WBE@AEPAXI@Z 0043fc60 f i locatorloader.obj
 0001:0003ec70       ??0P3DFileHandler@@QAE@XZ  0043fc70 f   p3dfilehandler.obj
 0001:0003eca0       ??_EP3DFileHandler@@UAEPAXI@Z 0043fca0 f i p3dfilehandler.obj
 0001:0003eca0       ??_GP3DFileHandler@@UAEPAXI@Z 0043fca0 f i p3dfilehandler.obj
 0001:0003ecc0       ??1P3DFileHandler@@UAE@XZ  0043fcc0 f   p3dfilehandler.obj
 0001:0003ece0       ?LoadFile@P3DFileHandler@@UAEXPBDPAULoadFileCallback@FileHandler@@PAXW4GameMemoryAllocator@@@Z 0043fce0 f   p3dfilehandler.obj
 0001:0003ed60       ?Done@P3DFileHandler@@UAEXW4tLoadStatus@@PAVtLoadRequest@@@Z 0043fd60 f   p3dfilehandler.obj
 0001:0003ed70       ?LoadFileSync@P3DFileHandler@@UAEXPBD@Z 0043fd70 f   p3dfilehandler.obj
 0001:0003ee60       ??_EP3DFileHandler@@WM@AEPAXI@Z 0043fe60 f i p3dfilehandler.obj
 0001:0003ee70       ?AddRef@P3DFileHandler@@WM@AEXXZ 0043fe70 f i p3dfilehandler.obj
 0001:0003ee80       ?Release@P3DFileHandler@@WM@AEXXZ 0043fe80 f i p3dfilehandler.obj
 0001:0003ee90       ?Done@Callback@tLoadRequest@@UAEXXZ 0043fe90 f i p3dfilehandler.obj
 0001:0003eed0       ?loadAsync@p3d@@YAPAVtLoadRequest@@PBD0PAVCallback@2@PAXI@Z 0043fed0 f i p3dfilehandler.obj
 0001:0003efa0       ??0PathLoader@@QAE@XZ      0043ffa0 f   pathloader.obj
 0001:0003efe0       ??_EPathLoader@@UAEPAXI@Z  0043ffe0 f i pathloader.obj
 0001:0003efe0       ??_GPathLoader@@UAEPAXI@Z  0043ffe0 f i pathloader.obj
 0001:0003f000       ??1PathLoader@@UAE@XZ      00440000 f   pathloader.obj
 0001:0003f020       ?CheckChunkID@PathLoader@@UAE_NI@Z 00440020 f   pathloader.obj
 0001:0003f040       ?Load@PathLoader@@UAE?AW4tLoadStatus@@PAVtChunkFile@@PAVtEntityStore@@@Z 00440040 f   pathloader.obj
 0001:0003f270       ??_EPathLoader@@WBE@AEPAXI@Z 00440270 f i pathloader.obj
 0001:0003f280       ??0RoadDataSegmentLoader@@QAE@XZ 00440280 f   roaddatasegmentloader.obj
 0001:0003f290       ?Load@RoadDataSegmentLoader@@UAE?AW4tLoadStatus@@PAVtChunkFile@@PAVtEntityStore@@@Z 00440290 f   roaddatasegmentloader.obj
 0001:0003f490       ?CheckChunkID@RoadDataSegmentLoader@@UAE_NI@Z 00440490 f   roaddatasegmentloader.obj
 0001:0003f4b0       ?GetChunkID@RoadDataSegmentLoader@@UAEIXZ 004404b0 f   roaddatasegmentloader.obj
 0001:0003f4c0       ??0RoadLoader@@QAE@XZ      004404c0 f   roadloader.obj
 0001:0003f500       ??_ERoadLoader@@UAEPAXI@Z  00440500 f i roadloader.obj
 0001:0003f500       ??_GRoadLoader@@UAEPAXI@Z  00440500 f i roadloader.obj
 0001:0003f520       ??1RoadLoader@@UAE@XZ      00440520 f   roadloader.obj
 0001:0003f540       ?Load@RoadLoader@@UAE?AW4tLoadStatus@@PAVtChunkFile@@PAVtEntityStore@@@Z 00440540 f   roadloader.obj
 0001:0003fc60       ?CheckChunkID@RoadLoader@@UAE_NI@Z 00440c60 f   roadloader.obj
 0001:0003fc80       ?LoadRoadSegment@RoadLoader@@AAEPAVRoadSegment@@PAVtChunkFile@@AAI@Z 00440c80 f   roadloader.obj
 0001:0003fdf0       ??1?$list@PAVRoadSegment@@V?$s2alloc@PAVRoadSegment@@@@@std@@QAE@XZ 00440df0 f i roadloader.obj
 0001:0003fe30       ?erase@?$list@PAUIRadControllerInputPoint@@V?$allocator@PAUIRadControllerInputPoint@@@std@@@std@@QAE?AViterator@12@V312@0@Z 00440e30 f i RealController.obj
 0001:0003fe30       ?erase@?$list@PAVSelectableDialog@@V?$s2alloc@PAVSelectableDialog@@@@@std@@QAE?AViterator@12@V312@0@Z 00440e30 f i dialoglist.obj
 0001:0003fe30       ?erase@?$list@PAVRoadSegment@@V?$s2alloc@PAVRoadSegment@@@@@std@@QAE?AViterator@12@V312@0@Z 00440e30 f i roadloader.obj
 0001:0003fe30       ?erase@?$list@PAVDialogQueueElement@@V?$s2alloc@PAVDialogQueueElement@@@@@std@@QAE?AViterator@12@V312@0@Z 00440e30 f i dialogpriorityqueue.obj
 0001:0003fe80       ?_Buynode@?$list@PAUIRadControllerInputPoint@@V?$allocator@PAUIRadControllerInputPoint@@@std@@@std@@IAEPAU_Node@?$_List_nod@PAUIRadControllerInputPoint@@V?$allocator@PAUIRadControllerInputPoint@@@std@@@2@PAU342@0ABQAUIRadControllerInputPoint@@@Z 00440e80 f i RealController.obj
 0001:0003fe80       ?_Buynode@?$list@PAVDialogQueueElement@@V?$s2alloc@PAVDialogQueueElement@@@@@std@@IAEPAU_Node@?$_List_nod@PAVDialogQueueElement@@V?$s2alloc@PAVDialogQueueElement@@@@@2@PAU342@0ABQAVDialogQueueElement@@@Z 00440e80 f i dialogqueueelement.obj
 0001:0003fe80       ?_Buynode@?$list@PAVRoadSegment@@V?$s2alloc@PAVRoadSegment@@@@@std@@IAEPAU_Node@?$_List_nod@PAVRoadSegment@@V?$s2alloc@PAVRoadSegment@@@@@2@PAU342@0ABQAVRoadSegment@@@Z 00440e80 f i roadloader.obj
 0001:0003fe80       ?_Buynode@?$list@PAVSelectableDialog@@V?$s2alloc@PAVSelectableDialog@@@@@std@@IAEPAU_Node@?$_List_nod@PAVSelectableDialog@@V?$s2alloc@PAVSelectableDialog@@@@@2@PAU342@0ABQAVSelectableDialog@@@Z 00440e80 f i conversation.obj
 0001:0003feb0       ??_ERoadLoader@@WBE@AEPAXI@Z 00440eb0 f i roadloader.obj
 0001:0003fec0       ??0ScroobyFileHandler@@QAE@XZ 00440ec0 f   scroobyfilehandler.obj
 0001:0003fef0       ??_EScroobyFileHandler@@UAEPAXI@Z 00440ef0 f i scroobyfilehandler.obj
 0001:0003fef0       ??_GScroobyFileHandler@@UAEPAXI@Z 00440ef0 f i scroobyfilehandler.obj
 0001:0003ff10       ??1ScroobyFileHandler@@UAE@XZ 00440f10 f   scroobyfilehandler.obj
 0001:0003ff20       ?LoadFile@ScroobyFileHandler@@UAEXPBDPAULoadFileCallback@FileHandler@@PAXW4GameMemoryAllocator@@@Z 00440f20 f   scroobyfilehandler.obj
 0001:0003ff80       ?OnProjectLoadComplete@ScroobyFileHandler@@UAEXPAVProject@Scrooby@@@Z 00440f80 f   scroobyfilehandler.obj
 0001:0003ffb0       ?SetSectionName@ScroobyFileHandler@@QAEXPBD@Z 00440fb0 f   scroobyfilehandler.obj
 0001:0003ffc0       ??0SoundFileHandler@@QAE@XZ 00440fc0 f   soundfilehandler.obj
 0001:0003ffd0       ??_ESoundFileHandler@@UAEPAXI@Z 00440fd0 f i soundfilehandler.obj
 0001:0003ffd0       ??_GSoundFileHandler@@UAEPAXI@Z 00440fd0 f i soundfilehandler.obj
 0001:0003fff0       ??1SoundFileHandler@@UAE@XZ 00440ff0 f   soundfilehandler.obj
 0001:00040000       ?LoadFile@SoundFileHandler@@UAEXPBDPAULoadFileCallback@FileHandler@@PAXW4GameMemoryAllocator@@@Z 00441000 f   soundfilehandler.obj
 0001:00040030       ?LoadCompleted@SoundFileHandler@@QAEXXZ 00441030 f   soundfilehandler.obj
 0001:00040040       ?InitDefaults@CommandLineOptions@@SAXXZ 00441040 f   commandlineoptions.obj
 0001:00040060       ?HandleOption@CommandLineOptions@@SAXQBD@Z 00441060 f   commandlineoptions.obj
 0001:00040a30       ?Get@CommandLineOptions@@SA_NW4CmdLineOptionEnum@@@Z 00441a30 f   commandlineoptions.obj
 0001:00040a60       ?CreateInstance@Game@@SAPAV1@PAVPlatform@@@Z 00441a60 f   game.obj
 0001:00040aa0       ?DestroyInstance@Game@@SAXXZ 00441aa0 f   game.obj
 0001:00040ac0       ?GetInstance@Game@@SAPAV1@XZ 00441ac0 f   game.obj
 0001:00040ad0       ?Initialize@Game@@QAEXXZ   00441ad0 f   game.obj
 0001:00040b20       ?Terminate@Game@@QAEXXZ    00441b20 f   game.obj
 0001:00040b50       ?Run@Game@@QAEXXZ          00441b50 f   game.obj
 0001:00040cb0       ?Stop@Game@@QAEXXZ         00441cb0 f   game.obj
 0001:00040cc0       ?GetRandomSeed@Game@@SAIXZ 00441cc0 f   game.obj
 0001:00040d10       ??0Game@@AAE@PAVPlatform@@@Z 00441d10 f   game.obj
 0001:00040d40       ??_GGame@@EAEPAXI@Z        00441d40 f i game.obj
 0001:00040d40       ??_EGame@@EAEPAXI@Z        00441d40 f i game.obj
 0001:00040d60       ??1Game@@EAE@XZ            00441d60 f   game.obj
 0001:00040d70       ??0pddiColour@@QAE@I@Z     00441d70 f i pchsrr2.obj
 0001:00040d80       ??BpddiColour@@QAEIXZ      00441d80 f i pchsrr2.obj
 0001:00040d80       ??BPascalCString@@QAEPADXZ 00441d80 f i scroobywr:pcstring.obj
 0001:00040d80       ?GetBuffer@UnicodeString@@QAEPAGXZ 00441d80 f i scroobywr:UnicodeString.obj
 0001:00040d90       ?SetRed@pddiColour@@QAEXH@Z 00441d90 f i pchsrr2.obj
 0001:00040db0       ?SetGreen@pddiColour@@QAEXH@Z 00441db0 f i pchsrr2.obj
 0001:00040dd0       ?SetBlue@pddiColour@@QAEXH@Z 00441dd0 f i pchsrr2.obj
 0001:00040de0       ?SetAlpha@pddiColour@@QAEXH@Z 00441de0 f i pchsrr2.obj
 0001:00040e00       ?Alpha@pddiColour@@QBEHXZ  00441e00 f i pchsrr2.obj
 0001:00040e10       ?Intensity@pddiColour@@QBEHXZ 00441e10 f i pchsrr2.obj
 0001:00040e40       ??4pddiColour@@QAEAAU0@ABU0@@Z 00441e40 f i pchsrr2.obj
 0001:00040e50       ??0pddiRect@@QAE@HHHH@Z    00441e50 f i pchsrr2.obj
 0001:00040e70       ?Set@pddiRect@@QAEXHHHH@Z  00441e70 f i pchsrr2.obj
 0001:00040e90       ??4pddiRect@@QAEAAV0@ABV0@@Z 00441e90 f i pchsrr2.obj
 0001:00040ec0       ?CreateSingletons@@YAXXZ   00441ec0 f   singletons.obj
 0001:00040fa0       ?DestroySingletons@@YAXXZ  00441fa0 f   singletons.obj
 0001:00041050       ??0tUidUnaligned@@QAE@XZ   00442050 f   tuidunaligned.obj
 0001:00041060       ??0tUidUnaligned@@QAE@ABV0@@Z 00442060 f   tuidunaligned.obj
 0001:00041080       ??9tUidUnaligned@@QBE_NV0@@Z 00442080 f   tuidunaligned.obj
 0001:000410b0       ??8tUidUnaligned@@QBE_NV0@@Z 004420b0 f   tuidunaligned.obj
 0001:000410d0       ??MtUidUnaligned@@QBE_NV0@@Z 004420d0 f   tuidunaligned.obj
 0001:00041100       ??TtUidUnaligned@@QBE?AV0@V0@@Z 00442100 f   tuidunaligned.obj
 0001:00041130       ??XtUidUnaligned@@QAE?AV0@_K@Z 00442130 f   tuidunaligned.obj
 0001:00041160       ??ItUidUnaligned@@QBE?AV0@V0@@Z 00442160 f   tuidunaligned.obj
 0001:000411a0       ??5tUidUnaligned@@QBE?AV0@H@Z 004421a0 f   tuidunaligned.obj
 0001:000411c0       _WinMain@16                004421c0 f   win32main.obj
 0001:00041390       ?LoadMemP3DFile@@YAXPAEIPAVtEntityStore@@@Z 00442390 f   win32platform.obj
 0001:00041420       ?CreateInstance@Win32Platform@@SAPAV1@PAUHINSTANCE__@@0PADH@Z 00442420 f   win32platform.obj
 0001:00041470       ?GetInstance@Win32Platform@@SAPAV1@XZ 00442470 f   win32platform.obj
 0001:00041480       ?DestroyInstance@Win32Platform@@SAXXZ 00442480 f   win32platform.obj
 0001:000414a0       ?InitializeWindow@Win32Platform@@SA_NPAUHINSTANCE__@@@Z 004424a0 f   win32platform.obj
 0001:00041670       ?InitializeFoundation@Win32Platform@@SAXXZ 00442670 f   win32platform.obj
 0001:00041700       ?InitializeMemory@Win32Platform@@SAXXZ 00442700 f   win32platform.obj
 0001:00041730       ?ShutdownMemory@Win32Platform@@SAXXZ 00442730 f   win32platform.obj
 0001:00041750       ?InitializePlatform@Win32Platform@@UAEXXZ 00442750 f   win32platform.obj
 0001:000417e0       ?ShutdownPlatform@Win32Platform@@UAEXXZ 004427e0 f   win32platform.obj
 0001:000417f0       ?LaunchDashboard@Win32Platform@@UAEXXZ 004427f0 f   win32platform.obj
 0001:00041830       ?DisplaySplashScreen@Win32Platform@@UAEXW4SplashScreen@Platform@@PBDMMMUpddiColour@@H@Z 00442830 f   win32platform.obj
 0001:00041b90       ?DisplaySplashScreen@Win32Platform@@UAEXPBD0MMMUpddiColour@@H@Z 00442b90 f   win32platform.obj
 0001:00041b90       ?UpdateInertialDeformation@PhysicsJoint0D@sim@@MAEXMMMMABVVector@RadicalMathLibrary@@0M@Z 00442b90 f   simwr:physicsjoint.obj
 0001:00041ba0       ?OnControllerError@Win32Platform@@UAEXPBD@Z 00442ba0 f   win32platform.obj
 0001:00041bd0       ?OnDriveError@Win32Platform@@UAE_NW4radFileError@@PBDPAX@Z 00442bd0 f   win32platform.obj
 0001:00041df0       ?SetResolution@Win32Platform@@QAE_NW4Resolution@1@H_N@Z 00442df0 f   win32platform.obj
 0001:00041e30       ?GetResolution@Win32Platform@@QBE?AW4Resolution@1@XZ 00442e30 f   win32platform.obj
 0001:00041e40       ?GetBPP@Win32Platform@@QBEHXZ 00442e40 f   win32platform.obj
 0001:00041e40       ?GetState@CStateProp@@QAEIXZ 00442e40 f   stateprop.obj
 0001:00041e50       ?IsFullscreen@Win32Platform@@QBE_NXZ 00442e50 f   win32platform.obj
 0001:00041e60       ?GetConfigName@Win32Platform@@UBEPBDXZ 00442e60 f   win32platform.obj
 0001:00041e70       ?LoadDefaults@Win32Platform@@UAEXXZ 00442e70 f   win32platform.obj
 0001:00041ea0       ?LoadConfig@Win32Platform@@UAEXAAVConfigString@@@Z 00442ea0 f   win32platform.obj
 0001:00042100       ?SaveConfig@Win32Platform@@UAEXAAVConfigString@@@Z 00443100 f   win32platform.obj
 0001:00042200       ??0Win32Platform@@AAE@PAUHINSTANCE__@@0PADH@Z 00443200 f   win32platform.obj
 0001:00042280       ??_GWin32Platform@@EAEPAXI@Z 00443280 f i win32platform.obj
 0001:00042280       ??_EWin32Platform@@EAEPAXI@Z 00443280 f i win32platform.obj
 0001:000422a0       ??1Win32Platform@@EAE@XZ   004432a0 f   win32platform.obj
 0001:000422c0       ?InitializeFoundationDrive@Win32Platform@@EAEXXZ 004432c0 f   win32platform.obj
 0001:00042310       ?ShutdownFoundation@Win32Platform@@EAEXXZ 00443310 f   win32platform.obj
 0001:00042350       ?InitializePure3D@Win32Platform@@EAEXXZ 00443350 f   win32platform.obj
 0001:00042de0       ??0tPNGHandler@@QAE@XZ     00443de0 f i win32platform.obj
 0001:00042e00       ??0tBMPHandler@@QAE@XZ     00443e00 f i win32platform.obj
 0001:00042e20       ??0tTargaHandler@@QAE@XZ   00443e20 f i win32platform.obj
 0001:00042e40       ??1tP3DFileHandler@@MAE@XZ 00443e40 f i pure3dwr:loadmanager.obj
 0001:00042e40       ??1tDXTNHandler@@UAE@XZ    00443e40 f i pure3dwr:imagefactory.obj
 0001:00042e40       ??1tPNGHandler@@UAE@XZ     00443e40 f i win32platform.obj
 0001:00042e40       ??1tBMPHandler@@UAE@XZ     00443e40 f i win32platform.obj
 0001:00042e40       ??1tRawImageHandler@@UAE@XZ 00443e40 f i pure3dwr:imagefactory.obj
 0001:00042e40       ??1tFileHandler@@MAE@XZ    00443e40 f i win32platform.obj
 0001:00042e40       ??1tTargaHandler@@UAE@XZ   00443e40 f i win32platform.obj
 0001:00042e40       ??1tImageHandler@@UAE@XZ   00443e40 f i win32platform.obj
 0001:00042e50       ?ShutdownPure3D@Win32Platform@@EAEXXZ 00443e50 f   win32platform.obj
 0001:00042ea0       ?InitializeContext@Win32Platform@@AAEXXZ 00443ea0 f   win32platform.obj
 0001:00042f90       ?TranslateResolution@Win32Platform@@CAXW4Resolution@1@AAH1@Z 00443f90 f   win32platform.obj
 0001:00043010       ?IsResolutionSupported@Win32Platform@@ABE_NW4Resolution@1@H@Z 00444010 f   win32platform.obj
 0001:00043090       ?TrackMouseEvent@Win32Platform@@CAHPAUMOUSETRACKER@@@Z 00444090 f   win32platform.obj
 0001:000430d0       ?ResizeWindow@Win32Platform@@AAEXXZ 004440d0 f   win32platform.obj
 0001:000431a0       ?ShowTheCursor@Win32Platform@@CAX_N@Z 004441a0 f   win32platform.obj
 0001:000431c0       ?TrackMouseTimerProc@Win32Platform@@CGXPAUHWND__@@IIK@Z 004441c0 f   win32platform.obj
 0001:00043260       ?WndProc@Win32Platform@@CGJPAUHWND__@@IIJ@Z 00444260 f   win32platform.obj
 0001:000435c0       ?find@?$@VtTextureFont@@@p3d@@YAPAVtTextureFont@@PAVtEntityStore@@PBD@Z 004445c0 f i win32platform.obj
 0001:00043630       ?find@?$@VtTextureFont@@@p3d@@YAPAVtTextureFont@@PAVtEntityStore@@ABVtName@@@Z 00444630 f i win32platform.obj
 0001:000436f0       ?safe_cast@?$SafeCast@VtTextureFont@@@radLoadInventory@@UAEPAUIRefCount@@PAU3@@Z 004446f0 f i win32platform.obj
 0001:00043710       ?GetExtension@tTargaHandler@@UAEPADXZ 00444710 f i win32platform.obj
 0001:00043720       ?GetExtension@tBMPHandler@@UAEPADXZ 00444720 f i win32platform.obj
 0001:00043730       ?SetFullName@tImageHandler@@UAEX_N@Z 00444730 f i win32platform.obj
 0001:00043740       ?GetExtension@tPNGHandler@@UAEPADXZ 00444740 f i win32platform.obj
 0001:00043750       ?CreateHeap@@YAXW4GameMemoryAllocator@@I@Z 00444750 f   createheap.obj
 0001:00043830       ?DestroyHeapA@@YAXW4GameMemoryAllocator@@@Z 00444830 f   createheap.obj
 0001:00043900       ?GetAllocator@@YAPAUIRadMemoryAllocator@@W4GameMemoryAllocator@@@Z 00444900 f   createheap.obj
 0001:00043910       ?GetHeapReference@@YAPAPAUIRadMemoryHeap@@W4GameMemoryAllocator@@@Z 00444910 f   createheap.obj
 0001:00043920       ?GetTotalMemoryFreeInAllHeaps@@YAIXZ 00444920 f   createheap.obj
 0001:00043970       ??1?$map@PBXIU?$less@PBX@std@@V?$s2alloc@U?$pair@QBXI@std@@@@@std@@QAE@XZ 00444970 f i leakdetection.obj
 0001:000439a0       ??0?$map@PBXIU?$less@PBX@std@@V?$s2alloc@U?$pair@QBXI@std@@@@@std@@QAE@XZ 004449a0 f i leakdetection.obj
 0001:000439d0       ?erase@?$_Tree@V?$_Tmap_traits@PBXIU?$less@PBX@std@@V?$s2alloc@U?$pair@QBXI@std@@@@$0A@@std@@@std@@QAE?AViterator@12@V312@@Z 004449d0 f i leakdetection.obj
 0001:000439d0       ?erase@?$_Tree@V?$_Tmap_traits@IHU?$less@I@std@@V?$allocator@U?$pair@$$CBIH@std@@@2@$0A@@std@@@std@@QAE?AViterator@12@V312@@Z 004449d0 f i console.obj
 0001:00043ca0       ?_Erase@?$_Tree@V?$_Tmap_traits@PBXIU?$less@PBX@std@@V?$s2alloc@U?$pair@QBXI@std@@@@$0A@@std@@@std@@IAEXPAU_Node@?$_Tree_nod@V?$_Tmap_traits@PBXIU?$less@PBX@std@@V?$s2alloc@U?$pair@QBXI@std@@@@$0A@@std@@@2@@Z 00444ca0 f i leakdetection.obj
 0001:00043ce0       ?_Lrotate@?$_Tree@V?$_Tmap_traits@IHU?$less@I@std@@V?$allocator@U?$pair@$$CBIH@std@@@2@$0A@@std@@@std@@IAEXPAU_Node@?$_Tree_nod@V?$_Tmap_traits@IHU?$less@I@std@@V?$allocator@U?$pair@$$CBIH@std@@@2@$0A@@std@@@2@@Z 00444ce0 f i console.obj
 0001:00043ce0       ?_Lrotate@?$_Tree@V?$_Tmap_traits@PBXIU?$less@PBX@std@@V?$s2alloc@U?$pair@QBXI@std@@@@$0A@@std@@@std@@IAEXPAU_Node@?$_Tree_nod@V?$_Tmap_traits@PBXIU?$less@PBX@std@@V?$s2alloc@U?$pair@QBXI@std@@@@$0A@@std@@@2@@Z 00444ce0 f i leakdetection.obj
 0001:00043d40       ?_Max@?$_Tree@V?$_Tmap_traits@IHU?$less@I@std@@V?$allocator@U?$pair@$$CBIH@std@@@2@$0A@@std@@@std@@KAPAU_Node@?$_Tree_nod@V?$_Tmap_traits@IHU?$less@I@std@@V?$allocator@U?$pair@$$CBIH@std@@@2@$0A@@std@@@2@PAU342@@Z 00444d40 f i console.obj
 0001:00043d40       ?_Max@?$_Tree@V?$_Tmap_traits@PBXIU?$less@PBX@std@@V?$s2alloc@U?$pair@QBXI@std@@@@$0A@@std@@@std@@KAPAU_Node@?$_Tree_nod@V?$_Tmap_traits@PBXIU?$less@PBX@std@@V?$s2alloc@U?$pair@QBXI@std@@@@$0A@@std@@@2@PAU342@@Z 00444d40 f i leakdetection.obj
 0001:00043d60       ?_Min@?$_Tree@V?$_Tmap_traits@IHU?$less@I@std@@V?$allocator@U?$pair@$$CBIH@std@@@2@$0A@@std@@@std@@KAPAU_Node@?$_Tree_nod@V?$_Tmap_traits@IHU?$less@I@std@@V?$allocator@U?$pair@$$CBIH@std@@@2@$0A@@std@@@2@PAU342@@Z 00444d60 f i console.obj
 0001:00043d60       ?_Min@?$_Tree@V?$_Tmap_traits@PBXIU?$less@PBX@std@@V?$s2alloc@U?$pair@QBXI@std@@@@$0A@@std@@@std@@KAPAU_Node@?$_Tree_nod@V?$_Tmap_traits@PBXIU?$less@PBX@std@@V?$s2alloc@U?$pair@QBXI@std@@@@$0A@@std@@@2@PAU342@@Z 00444d60 f i leakdetection.obj
 0001:00043d80       ?_Rrotate@?$_Tree@V?$_Tmap_traits@IHU?$less@I@std@@V?$allocator@U?$pair@$$CBIH@std@@@2@$0A@@std@@@std@@IAEXPAU_Node@?$_Tree_nod@V?$_Tmap_traits@IHU?$less@I@std@@V?$allocator@U?$pair@$$CBIH@std@@@2@$0A@@std@@@2@@Z 00444d80 f i console.obj
 0001:00043d80       ?_Rrotate@?$_Tree@V?$_Tmap_traits@PBXIU?$less@PBX@std@@V?$s2alloc@U?$pair@QBXI@std@@@@$0A@@std@@@std@@IAEXPAU_Node@?$_Tree_nod@V?$_Tmap_traits@PBXIU?$less@PBX@std@@V?$s2alloc@U?$pair@QBXI@std@@@@$0A@@std@@@2@@Z 00444d80 f i leakdetection.obj
 0001:00043de0       ?erase@?$_Tree@V?$_Tmap_traits@PBXIU?$less@PBX@std@@V?$s2alloc@U?$pair@QBXI@std@@@@$0A@@std@@@std@@QAE?AViterator@12@V312@0@Z 00444de0 f i leakdetection.obj
 0001:00043e60       ?_Buynode@?$_Tree@V?$_Tmap_traits@PBXIU?$less@PBX@std@@V?$s2alloc@U?$pair@QBXI@std@@@@$0A@@std@@@std@@IAEPAU_Node@?$_Tree_nod@V?$_Tmap_traits@PBXIU?$less@PBX@std@@V?$s2alloc@U?$pair@QBXI@std@@@@$0A@@std@@@2@XZ 00444e60 f i leakdetection.obj
 0001:00043e60       ?_Buynode@?$_Tree@V?$_Tmap_traits@IHU?$less@I@std@@V?$allocator@U?$pair@$$CBIH@std@@@2@$0A@@std@@@std@@IAEPAU_Node@?$_Tree_nod@V?$_Tmap_traits@IHU?$less@I@std@@V?$allocator@U?$pair@$$CBIH@std@@@2@$0A@@std@@@2@XZ 00444e60 f i console.obj
 0001:00043ea0       ??0FBMemoryPool@@QAE@IHW4GameMemoryAllocator@@@Z 00444ea0 f   memorypool.obj
 0001:00043ed0       ?Allocate@FBMemoryPool@@QAEPAXI@Z 00444ed0 f   memorypool.obj
 0001:00043f40       ?Free@FBMemoryPool@@QAEXPAXI@Z 00444f40 f   memorypool.obj
 0001:00043fa0       ?AllocateLargestFreeBlock@Memory@@YAIPAUIRadMemoryAllocator@@AAPAX@Z 00444fa0 f   memoryutilities.obj
 0001:00043ff0       ?InitializeMemoryUtilities@Memory@@YAXXZ 00444ff0 f   memoryutilities.obj
 0001:00044010       ?GetLargestFreeBlock@Memory@@YAIPAUIRadMemoryAllocator@@@Z 00445010 f   memoryutilities.obj
 0001:00044080       ?GetTotalMemoryFree@Memory@@YAIXZ 00445080 f   memoryutilities.obj
 0001:000440a0       ?GetTotalMemoryFreeLowWaterMark@Memory@@YAIXZ 004450a0 f   memoryutilities.obj
 0001:000440e0       ?PrintMemoryStatsToTty@Memory@@YAXXZ 004450e0 f   memoryutilities.obj
 0001:00044100       ??_V@YAXPAX@Z              00445100 f   srrmemory.obj
 0001:00044100       ??3@YAXPAX@Z               00445100 f   srrmemory.obj
 0001:00044110       ??_U@YAPAXI@Z              00445110 f   srrmemory.obj
 0001:00044110       ??2@YAPAXI@Z               00445110 f   srrmemory.obj
 0001:00044170       ??_U@YAPAXIW4GameMemoryAllocator@@@Z 00445170 f   srrmemory.obj
 0001:00044170       ??2@YAPAXIW4GameMemoryAllocator@@@Z 00445170 f   srrmemory.obj
 0001:000441b0       ??3@YAXPAXW4GameMemoryAllocator@@@Z 004451b0 f   srrmemory.obj
 0001:000441b0       ??_V@YAXPAXW4GameMemoryAllocator@@@Z 004451b0 f   srrmemory.obj
 0001:000441c0       ?FindFreeMemory@@YAPAXW4GameMemoryAllocator@@I@Z 004451c0 f   srrmemory.obj
 0001:00044210       ?SetupAllocatorSearch@@YAXW4GameMemoryAllocator@@@Z 00445210 f   srrmemory.obj
 0001:00044260       ?PrintOutOfMemoryMessage@@YAXPAXHI@Z 00445260 f   srrmemory.obj
 0001:00044540       ??0HeapStack@@QAE@W4GameMemoryAllocator@@@Z 00445540 f   srrmemory.obj
 0001:00044590       ??_GHeapStack@@UAEPAXI@Z   00445590 f i srrmemory.obj
 0001:00044590       ??_EHeapStack@@UAEPAXI@Z   00445590 f i srrmemory.obj
 0001:000445b0       ??1HeapStack@@UAE@XZ       004455b0 f   srrmemory.obj
 0001:000445d0       ?Push@HeapStack@@QAEXW4GameMemoryAllocator@@@Z 004455d0 f   srrmemory.obj
 0001:00044610       ?Pop@HeapStack@@QAEXW4GameMemoryAllocator@@@Z 00445610 f   srrmemory.obj
 0001:00044630       ?SetTop@HeapStack@@QAEXW4GameMemoryAllocator@@@Z 00445630 f   srrmemory.obj
 0001:00044640       ?Top@HeapStack@@QBE?AW4GameMemoryAllocator@@XZ 00445640 f   srrmemory.obj
 0001:00044650       ??0HeapActivityTracker@@QAE@XZ 00445650 f   srrmemory.obj
 0001:00044670       ?OnButtonUp@VehicleMappable@@UAEXHHPBVButton@@@Z 00445670 f   vehiclemappable.obj
 0001:00044670       ?OnButtonUp@FMVUserInputHandler@@UAEXHHPBVButton@@@Z 00445670 f   fmvuserinputhandler.obj
 0001:00044670       ?SetCompressedData@Builder@tImageHandler@@UAEXHPADH@Z 00445670 f   pure3dwr:imagefactory.obj
 0001:00044670       ?SetCollisionOffset@SuperCam@@UAEXPBVVector@RadicalMathLibrary@@IABV23@@Z 00445670 f   animatedcam.obj
 0001:00044670       ?OnButtonUp@SuperCamController@@UAEXHHPBVButton@@@Z 00445670 f   supercamcontroller.obj
 0001:00044670       ?CompareNormalAndHeight@TrafficLocomotion@@UAEXHAAVVector@RadicalMathLibrary@@0@Z 00445670 f   trafficlocomotion.obj
 0001:00044670       ?OnButtonDown@CharacterMappable@@UAEXHHPBVButton@@@Z 00445670 f   charactermappable.obj
 0001:00044670       ?SetMemcardIconData@MemoryCardManager@@QAEXPADI@Z 00445670 f   memorycardmanager.obj
 0001:00044670       ?SetCompressedData@TextureBuilder@@UAEXHPADH@Z 00445670 f   pure3dwr:imagefactory.obj
 0001:00044670       ?UpdateVolumeTexture@tImageConverter@@UAEXPAVtImage@@PAUpddiLockInfo@@H@Z 00445670 f   pure3dwr:imageconverter.obj
 0001:00044670       ?OnButton@SuperCamController@@UAEXHHPBVButton@@@Z 00445670 f   supercamcontroller.obj
 0001:00044670       ?OnButton@SuperSprintManager@@UAEXHHPBVButton@@@Z 00445670 f   supersprintmanager.obj
 0001:00044670       ?VelocityProjection@PhysicsJoint0D@sim@@MBEXABVVector@RadicalMathLibrary@@MAAV34@@Z 00445670 f   simwr:physicsjoint.obj
 0001:00044670       ?MemoryAllocated@HeapActivityTracker@@UAEXHPAXI@Z 00445670 f   srrmemory.obj
 0001:00044670       ?UpdateDeformation@PhysicsJoint0D@sim@@MAEXMMM@Z 00445670 f   simwr:physicsjoint.obj
 0001:00044670       ?OnButton@CharacterMappable@@UAEXHHPBVButton@@@Z 00445670 f   charactermappable.obj
 0001:00044670       ?OnButton@VehicleMappable@@UAEXHHPBVButton@@@Z 00445670 f   vehiclemappable.obj
 0001:00044670       ?OnButton@FMVUserInputHandler@@UAEXHHPBVButton@@@Z 00445670 f   fmvuserinputhandler.obj
 0001:00044670       ?OnButton@CheatInputHandler@@UAEXHHPBVButton@@@Z 00445670 f   cheatinputhandler.obj
 0001:00044670       ?OnButtonUp@CharacterMappable@@UAEXHHPBVButton@@@Z 00445670 f   charactermappable.obj
 0001:00044680       ?SetTransform@ManualSimState@sim@@UAEXABVMatrix@RadicalMathLibrary@@M@Z 00445680 f   simwr:simstate.obj
 0001:00044680       ?Display@FeApp@@UAEXPBD0@Z 00445680 f   scroobywr:FeApp.obj
 0001:00044680       ?OnHandleEvent@PlayingContext@@UAEXW4EventEnum@@PAX@Z 00445680 f   playingcontext.obj
 0001:00044680       ?OnHandleEvent@LoadingContext@@UAEXW4EventEnum@@PAX@Z 00445680 f   loadingcontext.obj
 0001:00044680       ?SetShader@InstStatEntityDSG@@UAEXPAVtShader@@H@Z 00445680 f   animatedicon.obj
 0001:00044680       ?SetAnimation@AutoPlayAnim@ActionButton@@MAEXPAVCharacter@@PAVSequencer@@@Z 00445680 f   actionbuttonhandler.obj
 0001:00044680       ?PositionCharacter@AutoPlayAnim@ActionButton@@MAEXPAVCharacter@@PAVSequencer@@@Z 00445680 f   actionbuttonhandler.obj
 0001:00044680       ?DumpAllDynaLoads@RenderLayer@@UAEXIAAV?$SwapArray@PAVtRefCounted@@@@@Z 00445680 f   RenderLayer.obj
 0001:00044680       ?AddSolverConstraint@SimulatedObject@sim@@UAEXABVVector@RadicalMathLibrary@@H@Z 00445680 f   simwr:physicsobject.obj
 0001:00044680       ?ApplyForce@Character@@UAEXABVVector@RadicalMathLibrary@@M@Z 00445680 f   character.obj
 0001:00044680       ?OnHandleEvent@FrontEndContext@@MAEXW4EventEnum@@PAX@Z 00445680 f   frontendcontext.obj
 0001:00044680       ?SetNumTriggers@Locator@@UAEXIH@Z 00445680 f   carstartlocator.obj
 0001:00044680       ?DirectCopy@Builder@tImageHandler@@UAEXPAEH@Z 00445680 f   pure3dwr:imagefactory.obj
 0001:00044680       ?OnHandleEvent@BootupContext@@MAEXW4EventEnum@@PAX@Z 00445680 f   bootupcontext.obj
 0001:00044680       ?HandleEvent@MissionObjective@@UAEXW4EventEnum@@PAX@Z 00445680 f   missionobjective.obj
 0001:00044680       ?HandleEvent@TriggerVolumeTracker@@UAEXW4EventEnum@@PAX@Z 00445680 f   triggervolumetracker.obj
 0001:00044680       ?ApplyForce@GagDrawable@@UAEXABVVector@RadicalMathLibrary@@M@Z 00445680 f   interiormanager.obj
 0001:00044680       ?SetAuxGain@radSoundHalVoiceWin@@UAEXIM@Z 00445680 f   radsoundwr:voice.obj
 0001:00044680       ?Display@Leaf@Scenegraph@@UAEXABVMatrix@RadicalMathLibrary@@AAVDisplayList@@@Z 00445680 f   pure3dwr:scenegraph.obj
 0001:00044680       ?LookAt@Projectile@@UAEXABVVector@RadicalMathLibrary@@I@Z 00445680 f   projectile.obj
 0001:00044680       ?MoveTo@Projectile@@UAEXABVVector@RadicalMathLibrary@@M@Z 00445680 f   projectile.obj
 0001:00044680       ?PerpAxisProjection@PhysicsJoint0D@sim@@MBEXABVVector@RadicalMathLibrary@@AAV34@@Z 00445680 f   simwr:physicsjoint.obj
 0001:00044680       ?ComputeAbsorbedImpulse@PhysicsJoint0D@sim@@MAEXABVVector@RadicalMathLibrary@@AAV34@@Z 00445680 f   simwr:physicsjoint.obj
 0001:00044680       ?SetShader@IEntityDSG@@UAEXPAVtShader@@H@Z 00445680 f   actordsg.obj
 0001:00044680       ?LoadScreen@FeProject@@UAEXPAVScreen@Scrooby@@PAVGotoScreenCallback@3@@Z 00445680 f   scroobywr:FeProject.obj
 0001:00044680       ?Apply@UFOBehaviour@@UAEXPAVActor@@I@Z 00445680 f   ufobehaviour.obj
 0001:00044680       ?Alloc@RadcoreMemAdapt@@UAEXPAXH@Z 00445680 f   pure3dwr:context.obj
 0001:00044680       ?HandleEvent@SoundFXPauseLogic@@UAEXW4EventEnum@@PAX@Z 00445680 f   soundfxpauselogic.obj
 0001:00044680       ?OnHandleEvent@PauseContext@@MAEXW4EventEnum@@PAX@Z 00445680 f   pausecontext.obj
 0001:00044680       ?LoadData@SoundManager@@UAEXPBEI@Z 00445680 f   soundmanager.obj
 0001:00044680       ?DumpDynaLoad@RenderLayer@@UAEXAAVtName@@AAV?$SwapArray@PAVtRefCounted@@@@@Z 00445680 f   RenderLayer.obj
 0001:00044680       ?HandleEvent@CGuiManager@@UAEXW4EventEnum@@PAX@Z 00445680 f   guimanager.obj
 0001:00044680       ?SequenceActions@AnimSwitch@ActionButton@@MAEXPAVCharacter@@PAVSequencer@@@Z 00445680 f   actionbuttonhandler.obj
 0001:00044680       ?HandleEvent@MissionCondition@@UAEXW4EventEnum@@PAX@Z 00445680 f   missioncondition.obj
 0001:00044680       ?OnHandleEvent@EntryContext@@MAEXW4EventEnum@@PAX@Z 00445680 f   entrycontext.obj
 0001:00044680       ?SetShader@LensFlareDSG@@UAEXPAVtShader@@H@Z 00445680 f   LensFlareDSG.obj
 0001:00044680       ?OnHandleEvent@ExitContext@@MAEXW4EventEnum@@PAX@Z 00445680 f   exitcontext.obj
 0001:00044680       ?SetAuxMode@radSoundHalVoiceWin@@UAEXIW4radSoundAuxMode@@@Z 00445680 f   radsoundwr:voice.obj
 0001:00044680       ?SetAuxGain@radSoundHalSystem@@UAEXIM@Z 00445680 f   radsoundwr:system.obj
 0001:00044680       ?OnHandleEvent@SuperSprintFEContext@@MAEXW4EventEnum@@PAX@Z 00445680 f   supersprintfecontext.obj
 0001:00044680       ?MemoryFreed@HeapActivityTracker@@UAEXHPAX@Z 00445680 f   srrmemory.obj
 0001:00044680       ?CustomDisplay@Leaf@Scenegraph@@UAEXABVMatrix@RadicalMathLibrary@@PAVCustomDisplayCallback@2@@Z 00445680 f   pure3dwr:scenegraph.obj
 0001:00044680       ?SetIsLegIKEnabled@Engine@choreo@@QAEXH_N@Z 00445680 f   choreowr:engine.obj
 0001:00044690       ?GetInstance@HeapManager@@SAPAV1@XZ 00445690 f   srrmemory.obj
 0001:00044760       ?DestroyInstance@HeapManager@@SAXXZ 00445760 f   srrmemory.obj
 0001:000447b0       ??0HeapManager@@AAE@W4GameMemoryAllocator@@@Z 004457b0 f   srrmemory.obj
 0001:000447e0       ??_EHeapManager@@EAEPAXI@Z 004457e0 f i srrmemory.obj
 0001:000447e0       ??_GHeapManager@@EAEPAXI@Z 004457e0 f i srrmemory.obj
 0001:00044800       ??1HeapManager@@EAE@XZ     00445800 f   srrmemory.obj
 0001:00044860       ?GetFudgeFactor@HeapManager@@CAMXZ 00445860 f   srrmemory.obj
 0001:00044880       ?PushHeap@HeapManager@@QAEXW4GameMemoryAllocator@@@Z 00445880 f   srrmemory.obj
 0001:00044890       ?PopHeap@HeapManager@@QAEXW4GameMemoryAllocator@@@Z 00445890 f   srrmemory.obj
 0001:000448a0       ?GetCurrentHeap@HeapManager@@QBE?AW4GameMemoryAllocator@@XZ 004458a0 f   srrmemory.obj
 0001:000448b0       ?GetCurrentAllocator@HeapManager@@UAEHXZ 004458b0 f   srrmemory.obj
 0001:000448c0       ?SetCurrentAllocator@HeapManager@@UAEHH@Z 004458c0 f   srrmemory.obj
 0001:000448f0       ?DumpHeapStats@HeapManager@@QAEX_N@Z 004458f0 f   srrmemory.obj
 0001:00045060       ?ResetArtStats@HeapManager@@QAEXXZ 00446060 f   srrmemory.obj
 0001:00045080       ?DumpArtStats@HeapManager@@QAEXXZ 00446080 f   srrmemory.obj
 0001:00045390       ?PrepareHeapsStartup@HeapManager@@QAEXXZ 00446390 f   srrmemory.obj
 0001:00045410       ?PrepareHeapsFeCleanup@HeapManager@@QAEXXZ 00446410 f   srrmemory.obj
 0001:00045460       ?PrepareHeapsFeSetup@HeapManager@@QAEXXZ 00446460 f   srrmemory.obj
 0001:000454e0       ?PrepareHeapsInGame@HeapManager@@QAEXXZ 004464e0 f   srrmemory.obj
 0001:000455a0       ?PrepareHeapsSuperSprint@HeapManager@@QAEXXZ 004465a0 f   srrmemory.obj
 0001:00045680       ?HeapMgr@@YAPAVHeapManager@@XZ 00446680 f   srrmemory.obj
 0001:00045690       ?CastsShadow@InstStatEntityDSG@@UAEHXZ 00446690 f i animatedicon.obj
 0001:000456a0       ??0AnimatedIcon@@QAE@XZ    004466a0 f   animatedicon.obj
 0001:000456d0       ??1AnimatedIcon@@UAE@XZ    004466d0 f   animatedicon.obj
 0001:000456e0       ?Init@AnimatedIcon@@QAEXPBDABVMatrix@RadicalMathLibrary@@_N2@Z 004466e0 f   animatedicon.obj
 0001:000457e0       ?Init@AnimatedIcon@@QAEXPBDABVVector@RadicalMathLibrary@@_N2@Z 004467e0 f   animatedicon.obj
 0001:000458f0       ?ScaleByCameraDistance@AnimatedIcon@@QAEXMMMM@Z 004468f0 f   animatedicon.obj
 0001:00045920       ?Move@AnimatedIcon@@QAEXABVVector@RadicalMathLibrary@@@Z 00446920 f   animatedicon.obj
 0001:000459d0       ?Update@AnimatedIcon@@QAEXI@Z 004469d0 f   animatedicon.obj
 0001:00045b40       ?Reset@AnimatedIcon@@QAEXXZ 00446b40 f   animatedicon.obj
 0001:00045b50       ?ShouldRender@AnimatedIcon@@QAEX_N@Z 00446b50 f   animatedicon.obj
 0001:00045bd0       ?GetPosition@AnimatedIcon@@QAEXAAVVector@RadicalMathLibrary@@@Z 00446bd0 f   animatedicon.obj
 0001:00045be0       ??2AnimatedIcon@@SAPAXI@Z  00446be0 f   animatedicon.obj
 0001:00045c30       ??2AnimatedIcon@@SAPAXIW4GameMemoryAllocator@@@Z 00446c30 f   animatedicon.obj
 0001:00045c50       ??3AnimatedIcon@@SAXPAX@Z  00446c50 f   animatedicon.obj
 0001:00045c80       ?InitAnimatedIcons@AnimatedIcon@@SAXW4GameMemoryAllocator@@@Z 00446c80 f   animatedicon.obj
 0001:00045d30       ??_EAnimatedIcon@@UAEPAXI@Z 00446d30 f i animatedicon.obj
 0001:00045d90       ?ShutdownAnimatedIcons@AnimatedIcon@@SAXXZ 00446d90 f   animatedicon.obj
 0001:00045dd0       ?GetFlag@AnimatedIcon@@ABE_NW4Flag@1@@Z 00446dd0 f   animatedicon.obj
 0001:00045df0       ?Deallocate@AnimatedIcon@@AAEXXZ 00446df0 f   animatedicon.obj
 0001:00045e70       ?SetUpContents@AnimatedIcon@@AAEXPBD@Z 00446e70 f   animatedicon.obj
 0001:00045ff0       ?SetUpEffects@AnimatedIcon@@AAEXXZ 00446ff0 f   animatedicon.obj
 0001:00046090       ??0AnimIconDSG@AnimatedIcon@@QAE@XZ 00447090 f   animatedicon.obj
 0001:000460d0       ??_EAnimIconDSG@AnimatedIcon@@UAEPAXI@Z 004470d0 f i animatedicon.obj
 0001:000460d0       ??_GAnimIconDSG@AnimatedIcon@@UAEPAXI@Z 004470d0 f i animatedicon.obj
 0001:000460f0       ??1AnimIconDSG@AnimatedIcon@@UAE@XZ 004470f0 f   animatedicon.obj
 0001:00046110       ?CalcScale@AnimIconDSG@AnimatedIcon@@AAEMXZ 00447110 f   animatedicon.obj
 0001:000461b0       ?SetScaleParameters@AnimIconDSG@AnimatedIcon@@QAEXMMMM@Z 004471b0 f   animatedicon.obj
 0001:00046200       ?Display@AnimIconDSG@AnimatedIcon@@UAEXXZ 00447200 f   animatedicon.obj
 0001:000462b0       ?find@?$@VtMultiController@@@p3d@@YAPAVtMultiController@@PAVtEntityStore@@PBD@Z 004472b0 f i animatedicon.obj
 0001:00046320       ?GetNumDrawableElement@tCompositeDrawable@@QBEHXZ 00447320 f i animatedicon.obj
 0001:00046340       ?GetMission@GameplayManager@@QAEPAVMission@@H@Z 00447340 f i bonusmissioninfo.obj
 0001:00046360       ??0BonusMissionInfo@@QAE@XZ 00447360 f   bonusmissioninfo.obj
 0001:00046430       ??_EBonusMissionInfo@@UAEPAXI@Z 00447430 f i bonusmissioninfo.obj
 0001:00046430       ??_GBonusMissionInfo@@UAEPAXI@Z 00447430 f i bonusmissioninfo.obj
 0001:00046450       ??1BonusMissionInfo@@UAE@XZ 00447450 f   bonusmissioninfo.obj
 0001:00046540       ?HandleEvent@BonusMissionInfo@@UAEXW4EventEnum@@PAX@Z 00447540 f   bonusmissioninfo.obj
 0001:00046590       ?SetUpIcon@BonusMissionInfo@@QAEXPBDVVector@RadicalMathLibrary@@@Z 00447590 f   bonusmissioninfo.obj
 0001:000466b0       ?SetUpAlternateIcon@BonusMissionInfo@@QAEXPBDVVector@RadicalMathLibrary@@@Z 004476b0 f   bonusmissioninfo.obj
 0001:000466f0       ?SetEventLocator@BonusMissionInfo@@QAEXPAVEventLocator@@@Z 004476f0 f   bonusmissioninfo.obj
 0001:00046710       ?SetPositions@BonusMissionInfo@@QAEXPAVCarStartLocator@@00@Z 00447710 f   bonusmissioninfo.obj
 0001:00046780       ?CleanUp@BonusMissionInfo@@QAEXXZ 00447780 f   bonusmissioninfo.obj
 0001:00046860       ?Update@BonusMissionInfo@@QAEXI@Z 00447860 f   bonusmissioninfo.obj
 0001:000469b0       ?Enable@BonusMissionInfo@@QAEXXZ 004479b0 f   bonusmissioninfo.obj
 0001:00046a20       ?Disable@BonusMissionInfo@@QAEXXZ 00447a20 f   bonusmissioninfo.obj
 0001:00046a60       ?SetCompleted@BonusMissionInfo@@QAEX_N@Z 00447a60 f   bonusmissioninfo.obj
 0001:00046ae0       ?TriggerDialogue@BonusMissionInfo@@QAEXXZ 00447ae0 f   bonusmissioninfo.obj
 0001:00046ec0       ?SetNPC@BonusMissionInfo@@QAEXPAVCharacter@@@Z 00447ec0 f   bonusmissioninfo.obj
 0001:00046ee0       ?ResetCharacterPositions@BonusMissionInfo@@QAEXXZ 00447ee0 f   bonusmissioninfo.obj
 0001:00047020       ?ResetMissionBitmap@BonusMissionInfo@@QAEXXZ 00448020 f   bonusmissioninfo.obj
 0001:00047040       ?SetDialogueName@BonusMissionInfo@@QAEXPBD@Z 00448040 f i gameplaymanager.obj
 0001:00047070       ?OnPresentationEventEnd@GameplayManager@@MAEXPAVPresentationEvent@@@Z 00448070 f i gameplaymanager.obj
 0001:00047080       ?GetInstance@GameplayManager@@SAPAV1@XZ 00448080 f   gameplaymanager.obj
 0001:00047090       ?SetInstance@GameplayManager@@SAXPAV1@@Z 00448090 f   gameplaymanager.obj
 0001:000470a0       ??0GameplayManager@@IAE@XZ 004480a0 f   gameplaymanager.obj
 0001:000472e0       ??_EGameplayManager@@MAEPAXI@Z 004482e0 f i gameplaymanager.obj
 0001:000472e0       ??_GGameplayManager@@MAEPAXI@Z 004482e0 f i gameplaymanager.obj
 0001:00047300       ??1GameplayManager@@MAE@XZ 00448300 f   gameplaymanager.obj
 0001:00047360       ?LevelLoaded@GameplayManager@@UAEXXZ 00448360 f   gameplaymanager.obj
 0001:00047390       ?SetLevelIndex@GameplayManager@@UAEXW4LevelEnum@RenderEnums@@@Z 00448390 f   gameplaymanager.obj
 0001:000473b0       ?SetMissionIndex@GameplayManager@@UAEXW4MissionEnum@RenderEnums@@@Z 004483b0 f   gameplaymanager.obj
 0001:000473c0       ?TestPosInFrustrumOfPlayer@GameplayManager@@QAE_NABVVector@RadicalMathLibrary@@HM@Z 004483c0 f   gameplaymanager.obj
 0001:00047430       ?ContinueGameplay@GameplayManager@@QAEXXZ 00448430 f   gameplaymanager.obj
 0001:00047530       ?Update@GameplayManager@@UAEXH@Z 00448530 f   gameplaymanager.obj
 0001:00047720       ?PlaceCharacterAtLocator@GameplayManager@@QAEXPAVCharacter@@PAVLocator@@@Z 00448720 f   gameplaymanager.obj
 0001:00047790       ?PlaceVehicleAtLocator@GameplayManager@@QAEXPAVVehicle@@PAVCarStartLocator@@@Z 00448790 f   gameplaymanager.obj
 0001:00047880       ?TestProximityToUsersCarAndNudgeUpIfNecessaryDamnUglyHack@GameplayManager@@AAE_NAAVVector@RadicalMathLibrary@@PAVVehicle@@@Z 00448880 f   gameplaymanager.obj
 0001:000478e0       ?PlaceVehicleAtLocation@GameplayManager@@QAEXPAVVehicle@@VVector@RadicalMathLibrary@@M@Z 004488e0 f   gameplaymanager.obj
 0001:00047910       ?PlaceVehicleAtLocatorName@GameplayManager@@QAEXPAVVehicle@@PBD@Z 00448910 f   gameplaymanager.obj
 0001:00047990       ?AddLevelVehicle@GameplayManager@@QAEPAVVehicle@@PADW4eCarSlots@1@0@Z 00448990 f   gameplaymanager.obj
 0001:00047ad0       ?RemoveLevelVehicleController@GameplayManager@@IAEXXZ 00448ad0 f   gameplaymanager.obj
 0001:00047b00       ?PauseForIrisClose@GameplayManager@@QAEXM@Z 00448b00 f   gameplaymanager.obj
 0001:00047b70       ?PauseForIrisOpen@GameplayManager@@QAEXM@Z 00448b70 f   gameplaymanager.obj
 0001:00047bf0       ?PauseForFadeToBlack@GameplayManager@@QAEXM@Z 00448bf0 f   gameplaymanager.obj
 0001:00047c40       ?PauseForFadeFromBlack@GameplayManager@@QAEXM@Z 00448c40 f   gameplaymanager.obj
 0001:00047ca0       ?AddMissionVehicle@GameplayManager@@QAEPAVVehicle@@PAD00@Z 00448ca0 f   gameplaymanager.obj
 0001:00047ef0       ?EmptyMissionVehicleSlots@GameplayManager@@QAEXXZ 00448ef0 f   gameplaymanager.obj
 0001:00048010       ?GetMissionVehicleByName@GameplayManager@@QAEPAVVehicle@@PBD@Z 00449010 f   gameplaymanager.obj
 0001:00048080       ?GetUserVehicleByName@GameplayManager@@QAEPAVVehicle@@PBD@Z 00449080 f   gameplaymanager.obj
 0001:00048130       ?GetMissionVehicleIndex@GameplayManager@@QAEHPAVVehicle@@@Z 00449130 f   gameplaymanager.obj
 0001:00048170       ?RepairVehicle@GameplayManager@@IAEXPAUCarDataStruct@1@@Z 00449170 f   gameplaymanager.obj
 0001:000482b0       ?HandleEvent@GameplayManager@@UAEXW4EventEnum@@PAX@Z 004492b0 f   gameplaymanager.obj
 0001:00048970       ?GetCurrentVehicle@GameplayManager@@QAEPAVVehicle@@XZ 00449970 f   gameplaymanager.obj
 0001:00048980       ?UnregisterVehicleHUDIcon@GameplayManager@@QAEXXZ 00449980 f   gameplaymanager.obj
 0001:000489c0       ?SetCurrentVehicle@GameplayManager@@QAEXPAVVehicle@@@Z 004499c0 f   gameplaymanager.obj
 0001:00048ac0       ?DumpCurrentCar@GameplayManager@@QAEXXZ 00449ac0 f   gameplaymanager.obj
 0001:00048b30       ?ClearVehicleSlotIfInSphere@GameplayManager@@QAEXW4eCarSlots@1@ABVSphere@RadicalMathLibrary@@@Z 00449b30 f   gameplaymanager.obj
 0001:00048b90       ?DumpCurrentCarIfInSphere@GameplayManager@@QAEXABVSphere@RadicalMathLibrary@@@Z 00449b90 f   gameplaymanager.obj
 0001:00048bb0       ?MakeSureHusksAreReverted@GameplayManager@@QAEXPAVVehicle@@@Z 00449bb0 f   gameplaymanager.obj
 0001:00048ca0       ?ClearVehicleSlot@GameplayManager@@QAEXW4eCarSlots@1@@Z 00449ca0 f   gameplaymanager.obj
 0001:00048e10       ?CopyVehicleSlot@GameplayManager@@QAEXW4eCarSlots@1@0@Z 00449e10 f   gameplaymanager.obj
 0001:00048ec0       ?GetVehicleSlotFilename@GameplayManager@@QAEPADW4eCarSlots@1@@Z 00449ec0 f   gameplaymanager.obj
 0001:00048ed0       ?GetVehicleSlotVehicleName@GameplayManager@@QAEPADW4eCarSlots@1@@Z 00449ed0 f   gameplaymanager.obj
 0001:00048ee0       ?GetVehicleInSlot@GameplayManager@@QAEPAVVehicle@@W4eCarSlots@1@@Z 00449ee0 f   gameplaymanager.obj
 0001:00048ef0       ?SetBonusMissionInfo@GameplayManager@@QAEXPBD000_N01@Z 00449ef0 f   gameplaymanager.obj
 0001:00049170       ?Initialize@GameplayManager@@UAEXXZ 0044a170 f   gameplaymanager.obj
 0001:000492b0       ?Finalize@GameplayManager@@UAEXXZ 0044a2b0 f   gameplaymanager.obj
 0001:00049420       ?SetCurrentMission@GameplayManager@@IAEXH@Z 0044a420 f   gameplaymanager.obj
 0001:000495b0       ?NextMission@GameplayManager@@QAEXXZ 0044a5b0 f   gameplaymanager.obj
 0001:000495c0       ?PrevMission@GameplayManager@@QAEXXZ 0044a5c0 f   gameplaymanager.obj
 0001:000495d0       ?DoNextMission@GameplayManager@@AAEXXZ 0044a5d0 f   gameplaymanager.obj
 0001:00049670       ?DoPrevMission@GameplayManager@@AAEXXZ 0044a670 f   gameplaymanager.obj
 0001:000496a0       ?GetCurrentMission@GameplayManager@@UAEPAVMission@@XZ 0044a6a0 f   gameplaymanager.obj
 0001:000496e0       ?GetCurrentBonusMissionInfo@GameplayManager@@QBEPBVBonusMissionInfo@@XZ 0044a6e0 f   gameplaymanager.obj
 0001:00049710       ?GetBonusMissionInfo@GameplayManager@@QAEPAVBonusMissionInfo@@H@Z 0044a710 f   gameplaymanager.obj
 0001:00049730       ?GetMissionHeap@GameplayManager@@QAE?AW4GameMemoryAllocator@@H@Z 0044a730 f   gameplaymanager.obj
 0001:00049740       ?GetCurrentMissionNum@GameplayManager@@QBEHXZ 0044a740 f   gameplaymanager.obj
 0001:00049760       ?IsBonusMissionDesired@GameplayManager@@QBE_NXZ 0044a760 f   gameplaymanager.obj
 0001:00049770       ?CancelBonusMission@GameplayManager@@QAEXXZ 0044a770 f   gameplaymanager.obj
 0001:000497a0       ?EnablePhoneBooths@GameplayManager@@QAEXXZ 0044a7a0 f   gameplaymanager.obj
 0001:000497b0       ?DisablePhoneBooths@GameplayManager@@QAEXXZ 0044a7b0 f   gameplaymanager.obj
 0001:000497c0       ?QueryPhoneBoothsEnabled@GameplayManager@@QAE_NXZ 0044a7c0 f   gameplaymanager.obj
 0001:000497d0       ?CreateChaseManager@GameplayManager@@QAEHPAD0H@Z 0044a7d0 f   gameplaymanager.obj
 0001:000498f0       ?GetChaseManager@GameplayManager@@QAEPAVChaseManager@@PAD@Z 0044a8f0 f   gameplaymanager.obj
 0001:00049960       ?GetChaseManager@GameplayManager@@QAEPAVChaseManager@@H@Z 0044a960 f   gameplaymanager.obj
 0001:00049980       ?GetMissionNumByName@GameplayManager@@QAEHPBD@Z 0044a980 f   gameplaymanager.obj
 0001:00049a00       ?KillAllChaseManagers@GameplayManager@@QAEXXZ 0044aa00 f   gameplaymanager.obj
 0001:00049a40       ?EnableBonusMissions@GameplayManager@@QAEXXZ 0044aa40 f   gameplaymanager.obj
 0001:00049a80       ?DisableBonusMissions@GameplayManager@@QAEXXZ 0044aa80 f   gameplaymanager.obj
 0001:00049ac0       ?DisableAllChaseAI@GameplayManager@@QAEXXZ 0044aac0 f   gameplaymanager.obj
 0001:00049ad0       ?EnableAllChaseAI@GameplayManager@@QAEXXZ 0044aad0 f   gameplaymanager.obj
 0001:00049ae0       ?GetGameType@GameplayManager@@QAE?AW4GameTypeEnum@1@XZ 0044aae0 f   gameplaymanager.obj
 0001:00049af0       ?GetControllerColour@GameplayManager@@QAE?AUpddiColour@@H@Z 0044aaf0 f   gameplaymanager.obj
 0001:00049b50       ?GetRespawnManager@GameplayManager@@QAEPAVRespawnManager@@XZ 0044ab50 f   gameplaymanager.obj
 0001:00049b60       ?SetPostLevelFMV@GameplayManager@@QAEXPBD@Z 0044ab60 f   gameplaymanager.obj
 0001:00049ba0       ?AddToVDU@GameplayManager@@QAEHPAVVehicle@@@Z 0044aba0 f   gameplaymanager.obj
 0001:00049c00       ?UpdateVDU@GameplayManager@@AAEHXZ 0044ac00 f   gameplaymanager.obj
 0001:00049d60       ?MDKVDU@GameplayManager@@QAEHXZ 0044ad60 f   gameplaymanager.obj
 0001:00049dd0       ?ReleaseFromVDU@GameplayManager@@QAEXPADPAPAVVehicle@@@Z 0044add0 f   gameplaymanager.obj
 0001:00049e90       ?TestForContinuityErrorWithCar@GameplayManager@@QAE_NPAVVehicle@@_N@Z 0044ae90 f   gameplaymanager.obj
 0001:00049fb0       ?RemoveVehicleFromMissionVehicleSlots@GameplayManager@@QAEHPAVVehicle@@@Z 0044afb0 f   gameplaymanager.obj
 0001:0004a100       ?AbortFade@GameplayManager@@QAEXXZ 0044b100 f   gameplaymanager.obj
 0001:0004a120       ?Contains@Sphere@RadicalMathLibrary@@QBE_NABVVector@2@@Z 0044b120 f i gameplaymanager.obj
 0001:0004a170       ??0HasPresentationInfo@@QAE@XZ 0044b170 f   haspresentationinfo.obj
 0001:0004a230       ??1HasPresentationInfo@@QAE@XZ 0044b230 f   haspresentationinfo.obj
 0001:0004a2c0       ?AddAmbientCharacterAnimation@HasPresentationInfo@@QAEXIABVtName@@@Z 0044b2c0 f   haspresentationinfo.obj
 0001:0004a300       ?AmbientCharacterAnimationSetRandom@HasPresentationInfo@@QAEXI_N@Z 0044b300 f   haspresentationinfo.obj
 0001:0004a310       ?ClearAmbientAnimations@HasPresentationInfo@@QAEXXZ 0044b310 f   haspresentationinfo.obj
 0001:0004a360       ?GoToPattyAndSelmaScreenWhenDone@HasPresentationInfo@@QAEXXZ 0044b360 f   haspresentationinfo.obj
 0001:0004a370       ?OnStageCompleteSuccessful@HasPresentationInfo@@QBEXXZ 0044b370 f   haspresentationinfo.obj
 0001:0004a390       ?Reset@HasPresentationInfo@@QAEXXZ 0044b390 f   haspresentationinfo.obj
 0001:0004a410       ?SetCameraForDialogLine@HasPresentationInfo@@QAEXIABVtName@@@Z 0044b410 f   haspresentationinfo.obj
 0001:0004a470       ?SetConversationCamName@HasPresentationInfo@@QAEXABVtName@@@Z 0044b470 f   haspresentationinfo.obj
 0001:0004a480       ?SetConversationCamPcName@HasPresentationInfo@@QAEXABVtName@@@Z 0044b480 f   haspresentationinfo.obj
 0001:0004a490       ?SetConversationCamNpcName@HasPresentationInfo@@QAEXABVtName@@@Z 0044b490 f   haspresentationinfo.obj
 0001:0004a4a0       ?SetBestSideLocator@HasPresentationInfo@@QAEXABVtName@@@Z 0044b4a0 f   haspresentationinfo.obj
 0001:0004a4b0       ??1?$vector@VtName@@V?$s2alloc@VtName@@@@@std@@QAE@XZ 0044b4b0 f i haspresentationinfo.obj
 0001:0004a4c0       ?reserve@?$vector@VtName@@V?$s2alloc@VtName@@@@@std@@QAEXI@Z 0044b4c0 f i haspresentationinfo.obj
 0001:0004a5f0       ?resize@?$vector@VtName@@V?$s2alloc@VtName@@@@@std@@QAEXIVtName@@@Z 0044b5f0 f i haspresentationinfo.obj
 0001:0004a6c0       ?push_back@?$vector@VtName@@V?$s2alloc@VtName@@@@@std@@QAEXABVtName@@@Z 0044b6c0 f i haspresentationinfo.obj
 0001:0004a720       ?erase@?$vector@VtName@@V?$s2alloc@VtName@@@@@std@@QAE?AV?$_Ptrit@VtName@@HPAV1@AAV1@PAV1@AAV1@@2@V32@0@Z 0044b720 f i haspresentationinfo.obj
 0001:0004a790       ?_Destroy@?$vector@VtName@@V?$s2alloc@VtName@@@@@std@@IAEXPAVtName@@0@Z 0044b790 f i haspresentationinfo.obj
 0001:0004a7b0       ?_Tidy@?$vector@VtName@@V?$s2alloc@VtName@@@@@std@@IAEXXZ 0044b7b0 f i haspresentationinfo.obj
 0001:0004a800       ?_Insert_n@?$vector@VtName@@V?$s2alloc@VtName@@@@@std@@IAEXV?$_Ptrit@VtName@@HPAV1@AAV1@PAV1@AAV1@@2@IABVtName@@@Z 0044b800 f i haspresentationinfo.obj
 0001:0004aaf0       ?_Ucopy@?$vector@VtName@@V?$s2alloc@VtName@@@@@std@@IAEPAVtName@@V?$_Ptrit@VtName@@HPAV1@AAV1@PAV1@AAV1@@2@0PAV3@@Z 0044baf0 f i haspresentationinfo.obj
 0001:0004ab20       ?fill@std@@YAXV?$_Ptrit@VtName@@HPAV1@AAV1@PAV1@AAV1@@1@0ABVtName@@@Z 0044bb20 f i haspresentationinfo.obj
 0001:0004ab50       ?copy_backward@std@@YA?AV?$_Ptrit@VtName@@HPAV1@AAV1@PAV1@AAV1@@1@V21@00@Z 0044bb50 f i haspresentationinfo.obj
 0001:0004ab80       ?_Copy_backward_opt@std@@YA?AV?$_Ptrit@VtName@@HPAV1@AAV1@PAV1@AAV1@@1@V21@00U_Nonscalar_ptr_iterator_tag@1@@Z 0044bb80 f i haspresentationinfo.obj
 0001:0004abd0       ?_Uninit_fill_n@std@@YAXPAVtName@@IABV2@AAV?$s2alloc@VtName@@@@U_Nonscalar_ptr_iterator_tag@1@@Z 0044bbd0 f i haspresentationinfo.obj
 0001:0004ac60       ??0Mission@@QAE@XZ         0044bc60 f   mission.obj
 0001:0004ad80       ??_GMission@@UAEPAXI@Z     0044bd80 f i mission.obj
 0001:0004ad80       ??_EMission@@UAEPAXI@Z     0044bd80 f i mission.obj
 0001:0004ada0       ??1Mission@@UAE@XZ         0044bda0 f   mission.obj
 0001:0004aeb0       ?Initialize@Mission@@UAEXW4GameMemoryAllocator@@@Z 0044beb0 f   mission.obj
 0001:0004b0f0       ?Finalize@Mission@@UAEXXZ  0044c0f0 f   mission.obj
 0001:0004b5c0       ?SetToStage@Mission@@QAEXH_N@Z 0044c5c0 f   mission.obj
 0001:0004b6f0       ?NextStage@Mission@@UAEXXZ 0044c6f0 f   mission.obj
 0001:0004b710       ?PrevStage@Mission@@UAEXXZ 0044c710 f   mission.obj
 0001:0004b740       ?ResetStage@Mission@@QAEXXZ 0044c740 f   mission.obj
 0001:0004b750       ?HandleEvent@Mission@@UAEXW4EventEnum@@PAX@Z 0044c750 f   mission.obj
 0001:0004b800       ?Update@Mission@@QAEXI@Z   0044c800 f   mission.obj
 0001:0004bd00       ?IsComplete@Mission@@QAE_NXZ 0044cd00 f   mission.obj
 0001:0004bd10       ?SetRestartDynaload@Mission@@QAEXPBD0@Z 0044cd10 f   mission.obj
 0001:0004be20       ?AddBonusObjective@Mission@@QAEXPAVBonusObjective@@@Z 0044ce20 f   mission.obj
 0001:0004be40       ?StartBonusObjectives@Mission@@QAEXXZ 0044ce40 f   mission.obj
 0001:0004be80       ?SetForcedCar@Mission@@QAEX_N@Z 0044ce80 f   mission.obj
 0001:0004be90       ?SetOutroLoop@SimpleAnimationPlayer@@QAEXI@Z 0044ce90 f   simpleanimationplayer.obj
 0001:0004be90       ?SetMissionTime@Mission@@QAEXH@Z 0044ce90 f   mission.obj
 0001:0004bea0       ?CreateStatePropCollectible@Mission@@QAEXPBD0H@Z 0044cea0 f   mission.obj
 0001:0004c050       ?AttachStatePropCollectible@Mission@@QAEXPBD0H@Z 0044d050 f   mission.obj
 0001:0004c1b0       ?Reset@Mission@@QAEX_N@Z   0044d1b0 f   mission.obj
 0001:0004c2e0       ?ResetPlayer@Mission@@QAEXXZ 0044d2e0 f   mission.obj
 0001:0004c3e0       ?InitDynaLoad@Mission@@QAEXXZ 0044d3e0 f   mission.obj
 0001:0004c420       ?SetInitPedGroup@Mission@@QAEXH@Z 0044d420 f   mission.obj
 0001:0004c430       ?DialogueCharactersTeleported@Mission@@QAE_NXZ 0044d430 f   mission.obj
 0001:0004c470       ?GetCurrentStage@Mission@@QAEPAVMissionStage@@XZ 0044d470 f   mission.obj
 0001:0004c490       ?GetMissionTimeLeftInSeconds@Mission@@QAEHXZ 0044d490 f   mission.obj
 0001:0004c4b0       ?SetBonusMission@Mission@@QAEXXZ 0044d4b0 f   mission.obj
 0001:0004c4c0       ?IsBonusMission@Mission@@QAE_NXZ 0044d4c0 f   mission.obj
 0001:0004c4e0       ?IsRaceMission@Mission@@QAE_NXZ 0044d4e0 f   mission.obj
 0001:0004c500       ?IsWagerMission@Mission@@QAE_NXZ 0044d500 f   mission.obj
 0001:0004c520       ?UnlockStage@Mission@@AAE_NPAVMissionStage@@@Z 0044d520 f   mission.obj
 0001:0004c5f0       ?LoadStreetRaceProps@Mission@@QAEXPBD@Z 0044d5f0 f   mission.obj
 0001:0004c6e0       ?UnloadStreetRaceProps@Mission@@QAEXPBD@Z 0044d6e0 f   mission.obj
 0001:0004c7d0       ?SetupStageChange@Mission@@AAEXXZ 0044d7d0 f   mission.obj
 0001:0004c7f0       ?DoStageChange@Mission@@AAEXXZ 0044d7f0 f   mission.obj
 0001:0004c8d0       ?SetSwappedCarsFlag@Mission@@QAEX_N@Z 0044d8d0 f   mission.obj
 0001:0004c8e0       ?GetSwappedCarsFlag@Mission@@QAE_NXZ 0044d8e0 f   mission.obj
 0001:0004c8f0       ?InitStreetRacePropLoad@Mission@@QAEXXZ 0044d8f0 f   mission.obj
 0001:0004c950       ?InitStreetRacePropUnload@Mission@@QAEXXZ 0044d950 f   mission.obj
 0001:0004c990       ?ShowHUD@Mission@@QAEX_N@Z 0044d990 f   mission.obj
 0001:0004c9c0       ?CanMDKCar@Mission@@QAE_NPAVVehicle@@PAVMissionStage@@@Z 0044d9c0 f   mission.obj
 0001:0004ca40       ?IsIrisClosed@GameplayManager@@QAE_NXZ 0044da40 f i missionmanager.obj
 0001:0004ca60       ?IsSundayDrive@MissionManager@@UAE_NXZ 0044da60 f i missionmanager.obj
 0001:0004ca90       ?GetInstance@MissionManager@@SAPAV1@XZ 0044da90 f   missionmanager.obj
 0001:0004caa0       ?CreateInstance@MissionManager@@SAPAV1@XZ 0044daa0 f   missionmanager.obj
 0001:0004cb10       ?DestroyInstance@MissionManager@@SAXXZ 0044db10 f   missionmanager.obj
 0001:0004cb30       ??0MissionManager@@IAE@XZ  0044db30 f   missionmanager.obj
 0001:0004cba0       ??_GMissionManager@@MAEPAXI@Z 0044dba0 f i missionmanager.obj
 0001:0004cba0       ??_EMissionManager@@MAEPAXI@Z 0044dba0 f i missionmanager.obj
 0001:0004cbc0       ??1MissionManager@@MAE@XZ  0044dbc0 f   missionmanager.obj
 0001:0004cc30       ?Initialize@MissionManager@@UAEXXZ 0044dc30 f   missionmanager.obj
 0001:0004ccc0       ?Finalize@MissionManager@@UAEXXZ 0044dcc0 f   missionmanager.obj
 0001:0004ccf0       ?Update@MissionManager@@UAEXH@Z 0044dcf0 f   missionmanager.obj
 0001:0004ced0       ?Reset@MissionManager@@UAEXXZ 0044ded0 f   missionmanager.obj
 0001:0004cf30       ?HandleEvent@MissionManager@@UAEXW4EventEnum@@PAX@Z 0044df30 f   missionmanager.obj
 0001:0004d050       ?PerformLoading@MissionManager@@UAEXXZ 0044e050 f   missionmanager.obj
 0001:0004d660       ?RestartCurrentMission@MissionManager@@UAEXXZ 0044e660 f   missionmanager.obj
 0001:0004d6b0       ?RestartToMission@MissionManager@@UAEXW4MissionEnum@RenderEnums@@@Z 0044e6b0 f   missionmanager.obj
 0001:0004d720       ?AbortCurrentMission@MissionManager@@UAEXXZ 0044e720 f   missionmanager.obj
 0001:0004d750       ?LoadLevelData@MissionManager@@UAEXXZ 0044e750 f   missionmanager.obj
 0001:0004d840       ?InitLevelData@MissionManager@@UAEXXZ 0044e840 f   missionmanager.obj
 0001:0004d900       ?OnProcessRequestsComplete@MissionManager@@UAEXPAX@Z 0044e900 f   missionmanager.obj
 0001:0004d950       ?LoadMission@MissionManager@@MAEXXZ 0044e950 f   missionmanager.obj
 0001:0004d9e0       ?CleanMissionData@MissionManager@@UAEXXZ 0044e9e0 f   missionmanager.obj
 0001:0004dc40       ?PutEffectHere@MissionManager@@QAEXABVVector@RadicalMathLibrary@@@Z 0044ec40 f   missionmanager.obj
 0001:0004dc70       ??0?$Iterator@VWalkerCamDataChunk@@@tInventory@@QAE@XZ 0044ec70 f i walkercam.obj
 0001:0004dc70       ??0?$Iterator@VLocator@@@tInventory@@QAE@XZ 0044ec70 f i missionmanager.obj
 0001:0004dc70       ??0?$Iterator@VEventLocator@@@tInventory@@QAE@XZ 0044ec70 f i wrecklesscam.obj
 0001:0004dd00       ?Next@?$Iterator@VLocator@@@tInventory@@QAEPAVLocator@@XZ 0044ed00 f i missionmanager.obj
 0001:0004dd40       ??0ModelData@PedestrianManager@@QAE@XZ 0044ed40 f i missionscriptloader.obj
 0001:0004dd50       ?ClearGroup@TrafficModelGroup@@QAEXXZ 0044ed50 f i missionscriptloader.obj
 0001:0004dd90       ?AddTrafficModel@TrafficModelGroup@@QAEXPBDH@Z 0044ed90 f i missionscriptloader.obj
 0001:0004de60       ?CreateInstance@MissionScriptLoader@@SAPAV1@XZ 0044ee60 f   missionscriptloader.obj
 0001:0004deb0       ?GetInstance@MissionScriptLoader@@SAPAV1@XZ 0044eeb0 f   missionscriptloader.obj
 0001:0004dec0       ?DestroyInstance@MissionScriptLoader@@SAXXZ 0044eec0 f   missionscriptloader.obj
 0001:0004dee0       ??0MissionScriptLoader@@AAE@XZ 0044eee0 f   missionscriptloader.obj
 0001:0004df10       ??_GMissionScriptLoader@@EAEPAXI@Z 0044ef10 f i missionscriptloader.obj
 0001:0004df10       ??_EMissionScriptLoader@@EAEPAXI@Z 0044ef10 f i missionscriptloader.obj
 0001:0004df30       ??1MissionScriptLoader@@EAE@XZ 0044ef30 f   missionscriptloader.obj
 0001:0004df40       ?Register@MissionScriptLoader@@QAEXXZ 0044ef40 f   missionscriptloader.obj
 0001:0004f0f0       ?LoadScriptAsync@MissionScriptLoader@@QAEXPADPAUProcessRequestsCallback@LoadingManager@@@Z 004500f0 f   missionscriptloader.obj
 0001:0004f140       ?OnExecuteScriptComplete@MissionScriptLoader@@UAEXPAX@Z 00450140 f   missionscriptloader.obj
 0001:0004f160       ?InitLevelPlayerVehicle@MissionScriptLoader@@CAXHPAPAD@Z 00450160 f   missionscriptloader.obj
 0001:0004f330       ?PlacePlayerCar@MissionScriptLoader@@CAXHPAPAD@Z 00450330 f   missionscriptloader.obj
 0001:0004f3d0       ?AddPurchaseCarReward@MissionScriptLoader@@CAXHPAPAD@Z 004503d0 f   missionscriptloader.obj
 0001:0004f630       ?SetPostLevelFMV@MissionScriptLoader@@CAXHPAPAD@Z 00450630 f   missionscriptloader.obj
 0001:0004f650       ?CreateChaseManager@MissionScriptLoader@@CAXHPAPAD@Z 00450650 f   missionscriptloader.obj
 0001:0004f6e0       ?SetChaseSpawnRate@MissionScriptLoader@@CAXHPAPAD@Z 004506e0 f   missionscriptloader.obj
 0001:0004f740       ?KillAllChaseAI@MissionScriptLoader@@CAXHPAPAD@Z 00450740 f   missionscriptloader.obj
 0001:0004f790       ?AddMission@MissionScriptLoader@@CAXHPAPAD@Z 00450790 f   missionscriptloader.obj
 0001:0004f920       ?AddBonusMission@MissionScriptLoader@@CAXHPAPAD@Z 00450920 f   missionscriptloader.obj
 0001:0004fa90       ?CloseMission@MissionScriptLoader@@CAXHPAPAD@Z 00450a90 f   missionscriptloader.obj
 0001:0004faa0       ?SetForcedCar@MissionScriptLoader@@CAXHPAPAD@Z 00450aa0 f   missionscriptloader.obj
 0001:0004fab0       ?SetDemoLoopTime@MissionScriptLoader@@CAXHPAPAD@Z 00450ab0 f   missionscriptloader.obj
 0001:0004fb10       ?SelectMission@MissionScriptLoader@@CAXHPAPAD@Z 00450b10 f   missionscriptloader.obj
 0001:0004fb70       ?SetMissionNameIndex@MissionScriptLoader@@CAXHPAPAD@Z 00450b70 f   missionscriptloader.obj
 0001:0004fb80       ?SetMissionResetPlayerInCar@MissionScriptLoader@@CAXHPAPAD@Z 00450b80 f   missionscriptloader.obj
 0001:0004fbc0       ?SetMissionResetPlayerOutCar@MissionScriptLoader@@CAXHPAPAD@Z 00450bc0 f   missionscriptloader.obj
 0001:0004fd00       ?SetDynaLoadData@MissionScriptLoader@@CAXHPAPAD@Z 00450d00 f   missionscriptloader.obj
 0001:0004fd40       ?AddBonusObjective@MissionScriptLoader@@CAXHPAPAD@Z 00450d40 f   missionscriptloader.obj
 0001:0004fed0       ?AddObjective@MissionScriptLoader@@CAXHPAPAD@Z 00450ed0 f   missionscriptloader.obj
 0001:00050490       ?AddNPC@MissionScriptLoader@@CAXHPAPAD@Z 00451490 f   missionscriptloader.obj
 0001:00050500       ?AddDriver@MissionScriptLoader@@CAXHPAPAD@Z 00451500 f   missionscriptloader.obj
 0001:00050570       ?RemoveNPC@MissionScriptLoader@@CAXHPAPAD@Z 00451570 f   missionscriptloader.obj
 0001:000505b0       ?RemoveDriver@MissionScriptLoader@@CAXHPAPAD@Z 004515b0 f   missionscriptloader.obj
 0001:000505f0       ?SetTalkToTarget@MissionScriptLoader@@CAXHPAPAD@Z 004515f0 f   missionscriptloader.obj
 0001:00050680       ?SetDialogueInfo@MissionScriptLoader@@CAXHPAPAD@Z 00451680 f   missionscriptloader.obj
 0001:000506c0       ?SetDialoguePositions@MissionScriptLoader@@CAXHPAPAD@Z 004516c0 f   missionscriptloader.obj
 0001:00050740       ?SetRaceLaps@MissionScriptLoader@@CAXHPAPAD@Z 00451740 f   missionscriptloader.obj
 0001:00050770       ?BindCollectibleToWaypoint@MissionScriptLoader@@CAXHPAPAD@Z 00451770 f   missionscriptloader.obj
 0001:000507b0       ?AllowUserDump@MissionScriptLoader@@CAXHPAPAD@Z 004517b0 f   missionscriptloader.obj
 0001:000507c0       ?SetVehicleToLoad@MissionScriptLoader@@CAXHPAPAD@Z 004517c0 f   missionscriptloader.obj
 0001:00050820       ?CloseObjective@MissionScriptLoader@@CAXHPAPAD@Z 00451820 f   missionscriptloader.obj
 0001:00050840       ?AddCollectible@MissionScriptLoader@@CAXHPAPAD@Z 00451840 f   missionscriptloader.obj
 0001:00050960       ?AddCollectibleStateProp@MissionScriptLoader@@CAXHPAPAD@Z 00451960 f   missionscriptloader.obj
 0001:00050990       ?SetCollectibleEffect@MissionScriptLoader@@CAXHPAPAD@Z 00451990 f   missionscriptloader.obj
 0001:000509c0       ?SetDestination@MissionScriptLoader@@CAXHPAPAD@Z 004519c0 f   missionscriptloader.obj
 0001:00050aa0       ?TurnGotoDialogOff@MissionScriptLoader@@CAXHPAPAD@Z 00451aa0 f   missionscriptloader.obj
 0001:00050ab0       ?MustActionTrigger@MissionScriptLoader@@CAXHPAPAD@Z 00451ab0 f   missionscriptloader.obj
 0001:00050ac0       ?AddStageVehicle@MissionScriptLoader@@CAXHPAPAD@Z 00451ac0 f   missionscriptloader.obj
 0001:00050c40       ?MoveStageVehicle@MissionScriptLoader@@CAXHPAPAD@Z 00451c40 f   missionscriptloader.obj
 0001:00050d30       ?ActivateVehicle@MissionScriptLoader@@CAXHPAPAD@Z 00451d30 f   missionscriptloader.obj
 0001:00050e40       ?AddStageWaypoint@MissionScriptLoader@@CAXHPAPAD@Z 00451e40 f   missionscriptloader.obj
 0001:00050e70       ?AddStageCharacter@MissionScriptLoader@@CAXHPAPAD@Z 00451e70 f   missionscriptloader.obj
 0001:00050f50       ?AddStageMusicChange@MissionScriptLoader@@CAXHPAPAD@Z 00451f50 f   missionscriptloader.obj
 0001:00050f60       ?SetStageMusicAlwaysOn@MissionScriptLoader@@CAXHPAPAD@Z 00451f60 f   missionscriptloader.obj
 0001:00050f70       ?SetCompletionDialog@MissionScriptLoader@@CAXHPAPAD@Z 00451f70 f   missionscriptloader.obj
 0001:00050ff0       ?SetStageStartMusicEvent@MissionScriptLoader@@CAXHPAPAD@Z 00451ff0 f   missionscriptloader.obj
 0001:00051030       ?SetMusicState@MissionScriptLoader@@CAXHPAPAD@Z 00452030 f   missionscriptloader.obj
 0001:00051090       ?SetStageCamera@MissionScriptLoader@@CAXHPAPAD@Z 00452090 f   missionscriptloader.obj
 0001:00051130       ?ResetToThisStage@MissionScriptLoader@@CAXHPAPAD@Z 00452130 f   missionscriptloader.obj
 0001:00051150       ?SetTrafficDensity@MissionScriptLoader@@CAXHPAPAD@Z 00452150 f   missionscriptloader.obj
 0001:00051180       ?AddCondition@MissionScriptLoader@@CAXHPAPAD@Z 00452180 f   missionscriptloader.obj
 0001:00051450       ?CloseCondition@MissionScriptLoader@@CAXHPAPAD@Z 00452450 f   missionscriptloader.obj
 0001:00051460       ?AmbientAnimationRandomize@MissionScriptLoader@@CAXHPAPAD@Z 00452460 f   missionscriptloader.obj
 0001:000514a0       ?ClearAmbientAnimations@MissionScriptLoader@@CAXHPAPAD@Z 004524a0 f   missionscriptloader.obj
 0001:000514d0       ?AddAmbientNpcAnimation@MissionScriptLoader@@CAXHPAPAD@Z 004524d0 f   missionscriptloader.obj
 0001:000515c0       ?AddAmbientPcAnimation@MissionScriptLoader@@CAXHPAPAD@Z 004525c0 f   missionscriptloader.obj
 0001:000516d0       ?SetCamBestSide@MissionScriptLoader@@CAXHPAPAD@Z 004526d0 f   missionscriptloader.obj
 0001:000517b0       ?SetConversationCamName@MissionScriptLoader@@CAXHPAPAD@Z 004527b0 f   missionscriptloader.obj
 0001:00051840       ?SetConversationCamPcName@MissionScriptLoader@@CAXHPAPAD@Z 00452840 f   missionscriptloader.obj
 0001:000518d0       ?SetConversationCamNpcName@MissionScriptLoader@@CAXHPAPAD@Z 004528d0 f   missionscriptloader.obj
 0001:00051960       ?SetConversationCam@MissionScriptLoader@@CAXHPAPAD@Z 00452960 f   missionscriptloader.obj
 0001:00051a30       ?SetConversationCamDistance@MissionScriptLoader@@CAXHPAPAD@Z 00452a30 f   missionscriptloader.obj
 0001:00051ab0       ?SetPresentationBitmap@MissionScriptLoader@@CAXHPAPAD@Z 00452ab0 f   missionscriptloader.obj
 0001:00051ae0       ?CharacterIsChild@MissionScriptLoader@@CAXHPAPAD@Z 00452ae0 f   missionscriptloader.obj
 0001:00051ae0       ?SetAnimatedCameraMulticontrollerName@MissionScriptLoader@@CAXHPAPAD@Z 00452ae0 f   missionscriptloader.obj
 0001:00051b00       ?SetAnimatedCameraName@MissionScriptLoader@@CAXHPAPAD@Z 00452b00 f   missionscriptloader.obj
 0001:00051b30       ?SetMissionStartMulticontrollerName@MissionScriptLoader@@CAXHPAPAD@Z 00452b30 f   missionscriptloader.obj
 0001:00051b50       ?SetMissionStartCameraName@MissionScriptLoader@@CAXHPAPAD@Z 00452b50 f   missionscriptloader.obj
 0001:00051b70       ?SetPlayerCarName@MissionScriptLoader@@CAXHPAPAD@Z 00452b70 f   missionscriptloader.obj
 0001:00051ba0       ?SetFMVInfo@MissionScriptLoader@@CAXHPAPAD@Z 00452ba0 f   missionscriptloader.obj
 0001:00051bd0       ?SetFollowDistances@MissionScriptLoader@@CAXHPAPAD@Z 00452bd0 f   missionscriptloader.obj
 0001:00051c20       ?SetCondMinHealth@MissionScriptLoader@@CAXHPAPAD@Z 00452c20 f   missionscriptloader.obj
 0001:00051c50       ?SetConditionPosition@MissionScriptLoader@@CAXHPAPAD@Z 00452c50 f   missionscriptloader.obj
 0001:00051c70       ?SetCondTime@MissionScriptLoader@@CAXHPAPAD@Z 00452c70 f   missionscriptloader.obj
 0001:00051ca0       ?SetObjTargetVehicle@MissionScriptLoader@@CAXHPAPAD@Z 00452ca0 f   missionscriptloader.obj
 0001:00051d40       ?SetObjTargetBoss@MissionScriptLoader@@CAXHPAPAD@Z 00452d40 f   missionscriptloader.obj
 0001:00051d70       ?SetPickupTarget@MissionScriptLoader@@CAXHPAPAD@Z 00452d70 f   missionscriptloader.obj
 0001:00051d90       ?AllowRockOut@MissionScriptLoader@@CAXHPAPAD@Z 00452d90 f   missionscriptloader.obj
 0001:00051da0       ?SetObjDistance@MissionScriptLoader@@CAXHPAPAD@Z 00452da0 f   missionscriptloader.obj
 0001:00051de0       ?SetCondTargetVehicle@MissionScriptLoader@@CAXHPAPAD@Z 00452de0 f   missionscriptloader.obj
 0001:00051e40       ?AddStage@MissionScriptLoader@@CAXHPAPAD@Z 00452e40 f   missionscriptloader.obj
 0001:00052040       ?SetStageMessageIndex@MissionScriptLoader@@CAXHPAPAD@Z 00453040 f   missionscriptloader.obj
 0001:00052060       ?SetStageTime@MissionScriptLoader@@CAXHPAPAD@Z 00453060 f   missionscriptloader.obj
 0001:000520b0       ?AddStageTime@MissionScriptLoader@@CAXHPAPAD@Z 004530b0 f   missionscriptloader.obj
 0001:00052100       ?ShowStageComplete@MissionScriptLoader@@CAXHPAPAD@Z 00453100 f   missionscriptloader.obj
 0001:00052110       ?SetHUDIcon@MissionScriptLoader@@CAXHPAPAD@Z 00453110 f   missionscriptloader.obj
 0001:00052140       ?SetIrisWipe@MissionScriptLoader@@CAXHPAPAD@Z 00453140 f   missionscriptloader.obj
 0001:00052150       ?SetFadeOut@MissionScriptLoader@@CAXHPAPAD@Z 00453150 f   missionscriptloader.obj
 0001:00052160       ?CloseStage@MissionScriptLoader@@CAXHPAPAD@Z 00453160 f   missionscriptloader.obj
 0001:00052170       ?SetVehicleAIParams@MissionScriptLoader@@CAXHPAPAD@Z 00453170 f   missionscriptloader.obj
 0001:000521f0       ?SetBonusMissionStart@MissionScriptLoader@@CAXHPAPAD@Z 004531f0 f   missionscriptloader.obj
 0001:00052200       ?GetVehicleByName@MissionScriptLoader@@AAEPAVVehicle@@PBD@Z 00453200 f   missionscriptloader.obj
 0001:00052220       ?GetDirectionalArrowType@MissionScriptLoader@@CA_NPBDPAW4TYPE@DirectionalArrowEnum@@@Z 00453220 f   missionscriptloader.obj
 0001:00052350       ?LoadP3DFile@MissionScriptLoader@@CAXHPAPAD@Z 00453350 f   missionscriptloader.obj
 0001:000527f0       ?LoadDisposableCar@MissionScriptLoader@@SAXHPAPAD@Z 004537f0 f   missionscriptloader.obj
 0001:00052a80       ?AddCharacter@MissionScriptLoader@@CAXHPAPAD@Z 00453a80 f   missionscriptloader.obj
 0001:00052aa0       ?AddNPCCharacterBonusMission@MissionScriptLoader@@CAXHPAPAD@Z 00453aa0 f   missionscriptloader.obj
 0001:00052bd0       ?SetBonusMissionDialoguePositions@MissionScriptLoader@@CAXHPAPAD@Z 00453bd0 f   missionscriptloader.obj
 0001:00052c70       ?AddAmbientCharacter@MissionScriptLoader@@CAXHPAPAD@Z 00453c70 f   missionscriptloader.obj
 0001:00052d50       ?AddBonusMissionNPCWaypoint@MissionScriptLoader@@CAXHPAPAD@Z 00453d50 f   missionscriptloader.obj
 0001:00052da0       ?AddObjectiveNPCWaypoint@MissionScriptLoader@@CAXHPAPAD@Z 00453da0 f   missionscriptloader.obj
 0001:00052df0       ?AddNPCWaypoint@MissionScriptLoader@@CA_NPBD0@Z 00453df0 f   missionscriptloader.obj
 0001:00052e50       ?AddPurchaseCarNPCWaypoint@MissionScriptLoader@@CAXHPAPAD@Z 00453e50 f   missionscriptloader.obj
 0001:00052ea0       ?AddAmbientNPCWaypoint@MissionScriptLoader@@CAXHPAPAD@Z 00453ea0 f   missionscriptloader.obj
 0001:00052ec0       ?ActivateTrigger@MissionScriptLoader@@CAXHPAPAD@Z 00453ec0 f   missionscriptloader.obj
 0001:00052ef0       ?DeactivateTrigger@MissionScriptLoader@@CAXHPAPAD@Z 00453ef0 f   missionscriptloader.obj
 0001:00052f20       ?CreateActionEventTrigger@MissionScriptLoader@@CAXHPAPAD@Z 00453f20 f   missionscriptloader.obj
 0001:00052f50       ?SetCoinDrawable@MissionScriptLoader@@CAXHPAPAD@Z 00453f50 f   missionscriptloader.obj
 0001:00052f80       ?SetParticleTexture@MissionScriptLoader@@CAXHPAPAD@Z 00453f80 f   missionscriptloader.obj
 0001:00052fc0       ?AddSafeZone@MissionScriptLoader@@CAXHPAPAD@Z 00453fc0 f   missionscriptloader.obj
 0001:00053000       ?CreatePedGroup@MissionScriptLoader@@CAXHPAPAD@Z 00454000 f   missionscriptloader.obj
 0001:00053070       ?AddPed@MissionScriptLoader@@CAXHPAPAD@Z 00454070 f   missionscriptloader.obj
 0001:00053120       ?ClosePedGroup@MissionScriptLoader@@CAXHPAPAD@Z 00454120 f   missionscriptloader.obj
 0001:00053170       ?UsePedGroup@MissionScriptLoader@@CAXHPAPAD@Z 00454170 f   missionscriptloader.obj
 0001:00053190       ?BindReward@MissionScriptLoader@@CAXHPAPAD@Z 00454190 f   missionscriptloader.obj
 0001:000533e0       ?SetCarAttributes@MissionScriptLoader@@CAXHPAPAD@Z 004543e0 f   missionscriptloader.obj
 0001:000534a0       ?SetTotalGags@MissionScriptLoader@@CAXHPAPAD@Z 004544a0 f   missionscriptloader.obj
 0001:000534d0       ?SetTotalWasps@MissionScriptLoader@@CAXHPAPAD@Z 004544d0 f   missionscriptloader.obj
 0001:00053500       ?CreateTrafficGroup@MissionScriptLoader@@CAXHPAPAD@Z 00454500 f   missionscriptloader.obj
 0001:00053530       ?AddTrafficModel@MissionScriptLoader@@CAXHPAPAD@Z 00454530 f   missionscriptloader.obj
 0001:000535e0       ?CloseTrafficGroup@MissionScriptLoader@@CAXHPAPAD@Z 004545e0 f   missionscriptloader.obj
 0001:000535f0       ?SetRespawnRate@MissionScriptLoader@@CAXHPAPAD@Z 004545f0 f   missionscriptloader.obj
 0001:00053700       ?EnableTutorialMode@MissionScriptLoader@@CAXHPAPAD@Z 00454700 f   missionscriptloader.obj
 0001:00053750       ?StartCountdown@MissionScriptLoader@@CAXHPAPAD@Z 00454750 f   missionscriptloader.obj
 0001:000537e0       ?AddToCountdownSequence@MissionScriptLoader@@CAXHPAPAD@Z 004547e0 f   missionscriptloader.obj
 0001:00053830       ?GoToPattyAndSelmaScreenWhenDone@MissionScriptLoader@@CAXHPAPAD@Z 00454830 f   missionscriptloader.obj
 0001:00053840       ?StreetRacePropsLoad@MissionScriptLoader@@CAXHPAPAD@Z 00454840 f   missionscriptloader.obj
 0001:00053860       ?StreetRacePropsUnload@MissionScriptLoader@@CAXHPAPAD@Z 00454860 f   missionscriptloader.obj
 0001:00053880       ?UseElapsedTime@MissionScriptLoader@@CAXHPAPAD@Z 00454880 f   missionscriptloader.obj
 0001:00053890       ?AttachStatePropCollectible@MissionScriptLoader@@CAXHPAPAD@Z 00454890 f   missionscriptloader.obj
 0001:000538d0       ?ShowHUD@MissionScriptLoader@@CAXHPAPAD@Z 004548d0 f   missionscriptloader.obj
 0001:00053900       ?SetNumValidFailureHints@MissionScriptLoader@@CAXHPAPAD@Z 00454900 f   missionscriptloader.obj
 0001:00053920       ?SetParTime@MissionScriptLoader@@CAXHPAPAD@Z 00454920 f   missionscriptloader.obj
 0001:00053970       ?SetRaceEnteryFee@MissionScriptLoader@@CAXHPAPAD@Z 00454970 f   missionscriptloader.obj
 0001:000539a0       ?SetCoinFee@MissionScriptLoader@@CAXHPAPAD@Z 004549a0 f   missionscriptloader.obj
 0001:000539f0       ?PutMFPlayerInCar@MissionScriptLoader@@CAXHPAPAD@Z 004549f0 f   missionscriptloader.obj
 0001:00053a00       ?SetStatepropShadow@MissionScriptLoader@@CAXHPAPAD@Z 00454a00 f   missionscriptloader.obj
 0001:00053a20       ?TreeOfWoeErrorMsg@MissionScriptLoader@@SAXPBD@Z 00454a20 f   missionscriptloader.obj
 0001:00053a90       ?DisableHitAndRun@MissionScriptLoader@@CAXHPAPAD@Z 00454a90 f   missionscriptloader.obj
 0001:00053ac0       ?EnableHitAndRun@MissionScriptLoader@@CAXHPAPAD@Z 00454ac0 f   missionscriptloader.obj
 0001:00053ae0       ?ResetHitAndRun@MissionScriptLoader@@CAXHPAPAD@Z 00454ae0 f   missionscriptloader.obj
 0001:00053af0       ?SetNumChaseCars@MissionScriptLoader@@CAXHPAPAD@Z 00454af0 f   missionscriptloader.obj
 0001:00053b10       ?SetHitAndRunDecay@MissionScriptLoader@@CAXHPAPAD@Z 00454b10 f   missionscriptloader.obj
 0001:00053b30       ?SetHitAndRunMeter@MissionScriptLoader@@CAXHPAPAD@Z 00454b30 f   missionscriptloader.obj
 0001:00053b60       ?SwapInDefaultCar@MissionScriptLoader@@CAXHPAPAD@Z 00454b60 f   missionscriptloader.obj
 0001:00053b70       ?SetSwapDefaultCarRespawnLocatorName@MissionScriptLoader@@CAXHPAPAD@Z 00454b70 f   missionscriptloader.obj
 0001:00053b90       ?SetSwapForcedCarRespawnLocatorName@MissionScriptLoader@@CAXHPAPAD@Z 00454b90 f   missionscriptloader.obj
 0001:00053bb0       ?SetSwapPlayerRespawnLocatorName@MissionScriptLoader@@CAXHPAPAD@Z 00454bb0 f   missionscriptloader.obj
 0001:00053bd0       ?NoTrafficForStage@MissionScriptLoader@@CAXHPAPAD@Z 00454bd0 f   missionscriptloader.obj
 0001:00053be0       ?ClearTrafficForStage@MissionScriptLoader@@CAXHPAPAD@Z 00454be0 f   missionscriptloader.obj
 0001:00053bf0       ?PlacePlayerAtLocatorName@MissionScriptLoader@@CAXHPAPAD@Z 00454bf0 f   missionscriptloader.obj
 0001:00053c10       ?msPlacePlayerCarAtLocatorName@MissionScriptLoader@@CAXHPAPAD@Z 00454c10 f   missionscriptloader.obj
 0001:00053c30       ?SetStageAIRaceCatchupParams@MissionScriptLoader@@CAXHPAPAD@Z 00454c30 f   missionscriptloader.obj
 0001:00053cd0       ?SetStageAIEvadeCatchupParams@MissionScriptLoader@@CAXHPAPAD@Z 00454cd0 f   missionscriptloader.obj
 0001:00053d50       ?SetStageAITargetCatchupParams@MissionScriptLoader@@CAXHPAPAD@Z 00454d50 f   missionscriptloader.obj
 0001:00053dd0       ?SetPauseDuration@MissionScriptLoader@@CAXHPAPAD@Z 00454dd0 f   missionscriptloader.obj
 0001:00053e20       ?SetCharacterToHide@MissionScriptLoader@@CAXHPAPAD@Z 00454e20 f   missionscriptloader.obj
 0001:00053e40       ?SetLevelOver@MissionScriptLoader@@CAXHPAPAD@Z 00454e40 f   missionscriptloader.obj
 0001:00053e50       ?SetGameOver@MissionScriptLoader@@CAXHPAPAD@Z 00454e50 f   missionscriptloader.obj
 0001:00053e60       ?StayInBlack@MissionScriptLoader@@CAXHPAPAD@Z 00454e60 f   missionscriptloader.obj
 0001:00053e70       ?AllowMissionAbort@MissionScriptLoader@@CAXHPAPAD@Z 00454e70 f   missionscriptloader.obj
 0001:00053ec0       ?find@?$@VtTexture@@@p3d@@YAPAVtTexture@@PAVtEntityStore@@PBD@Z 00454ec0 f i missionscriptloader.obj
 0001:00053f30       ?find@?$@VtTexture@@@p3d@@YAPAVtTexture@@PAVtEntityStore@@ABVtName@@@Z 00454f30 f i missionscriptloader.obj
 0001:00054000       ?safe_cast@?$SafeCast@VtTexture@@@radLoadInventory@@UAEPAUIRefCount@@PAU3@@Z 00455000 f i missionscriptloader.obj
 0001:00054020       ?GetType@MissionCondition@@QBE?AW4ConditionTypeEnum@1@XZ 00455020 f i missionstage.obj
 0001:00054040       ??0MissionStage@@QAE@XZ    00455040 f   missionstage.obj
 0001:000543e0       ??_EMissionStage@@UAEPAXI@Z 004553e0 f i missionstage.obj
 0001:000543e0       ??_GMissionStage@@UAEPAXI@Z 004553e0 f i missionstage.obj
 0001:00054400       ??1MissionStage@@UAE@XZ    00455400 f   missionstage.obj
 0001:00054590       ?DestroyStageVehicleAI@MissionStage@@AAEHXZ 00455590 f   missionstage.obj
 0001:00054600       ?AddVehicle@MissionStage@@QAEXPAVVehicle@@HPAVCarStartLocator@@PAD@Z 00455600 f   missionstage.obj
 0001:00054b60       ?SetAIParams@MissionStage@@QAEXPAVVehicle@@ABUAIParams@1@@Z 00455b60 f   missionstage.obj
 0001:00054ba0       ?SetAIRaceCatchupParams@MissionStage@@QAEXPAVVehicle@@ABURaceCatchupParams@VehicleAI@@@Z 00455ba0 f   missionstage.obj
 0001:00054bd0       ?SetAIEvadeCatchupParams@MissionStage@@QAEXPAVVehicle@@ABUEvadeCatchupParams@VehicleAI@@@Z 00455bd0 f   missionstage.obj
 0001:00054c00       ?SetAITargetCatchupParams@MissionStage@@QAEXPAVVehicle@@ABUTargetCatchupParams@VehicleAI@@@Z 00455c00 f   missionstage.obj
 0001:00054c30       ?AddWaypoint@MissionStage@@QAEXPAVLocator@@@Z 00455c30 f   missionstage.obj
 0001:00054c50       ?AddCharacter@MissionStage@@QAEXPADPAVCarStartLocator@@1PBDPAVVehicle@@@Z 00455c50 f   missionstage.obj
 0001:00054dd0       ?AddCharacter@MissionStage@@QAEXPADPAVCarStartLocator@@1PBD0@Z 00455dd0 f   missionstage.obj
 0001:00054f70       ?GetFailureCondition@MissionStage@@QBEPAVMissionCondition@@XZ 00455f70 f   missionstage.obj
 0001:00054fa0       ?Initialize@MissionStage@@QAEXXZ 00455fa0 f   missionstage.obj
 0001:00054fc0       ?Finalize@MissionStage@@QAEXXZ 00455fc0 f   missionstage.obj
 0001:00055190       ?VehicleFinalize@MissionStage@@QAEXXZ 00456190 f   missionstage.obj
 0001:00055250       ?Reset@MissionStage@@QAEXXZ 00456250 f   missionstage.obj
 0001:00055a30       ?VehicleInfoInitialize@MissionStage@@QAEXXZ 00456a30 f   missionstage.obj
 0001:00055d10       ?Start@MissionStage@@QAEXXZ 00456d10 f   missionstage.obj
 0001:00055de0       ?Update@MissionStage@@UAEXI@Z 00456de0 f   missionstage.obj
 0001:00056120       ?HandleEvent@MissionStage@@UAEXW4EventEnum@@PAX@Z 00457120 f   missionstage.obj
 0001:000561b0       ?SetStageTime@MissionStage@@QAEXW4StageTimeType@1@I@Z 004571b0 f   missionstage.obj
 0001:000561c0       ?GetStageTime@MissionStage@@QAEXAAW4StageTimeType@1@AAI@Z 004571c0 f   missionstage.obj
 0001:000561e0       ?SetCameraInfo@MissionStage@@QAEXW4Type@SuperCam@@_N1@Z 004571e0 f   missionstage.obj
 0001:00056200       ?GetVehicle@MissionStage@@QAEPAVVehicle@@H@Z 00457200 f   missionstage.obj
 0001:00056210       ?SetChaseSpawnRate@MissionStage@@QAEXPADI@Z 00457210 f   missionstage.obj
 0001:00056250       ?AddSafeZone@MissionStage@@QAEHPAVCarStartLocator@@I@Z 00457250 f   missionstage.obj
 0001:000562d0       ?DestroyAllSafeZones@MissionStage@@AAEXXZ 004572d0 f   missionstage.obj
 0001:00056300       ?triggerStageDialog@MissionStage@@AAEXXZ 00457300 f   missionstage.obj
 0001:000563b0       ?SetLockRequirement@MissionStage@@QAEXIW4Type@LockRequirement@1@PBD@Z 004573b0 f   missionstage.obj
 0001:00056410       ?GetLockRequirement@MissionStage@@QAEABULockRequirement@1@I@Z 00457410 f   missionstage.obj
 0001:00056420       ?DisplayMissionStageIndexMessage@MissionStage@@QAEXXZ 00457420 f   missionstage.obj
 0001:00056470       ?SetCountdownEnabled@MissionStage@@QAEXIVtUidUnaligned@@@Z 00457470 f   missionstage.obj
 0001:00056520       ?AddCountdownSequenceUnit@MissionStage@@QAEXPBDH@Z 00457520 f   missionstage.obj
 0001:00056560       ?GetCountdownSequenceUnit@MissionStage@@QBEPAUCountdownSequenceUnit@1@H@Z 00457560 f   missionstage.obj
 0001:00056580       ?PutAllAisInLimbo@MissionStage@@QAEX_N@Z 00457580 f   missionstage.obj
 0001:000565c0       ?DoTransition@MissionStage@@QAEXXZ 004575c0 f   missionstage.obj
 0001:00056610       ?UseElapsedTime@MissionStage@@QAEXXZ 00457610 f   missionstage.obj
 0001:00056620       ?QueryUseElapsedTime@MissionStage@@QAE_NXZ 00457620 f   missionstage.obj
 0001:00056630       ?SetRaceEnteryFee@MissionStage@@QAEXH@Z 00457630 f   missionstage.obj
 0001:00056640       ?PutMFPlayerInCar@MissionStage@@QAEXXZ 00457640 f   missionstage.obj
 0001:00056650       ?DisableHitAndRun@MissionStage@@QAEXXZ 00457650 f   missionstage.obj
 0001:00056660       ?SwapInDefaultCar@MissionStage@@QAEXXZ 00457660 f   missionstage.obj
 0001:00056670       ?SwapInDefaultCarStart@MissionStage@@QAEXXZ 00457670 f   missionstage.obj
 0001:00056740       ?OnProcessRequestsComplete@MissionStage@@UAEXPAX@Z 00457740 f   missionstage.obj
 0001:00056870       ?SetSwapDefaultCarRespawnLocatorName@MissionStage@@QAEXPAD@Z 00457870 f   missionstage.obj
 0001:00056890       ?SetSwapPlayerRespawnLocatorName@MissionStage@@QAEXPAD@Z 00457890 f   missionstage.obj
 0001:000568b0       ?SetSwapForcedCarRespawnLocatorName@MissionStage@@QAEXPAD@Z 004578b0 f   missionstage.obj
 0001:000568d0       ?DisableTraffic@MissionStage@@QAEXXZ 004578d0 f   missionstage.obj
 0001:000568e0       ?ClearTrafficForStage@MissionStage@@QAEXXZ 004578e0 f   missionstage.obj
 0001:000568f0       ?SetPlayerRespawnLocatorName@MissionStage@@QAEXPAD@Z 004578f0 f   missionstage.obj
 0001:00056910       ?SetmsPlayerCarRespawnLocatorName@MissionStage@@QAEXPAD@Z 00457910 f   missionstage.obj
 0001:00056930       ?OnStageCompleteSuccessful@MissionStage@@IAEXXZ 00457930 f   missionstage.obj
 0001:00056940       ?SetCharacterToHide@MissionStage@@QAEXPAD@Z 00457940 f   missionstage.obj
 0001:00056960       ?SetLevelOver@MissionStage@@QAEXXZ 00457960 f   missionstage.obj
 0001:00056970       ?SetStageMusicState@MissionStage@@QAEXII@Z 00457970 f   missionstage.obj
 0001:00056980       ?GetStageMusicState@MissionStage@@QAEXAAI0@Z 00457980 f   missionstage.obj
 0001:000569a0       ?GetMainAIVehicleForThisStage@MissionStage@@QAEPAVVehicle@@XZ 004579a0 f   missionstage.obj
 0001:00056a70       ??_GBonusObjective@@UAEPAXI@Z 00457a70 f i nocopbonusobjective.obj
 0001:00056a70       ??_EBonusObjective@@UAEPAXI@Z 00457a70 f i nocopbonusobjective.obj
 0001:00056a90       ??0NoCopBonusObjective@@QAE@XZ 00457a90 f   nocopbonusobjective.obj
 0001:00056ac0       ??_ENoCopBonusObjective@@UAEPAXI@Z 00457ac0 f i nocopbonusobjective.obj
 0001:00056ac0       ??_GNoCopBonusObjective@@UAEPAXI@Z 00457ac0 f i nocopbonusobjective.obj
 0001:00056ae0       ??1NoCopBonusObjective@@UAE@XZ 00457ae0 f   nocopbonusobjective.obj
 0001:00056b00       ?Initialize@NoDamageBonusObjective@@UAEXXZ 00457b00 f   nodamagebonusobjective.obj
 0001:00056b00       ?Initialize@NoCopBonusObjective@@UAEXXZ 00457b00 f   nocopbonusobjective.obj
 0001:00056b30       ?OnReset@NoDamageBonusObjective@@MAEXXZ 00457b30 f   nodamagebonusobjective.obj
 0001:00056b30       ?OnReset@NoCopBonusObjective@@MAEXXZ 00457b30 f   nocopbonusobjective.obj
 0001:00056b40       ?OnUpdate@NoCopBonusObjective@@MAEXI@Z 00457b40 f   nocopbonusobjective.obj
 0001:00056b60       ??_ENoCopBonusObjective@@WM@AEPAXI@Z 00457b60 f i nocopbonusobjective.obj
 0001:00056b70       ??0NoDamageBonusObjective@@QAE@XZ 00457b70 f   nodamagebonusobjective.obj
 0001:00056ba0       ??_ENoDamageBonusObjective@@UAEPAXI@Z 00457ba0 f i nodamagebonusobjective.obj
 0001:00056ba0       ??_GNoDamageBonusObjective@@UAEPAXI@Z 00457ba0 f i nodamagebonusobjective.obj
 0001:00056bc0       ??1NoDamageBonusObjective@@UAE@XZ 00457bc0 f   nodamagebonusobjective.obj
 0001:00056be0       ?Finalize@NoCopBonusObjective@@UAEXXZ 00457be0 f   nocopbonusobjective.obj
 0001:00056be0       ?Finalize@NoDamageBonusObjective@@UAEXXZ 00457be0 f   nodamagebonusobjective.obj
 0001:00056c10       ?HandleEvent@NoCopBonusObjective@@UAEXW4EventEnum@@PAX@Z 00457c10 f   nocopbonusobjective.obj
 0001:00056c10       ?HandleEvent@NoDamageBonusObjective@@UAEXW4EventEnum@@PAX@Z 00457c10 f   nodamagebonusobjective.obj
 0001:00056c30       ?OnUpdate@NoDamageBonusObjective@@MAEXI@Z 00457c30 f   nodamagebonusobjective.obj
 0001:00056c50       ??_ENoDamageBonusObjective@@WM@AEPAXI@Z 00457c50 f i nodamagebonusobjective.obj
 0001:00056c60       ??0RacePositionBonusObjective@@QAE@XZ 00457c60 f   racepositionbonusobjective.obj
 0001:00056c90       ??_GRacePositionBonusObjective@@UAEPAXI@Z 00457c90 f i racepositionbonusobjective.obj
 0001:00056c90       ??_ERacePositionBonusObjective@@UAEPAXI@Z 00457c90 f i racepositionbonusobjective.obj
 0001:00056cb0       ??1RacePositionBonusObjective@@UAE@XZ 00457cb0 f   racepositionbonusobjective.obj
 0001:00056cd0       ?Initialize@RacePositionBonusObjective@@UAEXXZ 00457cd0 f   racepositionbonusobjective.obj
 0001:00056d00       ?Finalize@RacePositionBonusObjective@@UAEXXZ 00457d00 f   racepositionbonusobjective.obj
 0001:00056d30       ?HandleEvent@RacePositionBonusObjective@@UAEXW4EventEnum@@PAX@Z 00457d30 f   racepositionbonusobjective.obj
 0001:00056d60       ?OnReset@RacePositionBonusObjective@@MAEXXZ 00457d60 f   racepositionbonusobjective.obj
 0001:00056d70       ??_ERacePositionBonusObjective@@WM@AEPAXI@Z 00457d70 f i racepositionbonusobjective.obj
 0001:00056d80       ??0StatePropCollectible@@QAE@XZ 00457d80 f   statepropcollectible.obj
 0001:00056de0       ??_GStatePropCollectible@@UAEPAXI@Z 00457de0 f i statepropcollectible.obj
 0001:00056de0       ??_EStatePropCollectible@@UAEPAXI@Z 00457de0 f i statepropcollectible.obj
 0001:00056e00       ??1StatePropCollectible@@UAE@XZ 00457e00 f   statepropcollectible.obj
 0001:00056e80       ?PreReactToCollision@StatePropCollectible@@UAE?AW4Solving_Answer@sim@@PAVSimState@3@AAVCollision@3@@Z 00457e80 f   statepropcollectible.obj
 0001:00056f20       ?AdvanceAnimation@StatePropCollectible@@UAEXM@Z 00457f20 f   statepropcollectible.obj
 0001:00056f90       ?SetTransform@StatePropCollectible@@UAEXABVMatrix@RadicalMathLibrary@@@Z 00457f90 f   statepropcollectible.obj
 0001:00056fd0       ?SetPosition@StatePropCollectible@@UAEXABVVector@RadicalMathLibrary@@@Z 00457fd0 f   statepropcollectible.obj
 0001:00057000       ?LoadSetup@StatePropCollectible@@UAEXPAVCStatePropData@@HABVMatrix@RadicalMathLibrary@@PAVCollisionAttributes@@_NPAVtEntityStore@@3PAVCollisionObject@sim@@PAVPhysicsObject@8@@Z 00458000 f   statepropcollectible.obj
 0001:00057070       ?AddToDSG@StatePropCollectible@@QAEXXZ 00458070 f   statepropcollectible.obj
 0001:000570a0       ?RemoveFromDSG@StatePropCollectible@@QAEXXZ 004580a0 f   statepropcollectible.obj
 0001:000570d0       ?Update@StatePropCollectible@@UAEXM@Z 004580d0 f   statepropcollectible.obj
 0001:000570f0       ?RecieveEvent@StatePropCollectible@@UAEXHPAVCStateProp@@@Z 004580f0 f   statepropcollectible.obj
 0001:00057160       ?Explode@StatePropCollectible@@QAEXXZ 00458160 f   statepropcollectible.obj
 0001:00057180       ?GetHeading@StatePropCollectible@@UAEXPAVVector@RadicalMathLibrary@@@Z 00458180 f   statepropcollectible.obj
 0001:000571a0       ?EnableHudIcon@StatePropCollectible@@QAEX_N@Z 004581a0 f   statepropcollectible.obj
 0001:00057220       ?CameraShake@StatePropCollectible@@IAEXXZ 00458220 f   statepropcollectible.obj
 0001:00057300       ?GetPosition@StatePropCollectible@@WPE@AEXPAVVector@RadicalMathLibrary@@@Z 00458300 f i statepropcollectible.obj
 0001:00057310       ??0TimeRemainBonusObjective@@QAE@XZ 00458310 f   timeremainbonusobjective.obj
 0001:00057330       ??_GTimeRemainBonusObjective@@UAEPAXI@Z 00458330 f i timeremainbonusobjective.obj
 0001:00057330       ??_ETimeRemainBonusObjective@@UAEPAXI@Z 00458330 f i timeremainbonusobjective.obj
 0001:00057350       ??1TimeRemainBonusObjective@@UAE@XZ 00458350 f   timeremainbonusobjective.obj
 0001:00057360       ?GetNumericData@TimeRemainBonusObjective@@UAEIXZ 00458360 f   timeremainbonusobjective.obj
 0001:00057370       ?OnReset@TimeRemainBonusObjective@@MAEXXZ 00458370 f   timeremainbonusobjective.obj
 0001:00057380       ?OnUpdate@TimeRemainBonusObjective@@MAEXI@Z 00458380 f   timeremainbonusobjective.obj
 0001:000573b0       ??0BuyCarObjective@@QAE@XZ 004583b0 f   buycarobjective.obj
 0001:000573d0       ??_EBuyCarObjective@@UAEPAXI@Z 004583d0 f i buycarobjective.obj
 0001:000573d0       ??_GBuyCarObjective@@UAEPAXI@Z 004583d0 f i buycarobjective.obj
 0001:000573f0       ??1BuyCarObjective@@UAE@XZ 004583f0 f   buycarobjective.obj
 0001:00057420       ?SetVehicleName@BuyCarObjective@@QAEXPBD@Z 00458420 f   buycarobjective.obj
 0001:00057420       ?SetSkinName@BuySkinObjective@@QAEXPBD@Z 00458420 f   buyskinobjective.obj
 0001:000574a0       ?OnUpdate@BuyCarObjective@@MAEXI@Z 004584a0 f   buycarobjective.obj
 0001:00057500       ??0BuySkinObjective@@QAE@XZ 00458500 f   buyskinobjective.obj
 0001:00057520       ??_GBuySkinObjective@@UAEPAXI@Z 00458520 f i buyskinobjective.obj
 0001:00057520       ??_EBuySkinObjective@@UAEPAXI@Z 00458520 f i buyskinobjective.obj
 0001:00057540       ??1BuySkinObjective@@UAE@XZ 00458540 f   buyskinobjective.obj
 0001:00057570       ?OnUpdate@BuySkinObjective@@MAEXI@Z 00458570 f   buyskinobjective.obj
 0001:000575e0       ??0CoinObjective@@QAE@XZ   004585e0 f   coinobjective.obj
 0001:00057600       ??_GCoinObjective@@UAEPAXI@Z 00458600 f i coinobjective.obj
 0001:00057600       ??_ECoinObjective@@UAEPAXI@Z 00458600 f i coinobjective.obj
 0001:00057620       ??1CoinObjective@@UAE@XZ   00458620 f   coinobjective.obj
 0001:00057630       ?HandleEvent@CoinObjective@@UAEXW4EventEnum@@PAX@Z 00458630 f   coinobjective.obj
 0001:000576c0       ?OnInitialize@CoinObjective@@MAEXXZ 004586c0 f   coinobjective.obj
 0001:000576e0       ?OnFinalize@DamageCondition@@MAEXXZ 004586e0 f   damagecondition.obj
 0001:000576e0       ?OnFinalize@CoinObjective@@MAEXXZ 004586e0 f   coinobjective.obj
 0001:000576e0       ?OnFinalize@NotAbductedCondition@@MAEXXZ 004586e0 f   notabductedcondition.obj
 0001:000576f0       ?OnUpdate@CoinObjective@@MAEXI@Z 004586f0 f   coinobjective.obj
 0001:00057720       ?SetCoinFee@CoinObjective@@QAEXH@Z 00458720 f   coinobjective.obj
 0001:00057730       ?GetCoinAmount@CoinObjective@@QAEHXZ 00458730 f   coinobjective.obj
 0001:00057740       ??1CollectionCondition@@UAE@XZ 00458740 f i collectdumpedobjective.obj
 0001:00057750       ??_GCollectionCondition@@UAEPAXI@Z 00458750 f i collectdumpedobjective.obj
 0001:00057750       ??_ECollectionCondition@@UAEPAXI@Z 00458750 f i collectdumpedobjective.obj
 0001:00057770       ??0CollectDumpedObjective@@QAE@XZ 00458770 f   collectdumpedobjective.obj
 0001:00057800       ??_GCollectDumpedObjective@@UAEPAXI@Z 00458800 f i collectdumpedobjective.obj
 0001:00057800       ??_ECollectDumpedObjective@@UAEPAXI@Z 00458800 f i collectdumpedobjective.obj
 0001:00057820       ??1CollectDumpedObjective@@UAE@XZ 00458820 f   collectdumpedobjective.obj
 0001:00057840       ?BindCollectibleToWaypoint@CollectDumpedObjective@@QAEXHI@Z 00458840 f   collectdumpedobjective.obj
 0001:00057860       ?SetDumpVehicle@CollectDumpedObjective@@QAEXPAVVehicle@@@Z 00458860 f   collectdumpedobjective.obj
 0001:00057870       ?HandleEvent@CollectDumpedObjective@@UAEXW4EventEnum@@PAX@Z 00458870 f   collectdumpedobjective.obj
 0001:00057a40       ?OnInitCollectibleObjective@CollectDumpedObjective@@MAEXXZ 00458a40 f   collectdumpedobjective.obj
 0001:00057d60       ?OnFinalizeCollectibleObjective@CollectDumpedObjective@@MAEXXZ 00458d60 f   collectdumpedobjective.obj
 0001:00057e10       ?OnCollection@CollectDumpedObjective@@MAE_NIAA_N@Z 00458e10 f   collectdumpedobjective.obj
 0001:00057ef0       ?OnUpdateCollectibleObjective@CollectDumpedObjective@@MAEXI@Z 00458ef0 f   collectdumpedobjective.obj
 0001:000582a0       ?FindFreeSlot@CollectDumpedObjective@@IAEHXZ 004592a0 f   collectdumpedobjective.obj
 0001:000582d0       ??0CollectibleLocatorData@CollectibleObjective@@QAE@XZ 004592d0 f i collectibleobjective.obj
 0001:000583a0       ??0CollectibleObjective@@QAE@XZ 004593a0 f   collectibleobjective.obj
 0001:00058430       ??_ECollectibleObjective@@UAEPAXI@Z 00459430 f i collectibleobjective.obj
 0001:00058430       ??_GCollectibleObjective@@UAEPAXI@Z 00459430 f i collectibleobjective.obj
 0001:00058450       ??1CollectibleLocatorData@CollectibleObjective@@QAE@XZ 00459450 f i collectibleobjective.obj
 0001:00058470       ??1CollectibleObjective@@UAE@XZ 00459470 f   collectibleobjective.obj
 0001:000584f0       ?MoveCollectible@CollectibleObjective@@QAEXIABVVector@RadicalMathLibrary@@@Z 004594f0 f   collectibleobjective.obj
 0001:00058590       ?AddCollectibleLocatorName@CollectibleObjective@@QAEXPAD0IVtUidUnaligned@@M@Z 00459590 f   collectibleobjective.obj
 0001:00058630       ?SetCollectEffectName@CollectibleObjective@@QAEXPAD@Z 00459630 f   collectibleobjective.obj
 0001:00058650       ?HandleEvent@CollectibleObjective@@UAEXW4EventEnum@@PAX@Z 00459650 f   collectibleobjective.obj
 0001:00058690       ?OnUpdate@CollectibleObjective@@MAEXI@Z 00459690 f   collectibleobjective.obj
 0001:00058700       ?OnInitialize@CollectibleObjective@@MAEXXZ 00459700 f   collectibleobjective.obj
 0001:00058a50       ?GetCollectiblePathInfo@CollectibleObjective@@IAEXIAAUPathElement@RoadManager@@AAM@Z 00459a50 f   collectibleobjective.obj
 0001:00058a80       ?OnFinalize@CollectibleObjective@@MAEXXZ 00459a80 f   collectibleobjective.obj
 0001:00058b10       ?CheckCollectibleLocators@CollectibleObjective@@MAE_NPAVLocator@@@Z 00459b10 f   collectibleobjective.obj
 0001:00058b80       ?Collect@CollectibleObjective@@IAEXI_N@Z 00459b80 f   collectibleobjective.obj
 0001:00058d30       ?Activate@CollectibleObjective@@IAEXI_N0W4eIconType@HudMapIcon@@0@Z 00459d30 f   collectibleobjective.obj
 0001:00058de0       ?SetFocus@CollectibleObjective@@IAEXI@Z 00459de0 f   collectibleobjective.obj
 0001:00058e60       ?ResetCollectibles@CollectibleObjective@@IAEXXZ 00459e60 f   collectibleobjective.obj
 0001:00058ec0       ?DumpCollectible@CollectibleObjective@@IAEXHPAVVehicle@@0_N1@Z 00459ec0 f   collectibleobjective.obj
 0001:00059360       ?GetAnyCollectedID@CollectibleObjective@@IBEHXZ 0045a360 f   collectibleobjective.obj
 0001:00059390       ?Uncollect@CollectibleObjective@@IAEXH@Z 0045a390 f   collectibleobjective.obj
 0001:000593d0       ??0DeliveryObjective@@QAE@XZ 0045a3d0 f   deliveryobjective.obj
 0001:00059480       ??_EDeliveryObjective@@UAEPAXI@Z 0045a480 f i deliveryobjective.obj
 0001:00059480       ??_GDeliveryObjective@@UAEPAXI@Z 0045a480 f i deliveryobjective.obj
 0001:000594a0       ??1DeliveryObjective@@UAE@XZ 0045a4a0 f   deliveryobjective.obj
 0001:00059520       ?HandleEvent@DeliveryObjective@@UAEXW4EventEnum@@PAX@Z 0045a520 f   deliveryobjective.obj
 0001:00059680       ?OnInitCollectibles@DeliveryObjective@@MAEXXZ 0045a680 f   deliveryobjective.obj
 0001:000596e0       ?OnInitCollectibleObjective@DeliveryObjective@@MAEXXZ 0045a6e0 f   deliveryobjective.obj
 0001:00059750       ?OnFinalizeCollectibleObjective@DeliveryObjective@@MAEXXZ 0045a750 f   deliveryobjective.obj
 0001:000597b0       ?OnCollection@DeliveryObjective@@MAE_NIAA_N@Z 0045a7b0 f   deliveryobjective.obj
 0001:00059820       ?OnUpdateCollectibleObjective@DeliveryObjective@@MAEXI@Z 0045a820 f   deliveryobjective.obj
 0001:00059860       ?FindStateProps@DeliveryObjective@@IAEXXZ 0045a860 f   deliveryobjective.obj
 0001:00059910       ?ReleaseAllStateProps@DeliveryObjective@@IAEXXZ 0045a910 f   deliveryobjective.obj
 0001:00059960       ?SetButtonHandlersEnabled@DeliveryObjective@@IAEX_N@Z 0045a960 f   deliveryobjective.obj
 0001:000599e0       ?SetStatePropState@DeliveryObjective@@IAEXH@Z 0045a9e0 f   deliveryobjective.obj
 0001:00059a10       ?SetStatePropHUDIconEnable@DeliveryObjective@@IAEX_N@Z 0045aa10 f   deliveryobjective.obj
 0001:00059a60       ??0DestroyBossObjective@@QAE@XZ 0045aa60 f   destroybossobjective.obj
 0001:00059a70       ??_EDestroyBossObjective@@UAEPAXI@Z 0045aa70 f i destroybossobjective.obj
 0001:00059a70       ??_GDestroyBossObjective@@UAEPAXI@Z 0045aa70 f i destroybossobjective.obj
 0001:00059a90       ??1DestroyBossObjective@@UAE@XZ 0045aa90 f   destroybossobjective.obj
 0001:00059aa0       ?SetTarget@DestroyBossObjective@@QAEXPAVActor@@@Z 0045aaa0 f   destroybossobjective.obj
 0001:00059ab0       ?OnInitialize@DestroyBossObjective@@MAEXXZ 0045aab0 f   destroybossobjective.obj
 0001:00059ae0       ?OnFinalize@DestroyBossObjective@@MAEXXZ 0045aae0 f   destroybossobjective.obj
 0001:00059b10       ?HandleEvent@DestroyBossObjective@@UAEXW4EventEnum@@PAX@Z 0045ab10 f   destroybossobjective.obj
 0001:00059b30       ??0DestroyObjective@@QAE@XZ 0045ab30 f   destroyobjective.obj
 0001:00059b50       ??_GDestroyObjective@@UAEPAXI@Z 0045ab50 f i destroyobjective.obj
 0001:00059b50       ??_EDestroyObjective@@UAEPAXI@Z 0045ab50 f i destroyobjective.obj
 0001:00059b70       ??1DestroyObjective@@UAE@XZ 0045ab70 f   destroyobjective.obj
 0001:00059b80       ?OnInitialize@DestroyObjective@@MAEXXZ 0045ab80 f   destroyobjective.obj
 0001:00059ca0       ?OnFinalize@DestroyObjective@@MAEXXZ 0045aca0 f   destroyobjective.obj
 0001:00059d10       ?HandleEvent@DestroyObjective@@UAEXW4EventEnum@@PAX@Z 0045ad10 f   destroyobjective.obj
 0001:00059d80       ?SetTargetVehicle@DestroyObjective@@QAEXPAVVehicle@@@Z 0045ad80 f   destroyobjective.obj
 0001:00059d90       ??0DialogueObjective@@QAE@XZ 0045ad90 f   dialogueobjective.obj
 0001:00059e60       ??_EDialogueObjective@@UAEPAXI@Z 0045ae60 f i dialogueobjective.obj
 0001:00059e60       ??_GDialogueObjective@@UAEPAXI@Z 0045ae60 f i dialogueobjective.obj
 0001:00059e80       ??1DialogueObjective@@UAE@XZ 0045ae80 f   dialogueobjective.obj
 0001:00059f40       ?HandleEvent@DialogueObjective@@UAEXW4EventEnum@@PAX@Z 0045af40 f   dialogueobjective.obj
 0001:00059f50       ?SetPositions@DialogueObjective@@QAEXPAVCarStartLocator@@00_N@Z 0045af50 f   dialogueobjective.obj
 0001:00059fe0       ?CharactersReset@DialogueObjective@@QAE_NXZ 0045afe0 f   dialogueobjective.obj
 0001:00059ff0       ?SetChar1Name@DialogueObjective@@QAEXPBD@Z 0045aff0 f   dialogueobjective.obj
 0001:0005a040       ?SetChar2Name@DialogueObjective@@QAEXPBD@Z 0045b040 f   dialogueobjective.obj
 0001:0005a090       ?SetDialogueName@DialogueObjective@@QAEXPBD@Z 0045b090 f   dialogueobjective.obj
 0001:0005a0c0       ?OnInitialize@DialogueObjective@@MAEXXZ 0045b0c0 f   dialogueobjective.obj
 0001:0005a500       ?OnFinalize@DialogueObjective@@MAEXXZ 0045b500 f   dialogueobjective.obj
 0001:0005a580       ?ResetCharacterPositions@DialogueObjective@@AAEXXZ 0045b580 f   dialogueobjective.obj
 0001:0005a6c0       ??0FMVObjective@@QAE@XZ    0045b6c0 f   fmvobjective.obj
 0001:0005a700       ??_GFMVObjective@@UAEPAXI@Z 0045b700 f i fmvobjective.obj
 0001:0005a700       ??_EFMVObjective@@UAEPAXI@Z 0045b700 f i fmvobjective.obj
 0001:0005a720       ??1FMVObjective@@UAE@XZ    0045b720 f   fmvobjective.obj
 0001:0005a740       ?OnPresentationEventEnd@FMVObjective@@MAEXPAVPresentationEvent@@@Z 0045b740 f   fmvobjective.obj
 0001:0005a780       ?OnInitialize@FMVObjective@@MAEXXZ 0045b780 f   fmvobjective.obj
 0001:0005a7f0       ?SetFileName@FMVObjective@@QAEXPBD@Z 0045b7f0 f   fmvobjective.obj
 0001:0005a810       ??0FollowObjective@@QAE@XZ 0045b810 f   followobjective.obj
 0001:0005a830       ??_GFollowObjective@@UAEPAXI@Z 0045b830 f i followobjective.obj
 0001:0005a830       ??_EFollowObjective@@UAEPAXI@Z 0045b830 f i followobjective.obj
 0001:0005a850       ??1FollowObjective@@UAE@XZ 0045b850 f   followobjective.obj
 0001:0005a860       ?OnInitialize@FollowObjective@@MAEXXZ 0045b860 f   followobjective.obj
 0001:0005a960       ?OnFinalize@FollowObjective@@MAEXXZ 0045b960 f   followobjective.obj
 0001:0005a9b0       ?OnUpdate@DestroyObjective@@MAEXI@Z 0045b9b0 f   destroyobjective.obj
 0001:0005a9b0       ?OnUpdate@FollowObjective@@MAEXI@Z 0045b9b0 f   followobjective.obj
 0001:0005aa40       ?HandleEvent@FollowObjective@@UAEXW4EventEnum@@PAX@Z 0045ba40 f   followobjective.obj
 0001:0005aa60       ??0GetInObjective@@QAE@XZ  0045ba60 f   getinobjective.obj
 0001:0005aab0       ??_GGetInObjective@@UAEPAXI@Z 0045bab0 f i getinobjective.obj
 0001:0005aab0       ??_EGetInObjective@@UAEPAXI@Z 0045bab0 f i getinobjective.obj
 0001:0005aad0       ??1GetInObjective@@UAE@XZ  0045bad0 f   getinobjective.obj
 0001:0005aaf0       ?OnInitialize@GetInObjective@@MAEXXZ 0045baf0 f   getinobjective.obj
 0001:0005abc0       ?OnFinalize@GetInObjective@@MAEXXZ 0045bbc0 f   getinobjective.obj
 0001:0005abe0       ?OnUpdate@GetInObjective@@MAEXI@Z 0045bbe0 f   getinobjective.obj
 0001:0005ad00       ?SetStrict@GetInObjective@@QAEXPBD@Z 0045bd00 f   getinobjective.obj
 0001:0005ad60       ?GetPosition@GetInObjective@@UAEXPAVVector@RadicalMathLibrary@@@Z 0045bd60 f   getinobjective.obj
 0001:0005ada0       ?GetHeading@GetInObjective@@UAEXPAVVector@RadicalMathLibrary@@@Z 0045bda0 f   getinobjective.obj
 0001:0005adf0       ??0GoOutsideObjective@@QAE@XZ 0045bdf0 f   gooutsideobjective.obj
 0001:0005ae00       ??_EGoOutsideObjective@@UAEPAXI@Z 0045be00 f i gooutsideobjective.obj
 0001:0005ae00       ??_GGoOutsideObjective@@UAEPAXI@Z 0045be00 f i gooutsideobjective.obj
 0001:0005ae20       ??1GoOutsideObjective@@UAE@XZ 0045be20 f   gooutsideobjective.obj
 0001:0005ae30       ?OnInitialize@GoOutsideObjective@@MAEXXZ 0045be30 f   gooutsideobjective.obj
 0001:0005b080       ??0GoToObjective@@QAE@XZ   0045c080 f   gotoobjective.obj
 0001:0005b180       ??_GGoToObjective@@UAEPAXI@Z 0045c180 f i gotoobjective.obj
 0001:0005b180       ??_EGoToObjective@@UAEPAXI@Z 0045c180 f i gotoobjective.obj
 0001:0005b1a0       ??1GoToObjective@@UAE@XZ   0045c1a0 f   gotoobjective.obj
 0001:0005b270       ?OnInitialize@GoToObjective@@MAEXXZ 0045c270 f   gotoobjective.obj
 0001:0005b5d0       ?OnFinalize@GoToObjective@@MAEXXZ 0045c5d0 f   gotoobjective.obj
 0001:0005b740       ?OnUpdate@GoToObjective@@MAEXI@Z 0045c740 f   gotoobjective.obj
 0001:0005b7f0       ?HandleEvent@GoToObjective@@UAEXW4EventEnum@@PAX@Z 0045c7f0 f   gotoobjective.obj
 0001:0005b950       ?SetDestinationNames@GoToObjective@@QAEXPAD0M@Z 0045c950 f   gotoobjective.obj
 0001:0005b990       ?SetCollectEffectName@GoToObjective@@QAEXPAD@Z 0045c990 f   gotoobjective.obj
 0001:0005b9b0       ??0InteriorObjective@@QAE@XZ 0045c9b0 f   interiorobjective.obj
 0001:0005ba90       ??_GInteriorObjective@@UAEPAXI@Z 0045ca90 f i interiorobjective.obj
 0001:0005ba90       ??_EInteriorObjective@@UAEPAXI@Z 0045ca90 f i interiorobjective.obj
 0001:0005bab0       ??1InteriorObjective@@UAE@XZ 0045cab0 f   interiorobjective.obj
 0001:0005bb00       ?OnInitialize@InteriorObjective@@MAEXXZ 0045cb00 f   interiorobjective.obj
 0001:0005bc60       ?OnFinalize@InteriorObjective@@MAEXXZ 0045cc60 f   interiorobjective.obj
 0001:0005bcc0       ?OnUpdate@InteriorObjective@@MAEXI@Z 0045ccc0 f   interiorobjective.obj
 0001:0005bcf0       ?HandleEvent@InteriorObjective@@UAEXW4EventEnum@@PAX@Z 0045ccf0 f   interiorobjective.obj
 0001:0005bd30       ?GetPosition@InteriorObjective@@UAEXPAVVector@RadicalMathLibrary@@@Z 0045cd30 f   interiorobjective.obj
 0001:0005bd50       ?GetHeading@InteriorObjective@@UAEXPAVVector@RadicalMathLibrary@@@Z 0045cd50 f   interiorobjective.obj
 0001:0005bd70       ?SetDestination@InteriorObjective@@QAEXPBD@Z 0045cd70 f   interiorobjective.obj
 0001:0005bd90       ?SetIcon@InteriorObjective@@QAEXPBD@Z 0045cd90 f   interiorobjective.obj
 0001:0005bdd0       ??0LoadVehicleObjective@@QAE@XZ 0045cdd0 f   loadvehicleobjective.obj
 0001:0005bdf0       ??_GLoadVehicleObjective@@UAEPAXI@Z 0045cdf0 f i loadvehicleobjective.obj
 0001:0005bdf0       ??_ELoadVehicleObjective@@UAEPAXI@Z 0045cdf0 f i loadvehicleobjective.obj
 0001:0005be10       ??1LoadVehicleObjective@@UAE@XZ 0045ce10 f   loadvehicleobjective.obj
 0001:0005be30       ?OnInitialize@LoadVehicleObjective@@MAEXXZ 0045ce30 f   loadvehicleobjective.obj
 0001:0005bed0       ?OnProcessRequestsComplete@LoadDisposableCarAsyncCallback@LoadVehicleObjective@@UAEXPAX@Z 0045ced0 f   loadvehicleobjective.obj
 0001:0005bfa0       ??0LoseObjective@@QAE@XZ   0045cfa0 f   loseobjective.obj
 0001:0005bfd0       ??_GLoseObjective@@UAEPAXI@Z 0045cfd0 f i loseobjective.obj
 0001:0005bfd0       ??_ELoseObjective@@UAEPAXI@Z 0045cfd0 f i loseobjective.obj
 0001:0005bff0       ??1LoseObjective@@UAE@XZ   0045cff0 f   loseobjective.obj
 0001:0005c000       ?OnInitialize@LoseObjective@@MAEXXZ 0045d000 f   loseobjective.obj
 0001:0005c0e0       ?OnFinalize@LoseObjective@@MAEXXZ 0045d0e0 f   loseobjective.obj
 0001:0005c120       ?OnUpdate@LoseObjective@@MAEXI@Z 0045d120 f   loseobjective.obj
 0001:0005c260       ??0NPCStruct@MissionObjective@@QAE@XZ 0045d260 f i missionobjective.obj
 0001:0005c290       ??0MissionObjective@@QAE@XZ 0045d290 f   missionobjective.obj
 0001:0005c310       ??_GMissionObjective@@UAEPAXI@Z 0045d310 f i missionobjective.obj
 0001:0005c310       ??_EMissionObjective@@UAEPAXI@Z 0045d310 f i missionobjective.obj
 0001:0005c330       ??1NPCStruct@MissionObjective@@QAE@XZ 0045d330 f i missionobjective.obj
 0001:0005c350       ??1MissionObjective@@UAE@XZ 0045d350 f   missionobjective.obj
 0001:0005c3b0       ?AddNPCWaypoint@MissionObjective@@QAE_NPBD0@Z 0045d3b0 f   missionobjective.obj
 0001:0005c450       ?Initialize@MissionObjective@@QAEXXZ 0045d450 f   missionobjective.obj
 0001:0005c970       ?Finalize@MissionObjective@@QAEXXZ 0045d970 f   missionobjective.obj
 0001:0005ca00       ?Update@MissionObjective@@QAEXI@Z 0045da00 f   missionobjective.obj
 0001:0005ca10       ?AddNPC@MissionObjective@@QAEXPBD0_N@Z 0045da10 f   missionobjective.obj
 0001:0005cad0       ?RemoveNPC@MissionObjective@@QAEXPBD_N@Z 0045dad0 f   missionobjective.obj
 0001:0005cb10       ?RegisterLocator@MissionObjective@@IAEXPAVLocator@@AAH_NW4eIconType@HudMapIcon@@@Z 0045db10 f   missionobjective.obj
 0001:0005cb50       ?RegisterPosition@MissionObjective@@IAEXABVVector@RadicalMathLibrary@@AAH_NW4eIconType@HudMapIcon@@PAUIHudMapIconLocator@@@Z 0045db50 f   missionobjective.obj
 0001:0005cba0       ?UnregisterLocator@MissionObjective@@IAEXAAH@Z 0045dba0 f   missionobjective.obj
 0001:0005cbd0       ?UnregisterPosition@MissionObjective@@IAEXAAH@Z 0045dbd0 f   missionobjective.obj
 0001:0005cbe0       ?UnlightPath@MissionObjective@@IAEXAAV?$SwapArray@UPathElement@RoadManager@@@@@Z 0045dbe0 f   missionobjective.obj
 0001:0005ccb0       ?UnlightCurrentPath@MissionObjective@@IAEXAAV?$SwapArray@UPathElement@RoadManager@@@@@Z 0045dcb0 f   missionobjective.obj
 0001:0005cd80       ?LightPathRightWay@MissionObjective@@IAEXAAV?$SwapArray@UPathElement@RoadManager@@@@HH@Z 0045dd80 f   missionobjective.obj
 0001:0005cdd0       ?LightPathWrongWay@MissionObjective@@IAEXAAV?$SwapArray@UPathElement@RoadManager@@@@HH@Z 0045ddd0 f   missionobjective.obj
 0001:0005ce20       ?UpdateLightPath@MissionObjective@@IAEXAAUPathStruct@1@@Z 0045de20 f   missionobjective.obj
 0001:0005cf80       ?FindIntersectionInPath@MissionObjective@@IAEHAAV?$SwapArray@UPathElement@RoadManager@@@@PAVIntersection@@@Z 0045df80 f   missionobjective.obj
 0001:0005cfb0       ?FindRoadInPath@MissionObjective@@IAEHAAV?$SwapArray@UPathElement@RoadManager@@@@PAVRoad@@@Z 0045dfb0 f   missionobjective.obj
 0001:0005d000       ?UpdateGroundHeights@MissionObjective@@IAEXAAV?$SwapArray@UPathElement@RoadManager@@@@@Z 0045e000 f   missionobjective.obj
 0001:0005d060       ?UpdateLongRoadArrows@MissionObjective@@IAEXAAUPathStruct@1@@Z 0045e060 f   missionobjective.obj
 0001:0005d560       ?LightPath@MissionObjective@@IAEXAAVVector@RadicalMathLibrary@@AAUPathStruct@1@@Z 0045e560 f   missionobjective.obj
 0001:0005dd20       ?GetHeadingAlongPath@MissionObjective@@IAEXAAV?$SwapArray@UPathElement@RoadManager@@@@HPAVRoadSegment@@AAVVector@RadicalMathLibrary@@@Z 0045ed20 f   missionobjective.obj
 0001:0005df20       ?UpdateAnimPosition@MissionObjective@@IAEXPAVAnimEntityDSG@@AAVVector@RadicalMathLibrary@@@Z 0045ef20 f   missionobjective.obj
 0001:0005dfa0       ?IsPattyAndSelmaDialog@MissionObjective@@QBE_NXZ 0045efa0 f   missionobjective.obj
 0001:0005e020       ?IsRaceDialog@MissionObjective@@QBE_NXZ 0045f020 f   missionobjective.obj
 0001:0005e080       ?SetState@?$@VInCar@CharacterAi@@@StateManager@CharacterAi@@QAEXXZ 0045f080 f i missionobjective.obj
 0001:0005e110       ?find@?$@VZoneEventLocator@@@p3d@@YAPAVZoneEventLocator@@VtUidUnaligned@@@Z 0045f110 f i missionobjective.obj
 0001:0005e190       ?find@?$@VZoneEventLocator@@@p3d@@YAPAVZoneEventLocator@@PAVtEntityStore@@ABVtName@@@Z 0045f190 f i missionobjective.obj
 0001:0005e250       ?safe_cast@?$SafeCast@VZoneEventLocator@@@radLoadInventory@@UAEPAUIRefCount@@PAU3@@Z 0045f250 f i missionobjective.obj
 0001:0005e270       ??0PickupItemObjective@@QAE@XZ 0045f270 f   pickupitemobjective.obj
 0001:0005e2a0       ??_GPickupItemObjective@@UAEPAXI@Z 0045f2a0 f i pickupitemobjective.obj
 0001:0005e2a0       ??_EPickupItemObjective@@UAEPAXI@Z 0045f2a0 f i pickupitemobjective.obj
 0001:0005e2c0       ??1PickupItemObjective@@UAE@XZ 0045f2c0 f   pickupitemobjective.obj
 0001:0005e330       ?SetTarget@PickupItemObjective@@QAEXPBD@Z 0045f330 f   pickupitemobjective.obj
 0001:0005e370       ?OnInitialize@PickupItemObjective@@MAEXXZ 0045f370 f   pickupitemobjective.obj
 0001:0005e3d0       ?OnFinalize@PickupItemObjective@@MAEXXZ 0045f3d0 f   pickupitemobjective.obj
 0001:0005e3d0       ?OnFinalize@VehicleCarryingStateProp@@MAEXXZ 0045f3d0 f   vehiclecarryingstateprop.obj
 0001:0005e3f0       ?OnUpdate@PickupItemObjective@@MAEXI@Z 0045f3f0 f   pickupitemobjective.obj
 0001:0005e420       ?HandleEvent@PickupItemObjective@@MAEXW4EventEnum@@PAX@Z 0045f420 f   pickupitemobjective.obj
 0001:0005e450       ?MoveObjectToStartPosition@PickupItemObjective@@IAEXXZ 0045f450 f   pickupitemobjective.obj
 0001:0005e4e0       ?find@?$@VStatePropCollectible@@@p3d@@YAPAVStatePropCollectible@@VtUidUnaligned@@@Z 0045f4e0 f i pickupitemobjective.obj
 0001:0005e560       ?find@?$@VStatePropCollectible@@@p3d@@YAPAVStatePropCollectible@@PAVtEntityStore@@ABVtName@@@Z 0045f560 f i pickupitemobjective.obj
 0001:0005e620       ?safe_cast@?$SafeCast@VStatePropCollectible@@@radLoadInventory@@UAEPAUIRefCount@@PAU3@@Z 0045f620 f i pickupitemobjective.obj
 0001:0005e640       ??0RaceObjective@@QAE@XZ   0045f640 f   raceobjective.obj
 0001:0005e6d0       ??_GRaceObjective@@UAEPAXI@Z 0045f6d0 f i raceobjective.obj
 0001:0005e6d0       ??_ERaceObjective@@UAEPAXI@Z 0045f6d0 f i raceobjective.obj
 0001:0005e6f0       ??1RaceObjective@@UAE@XZ   0045f6f0 f   raceobjective.obj
 0001:0005e700       ?OnInitialize@RaceObjective@@MAEXXZ 0045f700 f   raceobjective.obj
 0001:0005e880       ?OnInitCollectibles@RaceObjective@@MAEXXZ 0045f880 f   raceobjective.obj
 0001:0005e930       ?OnInitCollectibleObjective@RaceObjective@@MAEXXZ 0045f930 f   raceobjective.obj
 0001:0005ec40       ?OnFinalizeCollectibleObjective@RaceObjective@@MAEXXZ 0045fc40 f   raceobjective.obj
 0001:0005ed20       ?OnCollection@RaceObjective@@MAE_NIAA_N@Z 0045fd20 f   raceobjective.obj
 0001:0005ee90       ?OnUpdateCollectibleObjective@RaceObjective@@MAEXI@Z 0045fe90 f   raceobjective.obj
 0001:0005efe0       ?QueryIsGambleRace@RaceObjective@@QAE_NXZ 0045ffe0 f   raceobjective.obj
 0001:0005eff0       ?SetGambleRace@RaceObjective@@QAEX_N@Z 0045fff0 f   raceobjective.obj
 0001:0005f000       ?SetParTime@RaceObjective@@QAEXH@Z 00460000 f   raceobjective.obj
 0001:0005f020       ?GetParTime@RaceObjective@@QAEHXZ 00460020 f   raceobjective.obj
 0001:0005f030       ?CalculatePosition@RaceObjective@@AAEXXZ 00460030 f   raceobjective.obj
 0001:0005f580       ??0TalkToObjective@@QAE@XZ 00460580 f   talktoobjective.obj
 0001:0005f690       ??_GTalkToObjective@@UAEPAXI@Z 00460690 f i talktoobjective.obj
 0001:0005f690       ??_ETalkToObjective@@UAEPAXI@Z 00460690 f i talktoobjective.obj
 0001:0005f6b0       ??1TalkToObjective@@UAE@XZ 004606b0 f   talktoobjective.obj
 0001:0005f700       ?SetTalkToTarget@TalkToObjective@@QAEXPBDW4IconType@1@MM@Z 00460700 f   talktoobjective.obj
 0001:0005f770       ?GetPosition@TalkToObjective@@UAEXPAVVector@RadicalMathLibrary@@@Z 00460770 f   talktoobjective.obj
 0001:0005f7c0       ?GetHeading@TalkToObjective@@UAEXPAVVector@RadicalMathLibrary@@@Z 004607c0 f   talktoobjective.obj
 0001:0005f7e0       ?OnInitialize@TalkToObjective@@MAEXXZ 004607e0 f   talktoobjective.obj
 0001:0005faa0       ?OnFinalize@TalkToObjective@@MAEXXZ 00460aa0 f   talktoobjective.obj
 0001:0005fb90       ?HandleEvent@TalkToObjective@@UAEXW4EventEnum@@PAX@Z 00460b90 f   talktoobjective.obj
 0001:0005fbf0       ?OnUpdate@TalkToObjective@@MAEXI@Z 00460bf0 f   talktoobjective.obj
 0001:0005fd30       ??0TimerObjective@@QAE@XZ  00460d30 f   timerobjective.obj
 0001:0005fd50       ??_GTimerObjective@@UAEPAXI@Z 00460d50 f i timerobjective.obj
 0001:0005fd50       ??_ETimerObjective@@UAEPAXI@Z 00460d50 f i timerobjective.obj
 0001:0005fd70       ??1TimerObjective@@UAE@XZ  00460d70 f   timerobjective.obj
 0001:0005fd80       ?SetTimer@TimerObjective@@QAEXI@Z 00460d80 f   timerobjective.obj
 0001:0005fd90       ?OnUpdate@TimerObjective@@MAEXI@Z 00460d90 f   timerobjective.obj
 0001:0005fdc0       ??0DamageCondition@@QAE@XZ 00460dc0 f   damagecondition.obj
 0001:0005fdf0       ??_EDamageCondition@@UAEPAXI@Z 00460df0 f i damagecondition.obj
 0001:0005fdf0       ??_GDamageCondition@@UAEPAXI@Z 00460df0 f i damagecondition.obj
 0001:0005fe10       ??1DamageCondition@@UAE@XZ 00460e10 f   damagecondition.obj
 0001:0005fe20       ?OnInitialize@DamageCondition@@MAEXXZ 00460e20 f   damagecondition.obj
 0001:0005feb0       ?HandleEvent@DamageCondition@@UAEXW4EventEnum@@PAX@Z 00460eb0 f   damagecondition.obj
 0001:00060010       ??0FollowCondition@@QAE@XZ 00461010 f   followcondition.obj
 0001:00060030       ??_GFollowCondition@@UAEPAXI@Z 00461030 f i followcondition.obj
 0001:00060030       ??_EFollowCondition@@UAEPAXI@Z 00461030 f i followcondition.obj
 0001:00060050       ??1FollowCondition@@UAE@XZ 00461050 f   followcondition.obj
 0001:00060060       ?Update@FollowCondition@@UAEXI@Z 00461060 f   followcondition.obj
 0001:00060100       ?OnInitialize@FollowCondition@@MAEXXZ 00461100 f   followcondition.obj
 0001:00060140       ?CalculateDistanceToTarget@FollowCondition@@AAEMXZ 00461140 f   followcondition.obj
 0001:000601b0       ??0GetOutOfCarCondition@@QAE@XZ 004611b0 f   getoutofcarcondition.obj
 0001:000601e0       ??_EGetOutOfCarCondition@@UAEPAXI@Z 004611e0 f i getoutofcarcondition.obj
 0001:000601e0       ??_GGetOutOfCarCondition@@UAEPAXI@Z 004611e0 f i getoutofcarcondition.obj
 0001:00060200       ??1GetOutOfCarCondition@@UAE@XZ 00461200 f   getoutofcarcondition.obj
 0001:00060210       ?Update@GetOutOfCarCondition@@UAEXI@Z 00461210 f   getoutofcarcondition.obj
 0001:00060280       ?HandleEvent@GetOutOfCarCondition@@UAEXW4EventEnum@@PAX@Z 00461280 f   getoutofcarcondition.obj
 0001:000603e0       ?IsClose@GetOutOfCarCondition@@UAE_NXZ 004613e0 f   getoutofcarcondition.obj
 0001:00060400       ?OnInitialize@GetOutOfCarCondition@@MAEXXZ 00461400 f   getoutofcarcondition.obj
 0001:00060430       ?OnFinalize@GetOutOfCarCondition@@MAEXXZ 00461430 f   getoutofcarcondition.obj
 0001:00060490       ?SetConditionActive@GetOutOfCarCondition@@QAEXXZ 00461490 f   getoutofcarcondition.obj
 0001:000604e0       ??0KeepBarrelCondition@@QAE@XZ 004614e0 f   keepbarrelcondition.obj
 0001:00060500       ??_GKeepBarrelCondition@@UAEPAXI@Z 00461500 f i keepbarrelcondition.obj
 0001:00060500       ??_EKeepBarrelCondition@@UAEPAXI@Z 00461500 f i keepbarrelcondition.obj
 0001:00060520       ??1KeepBarrelCondition@@UAE@XZ 00461520 f   keepbarrelcondition.obj
 0001:00060530       ?HandleEvent@KeepBarrelCondition@@UAEXW4EventEnum@@PAX@Z 00461530 f   keepbarrelcondition.obj
 0001:00060570       ?OnInitialize@KeepBarrelCondition@@MAEXXZ 00461570 f   keepbarrelcondition.obj
 0001:00060590       ?OnFinalize@KeepBarrelCondition@@MAEXXZ 00461590 f   keepbarrelcondition.obj
 0001:000605b0       ??0LeaveInteriorCondition@@QAE@XZ 004615b0 f   leaveinteriorcondition.obj
 0001:000605d0       ??_ELeaveInteriorCondition@@UAEPAXI@Z 004615d0 f i leaveinteriorcondition.obj
 0001:000605d0       ??_GLeaveInteriorCondition@@UAEPAXI@Z 004615d0 f i leaveinteriorcondition.obj
 0001:000605f0       ??1LeaveInteriorCondition@@UAE@XZ 004615f0 f   leaveinteriorcondition.obj
 0001:00060600       ?HandleEvent@LeaveInteriorCondition@@UAEXW4EventEnum@@PAX@Z 00461600 f   leaveinteriorcondition.obj
 0001:00060610       ?OnInitialize@LeaveInteriorCondition@@MAEXXZ 00461610 f   leaveinteriorcondition.obj
 0001:00060630       ?OnFinalize@LeaveInteriorCondition@@MAEXXZ 00461630 f   leaveinteriorcondition.obj
 0001:00060650       ??0MissionCondition@@QAE@XZ 00461650 f   missioncondition.obj
 0001:00060670       ??_GMissionCondition@@UAEPAXI@Z 00461670 f i missioncondition.obj
 0001:00060670       ??_EMissionCondition@@UAEPAXI@Z 00461670 f i missioncondition.obj
 0001:00060690       ??1MissionCondition@@UAE@XZ 00461690 f   missioncondition.obj
 0001:000606a0       ?Initialize@MissionCondition@@QAEXXZ 004616a0 f   missioncondition.obj
 0001:000606c0       ?Finalize@MissionCondition@@QAEXXZ 004616c0 f   missioncondition.obj
 0001:000606d0       ??0NotAbductedCondition@@QAE@XZ 004616d0 f   notabductedcondition.obj
 0001:000606e0       ??_ENotAbductedCondition@@UAEPAXI@Z 004616e0 f i notabductedcondition.obj
 0001:000606e0       ??_GNotAbductedCondition@@UAEPAXI@Z 004616e0 f i notabductedcondition.obj
 0001:00060700       ??1NotAbductedCondition@@UAE@XZ 00461700 f   notabductedcondition.obj
 0001:00060710       ?HandleEvent@NotAbductedCondition@@MAEXW4EventEnum@@PAX@Z 00461710 f   notabductedcondition.obj
 0001:00060740       ?OnInitialize@NotAbductedCondition@@MAEXXZ 00461740 f   notabductedcondition.obj
 0001:00060760       ??0OutOfBoundsCondition@@QAE@XZ 00461760 f   outofboundscondition.obj
 0001:00060780       ??_EOutOfBoundsCondition@@UAEPAXI@Z 00461780 f i outofboundscondition.obj
 0001:00060780       ??_GOutOfBoundsCondition@@UAEPAXI@Z 00461780 f i outofboundscondition.obj
 0001:000607a0       ??1OutOfBoundsCondition@@UAE@XZ 004617a0 f   outofboundscondition.obj
 0001:000607b0       ?OnInitialize@OutOfBoundsCondition@@MAEXXZ 004617b0 f   outofboundscondition.obj
 0001:000607d0       ?OnFinalize@OutOfBoundsCondition@@MAEXXZ 004617d0 f   outofboundscondition.obj
 0001:000607f0       ?HandleEvent@OutOfBoundsCondition@@UAEXW4EventEnum@@PAX@Z 004617f0 f   outofboundscondition.obj
 0001:00060810       ??0PositionCondition@@QAE@XZ 00461810 f   positioncondition.obj
 0001:00060840       ??_EPositionCondition@@UAEPAXI@Z 00461840 f i positioncondition.obj
 0001:00060840       ??_GPositionCondition@@UAEPAXI@Z 00461840 f i positioncondition.obj
 0001:00060860       ??1PositionCondition@@UAE@XZ 00461860 f   positioncondition.obj
 0001:00060870       ?HandleEvent@PositionCondition@@UAEXW4EventEnum@@PAX@Z 00461870 f   positioncondition.obj
 0001:00060890       ?OnInitialize@PositionCondition@@EAEXXZ 00461890 f   positioncondition.obj
 0001:000608b0       ?OnFinalize@PositionCondition@@EAEXXZ 004618b0 f   positioncondition.obj
 0001:000608d0       ??0RaceCondition@@QAE@XZ   004618d0 f   racecondition.obj
 0001:000608f0       ??_ERaceCondition@@UAEPAXI@Z 004618f0 f i racecondition.obj
 0001:000608f0       ??_GRaceCondition@@UAEPAXI@Z 004618f0 f i racecondition.obj
 0001:00060910       ??1RaceCondition@@UAE@XZ   00461910 f   racecondition.obj
 0001:00060920       ?OnInitialize@RaceCondition@@MAEXXZ 00461920 f   racecondition.obj
 0001:00060960       ?OnFinalize@RaceCondition@@MAEXXZ 00461960 f   racecondition.obj
 0001:000609b0       ?HandleEvent@RaceCondition@@UAEXW4EventEnum@@PAX@Z 004619b0 f   racecondition.obj
 0001:000609f0       ?IsClose@RaceCondition@@UAE_NXZ 004619f0 f   racecondition.obj
 0001:00060a00       ??0TimeOutCondition@@QAE@XZ 00461a00 f   timeoutcondition.obj
 0001:00060a20       ??_GTimeOutCondition@@UAEPAXI@Z 00461a20 f i timeoutcondition.obj
 0001:00060a20       ??_ETimeOutCondition@@UAEPAXI@Z 00461a20 f i timeoutcondition.obj
 0001:00060a40       ??1TimeOutCondition@@UAE@XZ 00461a40 f   timeoutcondition.obj
 0001:00060a50       ?Update@TimeOutCondition@@UAEXI@Z 00461a50 f   timeoutcondition.obj
 0001:00060ac0       ?IsClose@TimeOutCondition@@UAE_NXZ 00461ac0 f   timeoutcondition.obj
 0001:00060ae0       ?SetViolated@TimeOutCondition@@QAEX_N@Z 00461ae0 f   timeoutcondition.obj
 0001:00060af0       ??0VehicleCarryingStateProp@@QAE@XZ 00461af0 f   vehiclecarryingstateprop.obj
 0001:00060b10       ??_GVehicleCarryingStateProp@@UAEPAXI@Z 00461b10 f i vehiclecarryingstateprop.obj
 0001:00060b10       ??_EVehicleCarryingStateProp@@UAEPAXI@Z 00461b10 f i vehiclecarryingstateprop.obj
 0001:00060b30       ??1VehicleCarryingStateProp@@UAE@XZ 00461b30 f   vehiclecarryingstateprop.obj
 0001:00060b40       ?HandleEvent@VehicleCarryingStateProp@@UAEXW4EventEnum@@PAX@Z 00461b40 f   vehiclecarryingstateprop.obj
 0001:00060ba0       ?OnInitialize@VehicleCarryingStateProp@@MAEXXZ 00461ba0 f   vehiclecarryingstateprop.obj
 0001:00060bc0       ??0VehicleCondition@@QAE@XZ 00461bc0 f   vehiclecondition.obj
 0001:00060be0       ??_EVehicleCondition@@UAEPAXI@Z 00461be0 f i vehiclecondition.obj
 0001:00060be0       ??_GVehicleCondition@@UAEPAXI@Z 00461be0 f i vehiclecondition.obj
 0001:00060c00       ??1VehicleCondition@@UAE@XZ 00461c00 f   vehiclecondition.obj
 0001:00060c10       ??_ESafeZone@@UAEPAXI@Z    00461c10 f i safezone.obj
 0001:00060c10       ??_GSafeZone@@UAEPAXI@Z    00461c10 f i safezone.obj
 0001:00060c30       ??1SafeZone@@UAE@XZ        00461c30 f   safezone.obj
 0001:00060c40       ??0SafeZone@@QAE@PAVCarStartLocator@@I@Z 00461c40 f   safezone.obj
 0001:00060c50       ?InsideZone@SafeZone@@QAE_NVVector@RadicalMathLibrary@@@Z 00461c50 f   safezone.obj
 0001:00060cc0       ??0Merchandise@@QAE@XZ     00461cc0 f   merchandise.obj
 0001:00060ce0       ??_EMerchandise@@UAEPAXI@Z 00461ce0 f i merchandise.obj
 0001:00060ce0       ??_GMerchandise@@UAEPAXI@Z 00461ce0 f i merchandise.obj
 0001:00060d00       ??1Merchandise@@UAE@XZ     00461d00 f   merchandise.obj
 0001:00060d10       ??0Reward@@QAE@XZ          00461d10 f   reward.obj
 0001:00060d70       ??_EReward@@UAEPAXI@Z      00461d70 f i reward.obj
 0001:00060d70       ??_GReward@@UAEPAXI@Z      00461d70 f i reward.obj
 0001:00060d90       ??1Reward@@UAE@XZ          00461d90 f   reward.obj
 0001:00060da0       ?SetName@Reward@@QAEXPAD@Z 00461da0 f   reward.obj
 0001:00060dd0       ?SetRewardType@Reward@@QAEXW4eRewardType@1@@Z 00461dd0 f   reward.obj
 0001:00060de0       ?SetQuestType@Reward@@QAEXW4eQuestType@1@@Z 00461de0 f   reward.obj
 0001:00060df0       ?SetFilename@Reward@@QAEXPAD@Z 00461df0 f   reward.obj
 0001:00060e10       ?UnlockReward@Reward@@QAEXXZ 00461e10 f   reward.obj
 0001:00060e50       ?CreateInstance@RewardsManager@@SAPAV1@XZ 00461e50 f   rewardsmanager.obj
 0001:00060ec0       ?GetInstance@RewardsManager@@SAPAV1@XZ 00461ec0 f   rewardsmanager.obj
 0001:00060ed0       ?DestroyInstance@RewardsManager@@SAXXZ 00461ed0 f   rewardsmanager.obj
 0001:00060ef0       ?InitRewards@RewardsManager@@QAEXXZ 00461ef0 f   rewardsmanager.obj
 0001:00060fe0       ?ClearRewards@RewardsManager@@QAEXXZ 00461fe0 f   rewardsmanager.obj
 0001:00061060       ?OnProcessRequestsComplete@RewardsManager@@UAEXPAX@Z 00462060 f   rewardsmanager.obj
 0001:00061070       ?LoadScript@RewardsManager@@QAEXXZ 00462070 f   rewardsmanager.obj
 0001:00061090       ?BindReward@RewardsManager@@QAEHPAD0W4eRewardType@Reward@@W4eQuestType@3@H@Z 00462090 f   rewardsmanager.obj
 0001:00061180       ?GetReward@RewardsManager@@QAEPAVReward@@HW4eQuestType@2@@Z 00462180 f   rewardsmanager.obj
 0001:00061200       ?SetCarAttributes@RewardsManager@@QAEHPADMMMM@Z 00462200 f   rewardsmanager.obj
 0001:000612a0       ?InitCarAttributeRecords@RewardsManager@@QAEXXZ 004622a0 f   rewardsmanager.obj
 0001:000612e0       ?GetCarAttributeRecord@RewardsManager@@QAEPAUCarAttributeRecord@@PAD@Z 004622e0 f   rewardsmanager.obj
 0001:00061350       ?ComputeOverallCarRating@RewardsManager@@SAMPAUCarAttributeRecord@@@Z 00462350 f   rewardsmanager.obj
 0001:00061370       ?InitTokenStore@RewardsManager@@QAEXXZ 00462370 f   rewardsmanager.obj
 0001:00061410       ?AddMerchandise@RewardsManager@@QAEHPAD0W4eRewardType@Reward@@HHW4eSellerType@Merchandise@@@Z 00462410 f   rewardsmanager.obj
 0001:000614d0       ?GetMerchandise@RewardsManager@@QAEPAVMerchandise@@HPBD@Z 004624d0 f   rewardsmanager.obj
 0001:00061560       ?GetMerchandise@RewardsManager@@QAEPAVMerchandise@@HH@Z 00462560 f   rewardsmanager.obj
 0001:00061590       ?GetMerchandiseIndex@RewardsManager@@QAEHHPBD@Z 00462590 f   rewardsmanager.obj
 0001:00061610       ?FindFirstMerchandise@RewardsManager@@QAEPAVMerchandise@@HW4eSellerType@2@@Z 00462610 f   rewardsmanager.obj
 0001:00061630       ?FindNextMerchandise@RewardsManager@@QAEPAVMerchandise@@HW4eSellerType@2@@Z 00462630 f   rewardsmanager.obj
 0001:00061680       ?BuyMerchandise@RewardsManager@@QAE_NHPBD@Z 00462680 f   rewardsmanager.obj
 0001:000616f0       ??0RewardsManager@@AAE@XZ  004626f0 f   rewardsmanager.obj
 0001:00061720       ??_ERewardsManager@@EAEPAXI@Z 00462720 f i rewardsmanager.obj
 0001:00061720       ??_GRewardsManager@@EAEPAXI@Z 00462720 f i rewardsmanager.obj
 0001:00061740       ??1RewardsManager@@EAE@XZ  00462740 f   rewardsmanager.obj
 0001:000617f0       ?LevelCheck@RewardsManager@@AAE_NH@Z 004627f0 f   rewardsmanager.obj
 0001:00061810       ?IncUpdateQue@RewardsManager@@QAEXXZ 00462810 f   rewardsmanager.obj
 0001:00061820       ?SynchWithCharacterSheet@RewardsManager@@QAEHXZ 00462820 f   rewardsmanager.obj
 0001:00061840       ?SetTotalGags@RewardsManager@@QAEXHH@Z 00462840 f   rewardsmanager.obj
 0001:00061850       ?GetTotalGags@RewardsManager@@QBEHH@Z 00462850 f   rewardsmanager.obj
 0001:00061860       ?SetTotalWasps@RewardsManager@@QAEXHH@Z 00462860 f   rewardsmanager.obj
 0001:00061870       ?GetTotalWasps@RewardsManager@@QBEHH@Z 00462870 f   rewardsmanager.obj
 0001:00061880       ?ResetData@CharacterSheetManager@@UAEXXZ 00462880 f i charactersheetmanager.obj
 0001:00061890       ?CreateInstance@CharacterSheetManager@@SAPAV1@XZ 00462890 f   charactersheetmanager.obj
 0001:000618f0       ?GetInstance@CharacterSheetManager@@SAPAV1@XZ 004628f0 f   charactersheetmanager.obj
 0001:00061900       ?DestroyInstance@CharacterSheetManager@@SAXXZ 00462900 f   charactersheetmanager.obj
 0001:00061920       ?SetMissionComplete@CharacterSheetManager@@QAEXW4LevelEnum@RenderEnums@@PAD_NH@Z 00462920 f   charactersheetmanager.obj
 0001:00061a20       ?IncrementMissionAttempt@CharacterSheetManager@@QAEXW4LevelEnum@RenderEnums@@PAD@Z 00462a20 f   charactersheetmanager.obj
 0001:00061a40       ?SetMissionSkipped@CharacterSheetManager@@QAEXW4LevelEnum@RenderEnums@@W4MissionEnum@3@@Z 00462a40 f   charactersheetmanager.obj
 0001:00061a60       ?QueryNumberOfAttempts@CharacterSheetManager@@QAEHW4LevelEnum@RenderEnums@@H@Z 00462a60 f   charactersheetmanager.obj
 0001:00061a90       ?QueryMissionStatus@CharacterSheetManager@@QAEPAUMissionRecord@@W4LevelEnum@RenderEnums@@H@Z 00462a90 f   charactersheetmanager.obj
 0001:00061aa0       ?QueryStreetRaceStatus@CharacterSheetManager@@QAEPAUMissionRecord@@W4LevelEnum@RenderEnums@@PAD@Z 00462aa0 f   charactersheetmanager.obj
 0001:00061ab0       ?QueryBonusMissionStatus@CharacterSheetManager@@QAEPAUMissionRecord@@W4LevelEnum@RenderEnums@@PAD@Z 00462ab0 f   charactersheetmanager.obj
 0001:00061ac0       ?QueryAllCardsCollected@CharacterSheetManager@@QAE_NW4LevelEnum@RenderEnums@@@Z 00462ac0 f   charactersheetmanager.obj
 0001:00061af0       ?QueryBonusMissionCompleted@CharacterSheetManager@@QAE_NW4LevelEnum@RenderEnums@@@Z 00462af0 f   charactersheetmanager.obj
 0001:00061b20       ?QueryAllStreetRacesCompleted@CharacterSheetManager@@QAE_NW4LevelEnum@RenderEnums@@@Z 00462b20 f   charactersheetmanager.obj
 0001:00061b50       ?InitCharacterSheet@CharacterSheetManager@@QAEXXZ 00462b50 f   charactersheetmanager.obj
 0001:00061d70       ?AddMission@CharacterSheetManager@@QAEHW4LevelEnum@RenderEnums@@PAD@Z 00462d70 f   charactersheetmanager.obj
 0001:00061e10       ?AddStreetRace@CharacterSheetManager@@QAEHW4LevelEnum@RenderEnums@@PAD@Z 00462e10 f   charactersheetmanager.obj
 0001:00061ec0       ?AddBonusMission@CharacterSheetManager@@QAEHW4LevelEnum@RenderEnums@@PAD@Z 00462ec0 f   charactersheetmanager.obj
 0001:00061f30       ?AddCard@CharacterSheetManager@@QAEHW4LevelEnum@RenderEnums@@H@Z 00462f30 f   charactersheetmanager.obj
 0001:00061f90       ?LoadData@CharacterSheetManager@@UAEXPBEI@Z 00462f90 f   charactersheetmanager.obj
 0001:00061fc0       ?SaveData@CharacterSheetManager@@UAEXPAEI@Z 00462fc0 f   charactersheetmanager.obj
 0001:00062120       ?SetCurrentMission@CharacterSheetManager@@QAEXW4LevelEnum@RenderEnums@@W4MissionEnum@3@@Z 00463120 f   charactersheetmanager.obj
 0001:00062190       ?GetNumberOfTokens@CharacterSheetManager@@QAEHW4LevelEnum@RenderEnums@@@Z 00463190 f   charactersheetmanager.obj
 0001:000621a0       ?AddTokens@CharacterSheetManager@@QAEXW4LevelEnum@RenderEnums@@H@Z 004631a0 f   charactersheetmanager.obj
 0001:000621c0       ?SubtractTokens@CharacterSheetManager@@QAEXW4LevelEnum@RenderEnums@@H@Z 004631c0 f   charactersheetmanager.obj
 0001:000621e0       ?QueryCurrentMission@CharacterSheetManager@@QAE?AUCurrentMissionStruct@@XZ 004631e0 f   charactersheetmanager.obj
 0001:00062200       ?QueryHighestMission@CharacterSheetManager@@QAE?AUCurrentMissionStruct@@XZ 00463200 f   charactersheetmanager.obj
 0001:00062220       ?QueryNavSystemSetting@CharacterSheetManager@@QAE_NXZ 00463220 f   charactersheetmanager.obj
 0001:00062230       ?SetNavSystemOn@CharacterSheetManager@@QAEX_N@Z 00463230 f   charactersheetmanager.obj
 0001:00062240       ?SetPurchasedRewards@CharacterSheetManager@@QAEXW4LevelEnum@RenderEnums@@H@Z 00463240 f   charactersheetmanager.obj
 0001:00062290       ?AddCarToInventory@CharacterSheetManager@@QAEHPBD@Z 00463290 f   charactersheetmanager.obj
 0001:00062350       ?GetCarIndex@CharacterSheetManager@@QAEHPBD@Z 00463350 f   charactersheetmanager.obj
 0001:000623c0       ?GetCarDamageState@CharacterSheetManager@@QAE?AW4CarDamageStateEnum@@H@Z 004633c0 f   charactersheetmanager.obj
 0001:00062410       ?GetCarHealth@CharacterSheetManager@@QAEMH@Z 00463410 f   charactersheetmanager.obj
 0001:00062430       ?UpdateCarHealth@CharacterSheetManager@@QAEXHM@Z 00463430 f   charactersheetmanager.obj
 0001:00062450       ??0CharacterSheetManager@@AAE@XZ 00463450 f   charactersheetmanager.obj
 0001:00062470       ??_GCharacterSheetManager@@EAEPAXI@Z 00463470 f i charactersheetmanager.obj
 0001:00062470       ??_ECharacterSheetManager@@EAEPAXI@Z 00463470 f i charactersheetmanager.obj
 0001:00062490       ??1CharacterSheetManager@@EAE@XZ 00463490 f   charactersheetmanager.obj
 0001:000624a0       ?GetMissionRecord@CharacterSheetManager@@AAEPAUMissionRecord@@W4LevelEnum@RenderEnums@@PAD@Z 004634a0 f   charactersheetmanager.obj
 0001:00062520       ?GetMissionRecord@CharacterSheetManager@@AAEPAUMissionRecord@@W4LevelEnum@RenderEnums@@H@Z 00463520 f   charactersheetmanager.obj
 0001:00062550       ?GetStreetRaceRecord@CharacterSheetManager@@AAEPAUMissionRecord@@W4LevelEnum@RenderEnums@@PAD@Z 00463550 f   charactersheetmanager.obj
 0001:000625d0       ?GetBonusMissionRecord@CharacterSheetManager@@AAEPAUMissionRecord@@W4LevelEnum@RenderEnums@@PAD@Z 004635d0 f   charactersheetmanager.obj
 0001:00062640       ?GetCollectableRecord@CharacterSheetManager@@AAEPAURecord@@W4LevelEnum@RenderEnums@@W4eCollectableType@1@H@Z 00463640 f   charactersheetmanager.obj
 0001:00062670       ?QueryFMVUnlocked@CharacterSheetManager@@QAE_NW4LevelEnum@RenderEnums@@@Z 00463670 f   charactersheetmanager.obj
 0001:000626a0       ?SetFMVUnlocked@CharacterSheetManager@@QAEXW4LevelEnum@RenderEnums@@@Z 004636a0 f   charactersheetmanager.obj
 0001:000626c0       ?QueryNumMissionsCompleted@CharacterSheetManager@@QAEHW4LevelEnum@RenderEnums@@@Z 004636c0 f   charactersheetmanager.obj
 0001:00062710       ?QueryNumWaspsDestroyed@CharacterSheetManager@@QAEHW4LevelEnum@RenderEnums@@@Z 00463710 f   charactersheetmanager.obj
 0001:00062720       ?QueryNumGagsViewed@CharacterSheetManager@@QAEHW4LevelEnum@RenderEnums@@@Z 00463720 f   charactersheetmanager.obj
 0001:00062730       ?QueryGagViewed@CharacterSheetManager@@QAE_NW4LevelEnum@RenderEnums@@I@Z 00463730 f   charactersheetmanager.obj
 0001:00062760       ?IncNumWaspsDestroyed@CharacterSheetManager@@QAEXW4LevelEnum@RenderEnums@@@Z 00463760 f   charactersheetmanager.obj
 0001:00062770       ?AddGagViewed@CharacterSheetManager@@QAEXW4LevelEnum@RenderEnums@@I@Z 00463770 f   charactersheetmanager.obj
 0001:000627b0       ?QueryNumCarUnlocked@CharacterSheetManager@@QAEHW4LevelEnum@RenderEnums@@@Z 004637b0 f   charactersheetmanager.obj
 0001:00062800       ?QueryNumSkinsUnlocked@CharacterSheetManager@@QAEHW4LevelEnum@RenderEnums@@@Z 00463800 f   charactersheetmanager.obj
 0001:00062820       ?QueryNumBonusMissionsCompleted@CharacterSheetManager@@QAEHW4LevelEnum@RenderEnums@@@Z 00463820 f   charactersheetmanager.obj
 0001:00062850       ?QueryNumStreetRacesCompleted@CharacterSheetManager@@QAEHW4LevelEnum@RenderEnums@@@Z 00463850 f   charactersheetmanager.obj
 0001:00062890       ?QueryNumCardsCollected@CharacterSheetManager@@QAEHW4LevelEnum@RenderEnums@@@Z 00463890 f   charactersheetmanager.obj
 0001:000628f0       ?QueryPercentLevelCompleted@CharacterSheetManager@@QBEMW4LevelEnum@RenderEnums@@@Z 004638f0 f   charactersheetmanager.obj
 0001:000629f0       ?QueryPercentGameCompleted@CharacterSheetManager@@QBEMXZ 004639f0 f   charactersheetmanager.obj
 0001:00062ac0       ?UpdateRewardsManager@CharacterSheetManager@@QAEHXZ 00463ac0 f   charactersheetmanager.obj
 0001:00062c30       ?IsMiniGameUnlocked@CharacterSheetManager@@QBE_NXZ 00463c30 f   charactersheetmanager.obj
 0001:00062c50       ?IsState@CharacterSheetManager@@QAE_NH@Z 00463c50 f   charactersheetmanager.obj
 0001:00062c80       ?SetState@CharacterSheetManager@@QAEXH_N@Z 00463c80 f   charactersheetmanager.obj
 0001:00062cc0       ?AddGambleRace@CharacterSheetManager@@QAEHW4LevelEnum@RenderEnums@@PAD@Z 00463cc0 f   charactersheetmanager.obj
 0001:00062cf0       ?SetGambleRaceBestTime@CharacterSheetManager@@QAEXW4LevelEnum@RenderEnums@@H@Z 00463cf0 f   charactersheetmanager.obj
 0001:00062d00       ?GetGambleRaceBestTime@CharacterSheetManager@@QAEHW4LevelEnum@RenderEnums@@@Z 00463d00 f   charactersheetmanager.obj
 0001:00062d10       ?QueryCurrentSkin@CharacterSheetManager@@QAEPADW4LevelEnum@RenderEnums@@@Z 00463d10 f   charactersheetmanager.obj
 0001:00062d20       ?SetCurrentSkin@CharacterSheetManager@@QAEHW4LevelEnum@RenderEnums@@PAD@Z 00463d20 f   charactersheetmanager.obj
 0001:00062d50       ??_ERespawnEntity@@UAEPAXI@Z 00463d50 f i respawnentity.obj
 0001:00062d50       ??_GRespawnEntity@@UAEPAXI@Z 00463d50 f i respawnentity.obj
 0001:00062d70       ??0RespawnEntity@@QAE@W4eRespawnEntity@0@@Z 00463d70 f   respawnentity.obj
 0001:00062da0       ??1RespawnEntity@@UAE@XZ   00463da0 f   respawnentity.obj
 0001:00062db0       ?Update@RespawnEntity@@UAEXI@Z 00463db0 f   respawnentity.obj
 0001:00062dd0       ?EntityCollected@RespawnEntity@@QAEXXZ 00463dd0 f   respawnentity.obj
 0001:00062de0       ?ShouldEntityRespawn@RespawnEntity@@QAE_NXZ 00463de0 f   respawnentity.obj
 0001:00062e00       ??0RespawnManager@@QAE@XZ  00463e00 f   respawnmanager.obj
 0001:00062e20       ?SetNitroRespawnTime@RespawnManager@@QAEHH@Z 00463e20 f   respawnmanager.obj
 0001:00062e30       ?SetWrenchRespawnTime@RespawnManager@@QAEHH@Z 00463e30 f   respawnmanager.obj
 0001:00062e40       ?SetWaspRespawnTime@RespawnManager@@QAEHH@Z 00463e40 f   respawnmanager.obj
 0001:00062e50       ?GetRespawnTime@RespawnManager@@QAEHW4eRespawnEntity@RespawnEntity@@@Z 00463e50 f   respawnmanager.obj
 0001:00062e70       ??0AnimationPlayer@@QAE@XZ 00463e70 f   animplayer.obj
 0001:00062ea0       ??_EAnimationPlayer@@UAEPAXI@Z 00463ea0 f i animplayer.obj
 0001:00062ea0       ??_GAnimationPlayer@@UAEPAXI@Z 00463ea0 f i animplayer.obj
 0001:00062ec0       ??1AnimationPlayer@@UAE@XZ 00463ec0 f   animplayer.obj
 0001:00062ed0       ?LoadData@AnimationPlayer@@UAEXPBD_NPAX@Z 00463ed0 f   animplayer.obj
 0001:00062f80       ?LoadData@AnimationPlayer@@UAEXPBDPAULoadDataCallBack@1@_NPAX@Z 00463f80 f   animplayer.obj
 0001:00062fa0       ?OnProcessRequestsComplete@AnimationPlayer@@UAEXPAX@Z 00463fa0 f   animplayer.obj
 0001:00063060       ?Play@AnimationPlayer@@UAEXXZ 00464060 f   animplayer.obj
 0001:00063090       ?Render@AnimationPlayer@@QAEXXZ 00464090 f   animplayer.obj
 0001:000630b0       ?Stop@AnimationPlayer@@UAEXXZ 004640b0 f   animplayer.obj
 0001:000630d0       ?ClearData@AnimationPlayer@@UAEXXZ 004640d0 f   animplayer.obj
 0001:00063100       ?EnterExclusive@AnimationPlayer@@IAEXXZ 00464100 f   animplayer.obj
 0001:00063140       ?LeaveExclusive@AnimationPlayer@@IAEXXZ 00464140 f   animplayer.obj
 0001:00063170       ??0Blinker@@QAE@XZ         00464170 f   blinker.obj
 0001:00063190       ??_GBlinker@@UAEPAXI@Z     00464190 f i blinker.obj
 0001:00063190       ??_EBlinker@@UAEPAXI@Z     00464190 f i blinker.obj
 0001:000631b0       ??1Blinker@@UAE@XZ         004641b0 f   blinker.obj
 0001:000631d0       ?SetCharacter@Blinker@@QAEXPAVCharacter@@@Z 004641d0 f   blinker.obj
 0001:00063270       ?Update@Blinker@@QAEXH@Z   00464270 f   blinker.obj
 0001:000633c0       ??0CameraPlayer@@QAE@XZ    004643c0 f   cameraplayer.obj
 0001:000633e0       ??_GCameraPlayer@@UAEPAXI@Z 004643e0 f i cameraplayer.obj
 0001:000633e0       ??_ECameraPlayer@@UAEPAXI@Z 004643e0 f i cameraplayer.obj
 0001:00063400       ??1CameraPlayer@@UAE@XZ    00464400 f   cameraplayer.obj
 0001:00063410       ?ClearData@CameraPlayer@@UAEXXZ 00464410 f   cameraplayer.obj
 0001:00063440       ?DoLoaded@CameraPlayer@@MAEXXZ 00464440 f   cameraplayer.obj
 0001:00063470       ?find@?$@VtAnimation@@@p3d@@YAPAVtAnimation@@PAVtEntityStore@@PBD@Z 00464470 f i cameraplayer.obj
 0001:000634e0       ?find@?$@VtAnimation@@@p3d@@YAPAVtAnimation@@PAVtEntityStore@@ABVtName@@@Z 004644e0 f i cameraplayer.obj
 0001:000635b0       ?safe_cast@?$SafeCast@VtAnimation@@@radLoadInventory@@UAEPAUIRefCount@@PAU3@@Z 004645b0 f i cameraplayer.obj
 0001:000635d0       ?SetIsEnabled@PoseDriver@poser@@UAEX_N@Z 004645d0 f i mouthflapper.obj
 0001:000635e0       ??0MouthFlapper@@QAE@XZ    004645e0 f   mouthflapper.obj
 0001:00063670       ??_GMouthFlapper@@UAEPAXI@Z 00464670 f i mouthflapper.obj
 0001:00063670       ??_EMouthFlapper@@UAEPAXI@Z 00464670 f i mouthflapper.obj
 0001:00063690       ??1MouthFlapper@@UAE@XZ    00464690 f   mouthflapper.obj
 0001:000636f0       ?GetDefaultSettings@MouthFlapper@@QAEXABVtName@@@Z 004646f0 f   mouthflapper.obj
 0001:000637b0       ?GetNumberOfDefaultSettings@MouthFlapper@@KAIXZ 004647b0 f   mouthflapper.obj
 0001:000637c0       ?SetCharacter@MouthFlapper@@QAEXPAVCharacter@@@Z 004647c0 f   mouthflapper.obj
 0001:00063830       ?Update@MouthFlapper@@UAEXPAVPose@poser@@@Z 00464830 f   mouthflapper.obj
 0001:00063960       ?NeuSpeed@MouthFlapper@@AAEXXZ 00464960 f   mouthflapper.obj
 0001:00063a00       ??0MouthFlapperDefaultSetting@@QAE@ABVtName@@MMMMM@Z 00464a00 f   mouthflapper.obj
 0001:00063a30       ??0MouthFlapperDefaultSetting@@QAE@ABV0@@Z 00464a30 f   mouthflapper.obj
 0001:00063a80       ?GetMaxOpen@MouthFlapperDefaultSetting@@QBE?BMXZ 00464a80 f   mouthflapper.obj
 0001:00063a90       ?GetMaxSpeed@MouthFlapperDefaultSetting@@QBE?BMXZ 00464a90 f   mouthflapper.obj
 0001:00063aa0       ?GetMinOpen@MouthFlapperDefaultSetting@@QBE?BMXZ 00464aa0 f   mouthflapper.obj
 0001:00063aa0       ?GetGamma@RenderFlow@@QBEMXZ 00464aa0 f   renderflow.obj
 0001:00063ab0       ?GetMinSpeed@MouthFlapperDefaultSetting@@QBE?BMXZ 00464ab0 f   mouthflapper.obj
 0001:00063ac0       ??4MouthFlapperDefaultSetting@@QAEAAV0@ABV0@@Z 00464ac0 f   mouthflapper.obj
 0001:00063af0       ??0NISPlayer@@QAE@XZ       00464af0 f   nisplayer.obj
 0001:00063b10       ??_ENISPlayer@@UAEPAXI@Z   00464b10 f i nisplayer.obj
 0001:00063b10       ??_GNISPlayer@@UAEPAXI@Z   00464b10 f i nisplayer.obj
 0001:00063b30       ??1NISPlayer@@UAE@XZ       00464b30 f   nisplayer.obj
 0001:00063b40       ?ClearData@NISPlayer@@UAEXXZ 00464b40 f   nisplayer.obj
 0001:00063b80       ?DoLoaded@NISPlayer@@MAEXXZ 00464b80 f   nisplayer.obj
 0001:00063c20       ?DoRender@NISPlayer@@MAEXXZ 00464c20 f   nisplayer.obj
 0001:00063c40       ?find@?$@VScenegraph@0@@p3d@@YAPAVScenegraph@2@PAVtEntityStore@@PBD@Z 00464c40 f i nisplayer.obj
 0001:00063cb0       ?find@?$@VtCompositeDrawable@@@p3d@@YAPAVtCompositeDrawable@@PAVtEntityStore@@PBD@Z 00464cb0 f i nisplayer.obj
 0001:00063d20       ?find@?$@VScenegraph@0@@p3d@@YAPAVScenegraph@2@PAVtEntityStore@@ABVtName@@@Z 00464d20 f i nisplayer.obj
 0001:00063df0       ?find@?$@VtCompositeDrawable@@@p3d@@YAPAVtCompositeDrawable@@PAVtEntityStore@@ABVtName@@@Z 00464df0 f i nisplayer.obj
 0001:00063ec0       ?safe_cast@?$SafeCast@VScenegraph@1@@radLoadInventory@@UAEPAUIRefCount@@PAU3@@Z 00464ec0 f i nisplayer.obj
 0001:00063ee0       ?safe_cast@?$SafeCast@VtCompositeDrawable@@@radLoadInventory@@UAEPAUIRefCount@@PAU3@@Z 00464ee0 f i nisplayer.obj
 0001:00063f00       ??0PlayerDrawable@@QAE@XZ  00464f00 f   playerdrawable.obj
 0001:00063f20       ??1PresentationOverlay@@UAE@XZ 00464f20 f   presentation.obj
 0001:00063f20       ??1PlayerDrawable@@UAE@XZ  00464f20 f   playerdrawable.obj
 0001:00063f20       ??1tEffect@@UAE@XZ         00464f20 f   pure3dwr:particlesystem.obj
 0001:00063f20       ??1tDrawable@@MAE@XZ       00464f20 f   actionbuttonhandler.obj
 0001:00063f20       ??1tOpticEffect@@MAE@XZ    00464f20 f   pure3dwr:optic.obj
 0001:00063f30       ?Display@PlayerDrawable@@UAEXXZ 00464f30 f   playerdrawable.obj
 0001:00063f40       ?CreateInstance@PresentationManager@@SAPAV1@XZ 00464f40 f   presentation.obj
 0001:00063fc0       ?GetInstance@PresentationManager@@SAPAV1@XZ 00464fc0 f   presentation.obj
 0001:00063fd0       ?DestroyInstance@PresentationManager@@SAXXZ 00464fd0 f   presentation.obj
 0001:00063ff0       ??0PresentationManager@@AAE@XZ 00464ff0 f   presentation.obj
 0001:00064280       ??_EPresentationManager@@EAEPAXI@Z 00465280 f i presentation.obj
 0001:00064280       ??_GPresentationManager@@EAEPAXI@Z 00465280 f i presentation.obj
 0001:000642a0       ??1PresentationManager@@EAE@XZ 004652a0 f   presentation.obj
 0001:00064390       ?Initialize@PresentationManager@@QAEXXZ 00465390 f   presentation.obj
 0001:000644e0       ?Finalize@PresentationManager@@QAEXXZ 004654e0 f   presentation.obj
 0001:000645d0       ?InitializePlayerDrawable@PresentationManager@@QAEXXZ 004655d0 f   presentation.obj
 0001:00064610       ?FinalizePlayerDrawable@PresentationManager@@QAEXXZ 00465610 f   presentation.obj
 0001:00064640       ?GetNumLanes@RoadSegmentData@@QBEIXZ 00465640 f   roadsegmentdata.obj
 0001:00064640       ?GetAnimatorNpc@PresentationManager@@QAEPAVPresentationAnimator@@XZ 00465640 f   presentation.obj
 0001:00064650       ?GetAnimatorPc@PresentationManager@@QAEPAVPresentationAnimator@@XZ 00465650 f   presentation.obj
 0001:00064660       ?PlayFMV@PresentationManager@@QAEXPBDPAUPresentationEventCallBack@PresentationEvent@@_N22@Z 00465660 f   presentation.obj
 0001:00064800       ?OnPresentationEventBegin@PresentationManager@@MAEXPAVPresentationEvent@@@Z 00465800 f   presentation.obj
 0001:00064880       ?OnPresentationEventLoadComplete@PresentationManager@@MAEXPAVPresentationEvent@@@Z 00465880 f   presentation.obj
 0001:000648a0       ?OnPresentationEventEnd@PresentationManager@@MAEXPAVPresentationEvent@@@Z 004658a0 f   presentation.obj
 0001:00064960       ?OnProcessRequestsComplete@PresentationManager@@MAEXPAX@Z 00465960 f   presentation.obj
 0001:00064a20       ?QueueFMV@PresentationManager@@QAEXPAPAVFMVEvent@@PAUPresentationEventCallBack@PresentationEvent@@@Z 00465a20 f   presentation.obj
 0001:00064a50       ?IsBusy@PresentationManager@@QBE_NXZ 00465a50 f   presentation.obj
 0001:00064a70       ?Update@PresentationManager@@QAEXI@Z 00465a70 f   presentation.obj
 0001:00064b80       ?GetCameraTargetForLineOfDialog@PresentationManager@@IBE?BVtName@@I@Z 00465b80 f   presentation.obj
 0001:00064bc0       ?HandleEvent@PresentationManager@@UAEXW4EventEnum@@PAX@Z 00465bc0 f   presentation.obj
 0001:00065160       ?AddToQueue@PresentationManager@@IAEXPAVPresentationEvent@@@Z 00466160 f   presentation.obj
 0001:00065180       ?ReturnToPool@PresentationManager@@IAEXPAVPresentationEvent@@@Z 00466180 f   presentation.obj
 0001:000651a0       ?GetFirst@PresentationManager@@IAEPAVPresentationEvent@@XZ 004661a0 f   presentation.obj
 0001:000651d0       ?OnGameplayStart@PresentationManager@@QAEXXZ 004661d0 f   presentation.obj
 0001:000651f0       ?SetCamerasForLineOfDialog@PresentationManager@@QAEXABV?$vector@VtName@@V?$s2alloc@VtName@@@@@std@@@Z 004661f0 f   presentation.obj
 0001:00065240       ?InConversation@PresentationManager@@QBE_NXZ 00466240 f   presentation.obj
 0001:00065250       ?StopAll@PresentationManager@@QAEXXZ 00466250 f   presentation.obj
 0001:00065280       ??0PresentationOverlay@@QAE@XZ 00466280 f   presentation.obj
 0001:000652c0       ?Update@PresentationOverlay@@QAEXI@Z 004662c0 f   presentation.obj
 0001:00065340       ?Display@PresentationOverlay@@UAEXXZ 00466340 f   presentation.obj
 0001:00065620       ?ReplaceMissionBriefingBitmap@PresentationManager@@QAEXABVtName@@@Z 00466620 f   presentation.obj
 0001:00065a00       ?MakeCharactersFaceEachOther@PresentationManager@@QAEXPAVCharacter@@0@Z 00466a00 f   presentation.obj
 0001:00065aa0       ?_Construct_n@?$vector@VtName@@V?$s2alloc@VtName@@@@@std@@QAEXIABVtName@@@Z 00466aa0 f i presentation.obj
 0001:00065b10       ??0?$AllocPool@VFMVEvent@@@@QAE@W4GameMemoryAllocator@@I@Z 00466b10 f i presentation.obj
 0001:00065bb0       ??1?$AllocPool@VFMVEvent@@@@UAE@XZ 00466bb0 f i presentation.obj
 0001:00065c00       ?AllocateFromPool@?$AllocPool@VFMVEvent@@@@QAEPAVFMVEvent@@XZ 00466c00 f i presentation.obj
 0001:00065c40       ?ReturnToPool@?$AllocPool@VFMVEvent@@@@QAEXI@Z 00466c40 f i presentation.obj
 0001:00065c80       ??0?$AllocPool@VNISEvent@@@@QAE@W4GameMemoryAllocator@@I@Z 00466c80 f i presentation.obj
 0001:00065d30       ??1?$AllocPool@VNISEvent@@@@UAE@XZ 00466d30 f i presentation.obj
 0001:00065d80       ?ReturnToPool@?$AllocPool@VNISEvent@@@@QAEXI@Z 00466d80 f i presentation.obj
 0001:00065dc0       ??0?$AllocPool@VTransitionEvent@@@@QAE@W4GameMemoryAllocator@@I@Z 00466dc0 f i presentation.obj
 0001:00065e70       ??1?$AllocPool@VTransitionEvent@@@@UAE@XZ 00466e70 f i presentation.obj
 0001:00065ec0       ?ReturnToPool@?$AllocPool@VTransitionEvent@@@@QAEXI@Z 00466ec0 f i presentation.obj
 0001:00065f00       ?Initialize@?$AllocPool@VFMVEvent@@@@MAEXXZ 00466f00 f i presentation.obj
 0001:00065f00       ?Initialize@?$AllocPool@VTransitionEvent@@@@MAEXXZ 00466f00 f i presentation.obj
 0001:00065f00       ?Initialize@?$AllocPool@VNISEvent@@@@MAEXXZ 00466f00 f i presentation.obj
 0001:00065f20       ??_G?$AllocPool@VFMVEvent@@@@UAEPAXI@Z 00466f20 f i presentation.obj
 0001:00065f20       ??_E?$AllocPool@VFMVEvent@@@@UAEPAXI@Z 00466f20 f i presentation.obj
 0001:00065f40       ??_EFMVEvent@@UAEPAXI@Z    00466f40 f i presentation.obj
 0001:00065fa0       ??_G?$AllocPool@VNISEvent@@@@UAEPAXI@Z 00466fa0 f i presentation.obj
 0001:00065fa0       ??_E?$AllocPool@VNISEvent@@@@UAEPAXI@Z 00466fa0 f i presentation.obj
 0001:00065fc0       ??_ENISEvent@@UAEPAXI@Z    00466fc0 f i presentation.obj
 0001:00066020       ??_E?$AllocPool@VTransitionEvent@@@@UAEPAXI@Z 00467020 f i presentation.obj
 0001:00066020       ??_G?$AllocPool@VTransitionEvent@@@@UAEPAXI@Z 00467020 f i presentation.obj
 0001:00066040       ??_ETransitionEvent@@UAEPAXI@Z 00467040 f i presentation.obj
 0001:000660a0       ??0TransitionEvent@@QAE@XZ 004670a0 f i presentation.obj
 0001:000660b0       ??1TransitionEvent@@UAE@XZ 004670b0 f i presentation.obj
 0001:000660c0       ?_Insert@?$vector@VtName@@V?$s2alloc@VtName@@@@@std@@QAEXV?$_Ptrit@VtName@@HPAV1@AAV1@PAV1@AAV1@@2@V?$_Ptrit@VtName@@HPBV1@ABV1@PAV1@AAV1@@2@1Uforward_iterator_tag@2@@Z 004670c0 f i presentation.obj
 0001:000663b0       ?copy@std@@YA?AV?$_Ptrit@VtName@@HPAV1@AAV1@PAV1@AAV1@@1@V?$_Ptrit@VtName@@HPBV1@ABV1@PAV1@AAV1@@1@0V21@@Z 004673b0 f i presentation.obj
 0001:000663e0       ?_Copy_opt@std@@YA?AV?$_Ptrit@VtName@@HPAV1@AAV1@PAV1@AAV1@@1@V?$_Ptrit@VtName@@HPBV1@ABV1@PAV1@AAV1@@1@0V21@U_Nonscalar_ptr_iterator_tag@1@@Z 004673e0 f i presentation.obj
 0001:000663e0       ?_Copy_opt@std@@YA?AV?$_Ptrit@VtName@@HPAV1@AAV1@PAV1@AAV1@@1@V21@00U_Nonscalar_ptr_iterator_tag@1@@Z 004673e0 f i presentationanimator.obj
 0001:00066430       ?_Uninit_copy@std@@YAPAVtName@@V?$_Ptrit@VtName@@HPAV1@AAV1@PAV1@AAV1@@1@0PAV2@AAV?$s2alloc@VtName@@@@U_Nonscalar_ptr_iterator_tag@1@@Z 00467430 f i haspresentationinfo.obj
 0001:00066430       ?_Uninit_copy@std@@YAPAVtName@@V?$_Ptrit@VtName@@HPBV1@ABV1@PAV1@AAV1@@1@0PAV2@AAV?$s2alloc@VtName@@@@U_Nonscalar_ptr_iterator_tag@1@@Z 00467430 f i presentation.obj
 0001:000664c0       ??2radObject@@SAPAXIH@Z    004674c0 f i presentation.obj
 0001:000664e0       ??0PresentationAnimator@@QAE@XZ 004674e0 f   presentationanimator.obj
 0001:00066560       ??_GPresentationAnimator@@UAEPAXI@Z 00467560 f i presentationanimator.obj
 0001:00066560       ??_EPresentationAnimator@@UAEPAXI@Z 00467560 f i presentationanimator.obj
 0001:00066580       ??1PresentationAnimator@@UAE@XZ 00467580 f   presentationanimator.obj
 0001:000665e0       ?AddAmbientAnimations@PresentationAnimator@@QAEXABV?$vector@VtName@@V?$s2alloc@VtName@@@@@std@@@Z 004675e0 f   presentationanimator.obj
 0001:00066640       ?ClearAmbientAnimations@PresentationAnimator@@QAEXXZ 00467640 f   presentationanimator.obj
 0001:00066670       ?ChooseNextAnimation@PresentationAnimator@@AAE?BVtName@@XZ 00467670 f   presentationanimator.obj
 0001:00066720       ?ChooseRandomAnimation@PresentationAnimator@@ABE?BVtName@@XZ 00467720 f   presentationanimator.obj
 0001:00066770       ?SetCharacter@PresentationAnimator@@QAEXPAVCharacter@@@Z 00467770 f   presentationanimator.obj
 0001:00066780       ?PlaySpecialAmbientAnimation@PresentationAnimator@@QAEXXZ 00467780 f   presentationanimator.obj
 0001:00066910       ?SetRandomSelection@PresentationAnimator@@QAEX_N@Z 00467910 f   presentationanimator.obj
 0001:00066920       ?StartTalking@PresentationAnimator@@QAEXXZ 00467920 f   presentationanimator.obj
 0001:00066950       ?StopTalking@PresentationAnimator@@QAEXXZ 00467950 f   presentationanimator.obj
 0001:00066980       ?Update@PresentationAnimator@@QAEXH@Z 00467980 f   presentationanimator.obj
 0001:000669b0       ?erase@?$vector@VtName@@V?$s2alloc@VtName@@@@@std@@QAE?AV?$_Ptrit@VtName@@HPAV1@AAV1@PAV1@AAV1@@2@V32@@Z 004679b0 f i presentationanimator.obj
 0001:00066a10       ??0SimpleAnimationPlayer@@QAE@XZ 00467a10 f   simpleanimationplayer.obj
 0001:00066a60       ??_GSimpleAnimationPlayer@@UAEPAXI@Z 00467a60 f i simpleanimationplayer.obj
 0001:00066a60       ??_ESimpleAnimationPlayer@@UAEPAXI@Z 00467a60 f i simpleanimationplayer.obj
 0001:00066a80       ??1SimpleAnimationPlayer@@UAE@XZ 00467a80 f   simpleanimationplayer.obj
 0001:00066ae0       ?Update@SimpleAnimationPlayer@@UAEXI@Z 00467ae0 f   simpleanimationplayer.obj
 0001:00066ba0       ?Rewind@SimpleAnimationPlayer@@QAEXXZ 00467ba0 f   simpleanimationplayer.obj
 0001:00066bc0       ?ClearData@SimpleAnimationPlayer@@UAEXXZ 00467bc0 f   simpleanimationplayer.obj
 0001:00066c00       ?SetNameData@SimpleAnimationPlayer@@QAEXPAD00@Z 00467c00 f   simpleanimationplayer.obj
 0001:00066c40       ?DoLoaded@SimpleAnimationPlayer@@MAEXXZ 00467c40 f   simpleanimationplayer.obj
 0001:00066d40       ?DoRender@SimpleAnimationPlayer@@MAEXXZ 00467d40 f   simpleanimationplayer.obj
 0001:00066e20       ?Play@SimpleAnimationPlayer@@UAEXXZ 00467e20 f   simpleanimationplayer.obj
 0001:00066e40       ?DoneIntro@SimpleAnimationPlayer@@QAEXXZ 00467e40 f   simpleanimationplayer.obj
 0001:00066e80       ?find@?$@VtCamera@@@p3d@@YAPAVtCamera@@PAVtEntityStore@@PBD@Z 00467e80 f i simpleanimationplayer.obj
 0001:00066ef0       ??0TransitionPlayer@@QAE@XZ 00467ef0 f   transitionplayer.obj
 0001:00066f10       ??_GTransitionPlayer@@UAEPAXI@Z 00467f10 f i transitionplayer.obj
 0001:00066f10       ??_ETransitionPlayer@@UAEPAXI@Z 00467f10 f i transitionplayer.obj
 0001:00066f30       ??1TransitionPlayer@@UAE@XZ 00467f30 f   transitionplayer.obj
 0001:00066f40       ?SetTransition@TransitionPlayer@@QAEXPAUTransitionInfo@1@@Z 00467f40 f   transitionplayer.obj
 0001:00066f90       ?Update@TransitionPlayer@@UAEXI@Z 00467f90 f   transitionplayer.obj
 0001:00067000       ?DoUpdate@TransitionPlayer@@MAEXI@Z 00468000 f   transitionplayer.obj
 0001:00067080       ?CreateInstance@TutorialManager@@SAPAV1@XZ 00468080 f   tutorialmanager.obj
 0001:000670f0       ?GetInstance@TutorialManager@@SAPAV1@XZ 004680f0 f   tutorialmanager.obj
 0001:00067100       ?AddToQueue@TutorialManager@@IAEXW4TutorialMode@@@Z 00468100 f   tutorialmanager.obj
 0001:00067120       ?DestroyInstance@TutorialManager@@SAXXZ 00468120 f   tutorialmanager.obj
 0001:00067140       ??0TutorialManager@@AAE@XZ 00468140 f   tutorialmanager.obj
 0001:00067220       ??_GTutorialManager@@EAEPAXI@Z 00468220 f i tutorialmanager.obj
 0001:00067220       ??_ETutorialManager@@EAEPAXI@Z 00468220 f i tutorialmanager.obj
 0001:00067240       ??1TutorialManager@@EAE@XZ 00468240 f   tutorialmanager.obj
 0001:00067290       ?HandleEvent@TutorialManager@@UAEXW4EventEnum@@PAX@Z 00468290 f   tutorialmanager.obj
 0001:000676c0       ?Initialize@TutorialManager@@QAEXXZ 004686c0 f   tutorialmanager.obj
 0001:00067810       ?MarkDialogFinished@TutorialManager@@QAEXXZ 00468810 f   tutorialmanager.obj
 0001:00067820       ?ProcessQueue@TutorialManager@@IAEXXZ 00468820 f   tutorialmanager.obj
 0001:000678b0       ?Update@TutorialManager@@QAEXM@Z 004688b0 f   tutorialmanager.obj
 0001:000678f0       ?LoadData@TutorialManager@@UAEXPBEI@Z 004688f0 f   tutorialmanager.obj
 0001:00067920       ?SaveData@TutorialManager@@UAEXPAEI@Z 00468920 f   tutorialmanager.obj
 0001:00067940       ?ResetData@TutorialManager@@UAEXXZ 00468940 f   tutorialmanager.obj
 0001:00067990       ?QueryTutorialSeen@TutorialManager@@IAE_NW4TutorialMode@@@Z 00468990 f   tutorialmanager.obj
 0001:000679b0       ?SetFlag@AnimatedIcon@@AAEXW4Flag@1@_N@Z 004689b0 f   animatedicon.obj
 0001:000679b0       ?SetTutorialSeen@TutorialManager@@IAEXW4TutorialMode@@_N@Z 004689b0 f   tutorialmanager.obj
 0001:000679d0       ?GetUserData@FMVEvent@@MAEPAXXZ 004689d0 f i fmvevent.obj
 0001:000679e0       ??0FMVEvent@@QAE@XZ        004689e0 f   fmvevent.obj
 0001:00067a00       ??1FMVEvent@@UAE@XZ        00468a00 f   fmvevent.obj
 0001:00067a10       ?GetPlayer@FMVEvent@@UAEPAVAnimationPlayer@@XZ 00468a10 f   fmvevent.obj
 0001:00067a20       ??0FMVEventData@FMVEvent@@QAE@XZ 00468a20 f   fmvevent.obj
 0001:00067a40       ??0NISEvent@@QAE@XZ        00468a40 f   nisevent.obj
 0001:00067a60       ??1NISEvent@@UAE@XZ        00468a60 f   nisevent.obj
 0001:00067a70       ?Init@NISEvent@@UAEXXZ     00468a70 f   nisevent.obj
 0001:00067a80       ?Start@NISEvent@@UAEXXZ    00468a80 f   nisevent.obj
 0001:00067aa0       ?GetPlayer@NISEvent@@UAEPAVAnimationPlayer@@XZ 00468aa0 f   nisevent.obj
 0001:00067ac0       ?SetNames@NISEvent@@AAEXXZ 00468ac0 f   nisevent.obj
 0001:00067b30       ??0PresentationEvent@@QAE@XZ 00468b30 f   presentationevent.obj
 0001:00067b40       ??_EPresentationEvent@@UAEPAXI@Z 00468b40 f i presentationevent.obj
 0001:00067b40       ??_GPresentationEvent@@UAEPAXI@Z 00468b40 f i presentationevent.obj
 0001:00067b60       ??1PresentationEvent@@UAE@XZ 00468b60 f   presentationevent.obj
 0001:00067b70       ?OnLoadDataComplete@PresentationEvent@@UAEXXZ 00468b70 f   presentationevent.obj
 0001:00067b80       ?Update@PresentationEvent@@QAE_NI@Z 00468b80 f   presentationevent.obj
 0001:00067bb0       ?Start@PresentationEvent@@UAEXXZ 00468bb0 f   presentationevent.obj
 0001:00067c10       ?Stop@PresentationEvent@@UAEXXZ 00468c10 f   presentationevent.obj
 0001:00067c30       ?Init@PresentationEvent@@UAEXXZ 00468c30 f   presentationevent.obj
 0001:00067c40       ?GetPlayer@TransitionEvent@@UAEPAVAnimationPlayer@@XZ 00468c40 f   transevent.obj
 0001:00067c50       ?Start@TransitionEvent@@UAEXXZ 00468c50 f   transevent.obj
 0001:00067c70       ??0CGuiEntity@@QAE@PAV0@@Z 00468c70 f   guientity.obj
 0001:00067c80       ??_GCGuiEntity@@UAEPAXI@Z  00468c80 f i guientity.obj
 0001:00067c80       ??_ECGuiEntity@@UAEPAXI@Z  00468c80 f i guientity.obj
 0001:00067ca0       ??1CGuiEntity@@UAE@XZ      00468ca0 f   guientity.obj
 0001:00067cb0       ??0CGuiManager@@QAE@PAVProject@Scrooby@@PAVCGuiEntity@@@Z 00468cb0 f   guimanager.obj
 0001:00067dc0       ??_GCGuiManager@@UAEPAXI@Z 00468dc0 f i guimanager.obj
 0001:00067dc0       ??_ECGuiManager@@UAEPAXI@Z 00468dc0 f i guimanager.obj
 0001:00067de0       ??1CGuiManager@@UAE@XZ     00468de0 f   guimanager.obj
 0001:00067e50       ?HandleMessage@CGuiManager@@UAEXW4eGuiMessage@@II@Z 00468e50 f   guimanager.obj
 0001:00067ff0       ?OnGotoScreenComplete@CGuiManager@@UAEXXZ 00468ff0 f   guimanager.obj
 0001:00068040       ?FindWindowByID@CGuiManager@@QAEPAVCGuiWindow@@W4eGuiWindowID@2@@Z 00469040 f   guimanager.obj
 0001:00068060       ?GetCurrentWindow@CGuiManager@@QAEPAVCGuiWindow@@XZ 00469060 f   guimanager.obj
 0001:00068070       ?DisplayMessage@CGuiManager@@QAEXHPAVCGuiEntity@@@Z 00469070 f   guimanager.obj
 0001:00068090       ?DisplayPrompt@CGuiManager@@QAEXHPAVCGuiEntity@@W4eGenericPromptType@@_N@Z 00469090 f   guimanager.obj
 0001:00068140       ?DisplayErrorPrompt@CGuiManager@@QAEXHPAVCGuiEntity@@H@Z 00469140 f   guimanager.obj
 0001:000681e0       ?GetPreviousScreen@CGuiManager@@QBE?AW4eGuiWindowID@CGuiWindow@@H@Z 004691e0 f   guimanager.obj
 0001:00068200       ?GetCurrentScreen@CGuiManager@@QBE?AW4eGuiWindowID@CGuiWindow@@XZ 00469200 f   guimanager.obj
 0001:00068210       ?AddWindow@CGuiManager@@IAEXW4eGuiWindowID@CGuiWindow@@PAV3@@Z 00469210 f   guimanager.obj
 0001:00068220       ?RemoveAllWindows@CGuiManager@@IAEXXZ 00469220 f   guimanager.obj
 0001:00068260       ?PushScreenHistory@CGuiManager@@IAEXW4eGuiWindowID@CGuiWindow@@@Z 00469260 f   guimanager.obj
 0001:00068280       ?PopScreenHistory@CGuiManager@@IAE?AW4eGuiWindowID@CGuiWindow@@XZ 00469280 f   guimanager.obj
 0001:000682a0       ??_ECGuiManager@@WBA@AEPAXI@Z 004692a0 f i guimanager.obj
 0001:000682b0       ?IsControllerMessage@CGuiEntity@@SA_NW4eGuiMessage@@@Z 004692b0 f i guimenu.obj
 0001:000682d0       ??0CGuiMenu@@QAE@PAVCGuiEntity@@HW4eMenuType@@H@Z 004692d0 f   guimenu.obj
 0001:00068390       ??_ECGuiMenu@@UAEPAXI@Z    00469390 f i guimenu.obj
 0001:00068390       ??_GCGuiMenu@@UAEPAXI@Z    00469390 f i guimenu.obj
 0001:000683b0       ??1CGuiMenu@@UAE@XZ        004693b0 f   guimenu.obj
 0001:00068440       ?HandleMessage@CGuiMenu@@UAEXW4eGuiMessage@@II@Z 00469440 f   guimenu.obj
 0001:00068580       ?AddMenuItem@CGuiMenu@@QAEPAUGuiMenuItem@@PAVBoundedDrawable@Scrooby@@0PAVPolygon@4@PAVSprite@4@22H@Z 00469580 f   guimenu.obj
 0001:00068710       ?SetMenuItemEnabled@CGuiMenu@@QAEXH_N0@Z 00469710 f   guimenu.obj
 0001:00068870       ?IsMenuItemEnabled@CGuiMenu@@QAE_NH@Z 00469870 f   guimenu.obj
 0001:00068880       ?Reset@CGuiMenu@@QAEXH@Z   00469880 f   guimenu.obj
 0001:000688a0       ?SetHighlightColour@CGuiMenu@@QAEX_NUpddiColour@@@Z 004698a0 f   guimenu.obj
 0001:000688c0       ?SetSelectionValue@CGuiMenu@@QAEXHH@Z 004698c0 f   guimenu.obj
 0001:000688f0       ?SetSelectionValueCount@CGuiMenu@@QAEXHH@Z 004698f0 f   guimenu.obj
 0001:00068980       ?MakeSelection@CGuiMenu@@QAEX_N@Z 00469980 f   guimenu.obj
 0001:00068a80       ?SelectItem@CGuiMenu@@IAEXH@Z 00469a80 f   guimenu.obj
 0001:00068b40       ?UnselectItem@CGuiMenu@@IAEXH@Z 00469b40 f   guimenu.obj
 0001:00068c30       ?ChangeSelection@CGuiMenu@@IAEXH_N@Z 00469c30 f   guimenu.obj
 0001:00068cb0       ?SetNewSelection@CGuiMenu@@IAEXH_N@Z 00469cb0 f   guimenu.obj
 0001:00068d10       ?OutlineSelection@CGuiMenu@@IAEX_N@Z 00469d10 f   guimenu.obj
 0001:00068d70       ?IncrementSelectionValue@CGuiMenu@@IAEX_N@Z 00469d70 f   guimenu.obj
 0001:00068df0       ?DecrementSelectionValue@CGuiMenu@@IAEX_N@Z 00469df0 f   guimenu.obj
 0001:00068e80       ?UpdateCurrentSelection@CGuiMenu@@AAEXH@Z 00469e80 f   guimenu.obj
 0001:00069280       ?MoveCursor@CGuiMenu@@AAEXHH@Z 0046a280 f   guimenu.obj
 0001:00069310       ??0CGuiMenu2D@@QAE@PAVCGuiEntity@@HHW4eMenuType@@H@Z 0046a310 f   guimenu.obj
 0001:00069330       ??_ECGuiMenu2D@@UAEPAXI@Z  0046a330 f i guimenu.obj
 0001:00069330       ??_GCGuiMenu2D@@UAEPAXI@Z  0046a330 f i guimenu.obj
 0001:00069350       ??1CGuiMenu2D@@UAE@XZ      0046a350 f   guimenu.obj
 0001:00069360       ?HandleMessage@CGuiMenu2D@@UAEXW4eGuiMessage@@II@Z 0046a360 f   guimenu.obj
 0001:000693e0       ??0CGuiMenuPrompt@@QAE@PAVCGuiEntity@@PAVPage@Scrooby@@HH@Z 0046a3e0 f   guimenu.obj
 0001:000694d0       ??_ECGuiMenuPrompt@@UAEPAXI@Z 0046a4d0 f i guimenu.obj
 0001:000694d0       ??_GCGuiMenuPrompt@@UAEPAXI@Z 0046a4d0 f i guimenu.obj
 0001:000694f0       ??1CGuiMenuPrompt@@UAE@XZ  0046a4f0 f   guimenu.obj
 0001:00069500       ?SetNumResponses@CGuiMenuPrompt@@QAEXH@Z 0046a500 f   guimenu.obj
 0001:00069530       ?SetResponse@CGuiMenuPrompt@@QAEXHW4ePromptResponse@1@@Z 0046a530 f   guimenu.obj
 0001:00069560       ?GetResponse@CGuiMenuPrompt@@QBE?AW4ePromptResponse@1@H@Z 0046a560 f   guimenu.obj
 0001:00069590       ?GetItem@GuiMenuItemSprite@@UBEPAVBoundedDrawable@Scrooby@@XZ 0046a590 f i guimenuitem.obj
 0001:00069590       ?GetItem@GuiMenuItemText@@UBEPAVBoundedDrawable@Scrooby@@XZ 0046a590 f i guimenuitem.obj
 0001:000695b0       ?GetItemValue@GuiMenuItemText@@UBEPAVBoundedDrawable@Scrooby@@XZ 0046a5b0 f i guimenuitem.obj
 0001:000695b0       ?GetItemValue@GuiMenuItemSprite@@UBEPAVBoundedDrawable@Scrooby@@XZ 0046a5b0 f i guimenuitem.obj
 0001:000695d0       ??0GuiMenuItem@@QAE@XZ     0046a5d0 f   guimenuitem.obj
 0001:00069600       ??_EGuiMenuItem@@UAEPAXI@Z 0046a600 f i guimenuitem.obj
 0001:00069600       ??_GGuiMenuItem@@UAEPAXI@Z 0046a600 f i guimenuitem.obj
 0001:00069620       ??1GuiMenuItem@@UAE@XZ     0046a620 f   guimenuitem.obj
 0001:00069630       ??0GuiMenuItemText@@QAE@XZ 0046a630 f   guimenuitem.obj
 0001:00069650       ?SetItem@GuiMenuItemText@@UAEXPAVBoundedDrawable@Scrooby@@@Z 0046a650 f   guimenuitem.obj
 0001:00069680       ?SetItemValue@GuiMenuItemText@@UAEXPAVBoundedDrawable@Scrooby@@@Z 0046a680 f   guimenuitem.obj
 0001:000696b0       ?GetItemValueIndex@GuiMenuItemSprite@@UBEHXZ 0046a6b0 f   guimenuitem.obj
 0001:000696b0       ?SetItemValueIndex@GuiMenuItemText@@UAEXH@Z 0046a6b0 f   guimenuitem.obj
 0001:000696c0       ?SetItemValueIndex@GuiMenuItemSprite@@UAEXH@Z 0046a6c0 f   guimenuitem.obj
 0001:000696c0       ?GetItemValueIndex@GuiMenuItemText@@UBEHXZ 0046a6c0 f   guimenuitem.obj
 0001:000696d0       ?SetDisplayOutline@GuiMenuItemText@@UAEX_N@Z 0046a6d0 f   guimenuitem.obj
 0001:00069700       ?SetOutlineColour@GuiMenuItemText@@UAEXUpddiColour@@@Z 0046a700 f   guimenuitem.obj
 0001:00069730       ?GetOutlineColour@GuiMenuItemText@@UBE?AUpddiColour@@XZ 0046a730 f   guimenuitem.obj
 0001:00069750       ??0GuiMenuItemSprite@@QAE@XZ 0046a750 f   guimenuitem.obj
 0001:00069770       ??_GGuiMenuItemText@@UAEPAXI@Z 0046a770 f i guimenuitem.obj
 0001:00069770       ??_EGuiMenuItemText@@UAEPAXI@Z 0046a770 f i guimenuitem.obj
 0001:00069770       ??_GGuiMenuItemSprite@@UAEPAXI@Z 0046a770 f i guimenuitem.obj
 0001:00069770       ??_EGuiMenuItemSprite@@UAEPAXI@Z 0046a770 f i guimenuitem.obj
 0001:00069790       ??1GuiMenuItemSprite@@UAE@XZ 0046a790 f i guimenuitem.obj
 0001:00069790       ??1GuiMenuItemText@@UAE@XZ 0046a790 f i guimenuitem.obj
 0001:000697a0       ?SetItem@GuiMenuItemSprite@@UAEXPAVBoundedDrawable@Scrooby@@@Z 0046a7a0 f   guimenuitem.obj
 0001:000697d0       ?SetItemValue@GuiMenuItemSprite@@UAEXPAVBoundedDrawable@Scrooby@@@Z 0046a7d0 f   guimenuitem.obj
 0001:00069800       ?GetOutlineColour@GuiMenuItemSprite@@UBE?AUpddiColour@@XZ 0046a800 f   guimenuitem.obj
 0001:00069810       ??0CGuiScreen@@QAE@PAVScreen@Scrooby@@PAVCGuiEntity@@W4eGuiWindowID@CGuiWindow@@I@Z 0046a810 f   guiscreen.obj
 0001:00069ab0       ??_ECGuiScreen@@UAEPAXI@Z  0046aab0 f i guiscreen.obj
 0001:00069ab0       ??_GCGuiScreen@@UAEPAXI@Z  0046aab0 f i guiscreen.obj
 0001:00069ad0       ??1CGuiScreen@@UAE@XZ      0046aad0 f   guiscreen.obj
 0001:00069b30       ?HandleMessage@CGuiScreen@@UAEXW4eGuiMessage@@II@Z 0046ab30 f   guiscreen.obj
 0001:0006a090       ?SetFadingEnabled@CGuiScreen@@QAEX_N@Z 0046b090 f   guiscreen.obj
 0001:0006a0e0       ?SetZoomingEnabled@CGuiScreen@@QAEX_N@Z 0046b0e0 f   guiscreen.obj
 0001:0006a120       ?SetSlidingEnabled@CGuiScreen@@QAEXW4eScreenEffect@@_N@Z 0046b120 f   guiscreen.obj
 0001:0006a140       ?SetIrisWipeEnabled@CGuiScreen@@QAEX_N0@Z 0046b140 f   guiscreen.obj
 0001:0006a170       ?Reset3dFEMultiController@CGuiScreen@@SAXXZ 0046b170 f   guiscreen.obj
 0001:0006a190       ?SetButtonVisible@CGuiScreen@@QAEXW4eButtonIcon@@_N@Z 0046b190 f   guiscreen.obj
 0001:0006a1b0       ?IsButtonVisible@CGuiScreen@@QBE_NW4eButtonIcon@@@Z 0046b1b0 f   guiscreen.obj
 0001:0006a1d0       ?StartTransitionAnimation@CGuiScreen@@QAEXHH_N@Z 0046b1d0 f   guiscreen.obj
 0001:0006a250       ?ReloadScreen@CGuiScreen@@QAEXXZ 0046b250 f   guiscreen.obj
 0001:0006a270       ?RestoreScreenCover@CGuiScreen@@QAEXXZ 0046b270 f   guiscreen.obj
 0001:0006a2c0       ?RestoreButtons@CGuiScreen@@QAEXXZ 0046b2c0 f   guiscreen.obj
 0001:0006a2f0       ?ApplyWideScreenCorrectionScale@CGuiScreen@@SAXPAVDrawable@Scrooby@@@Z 0046b2f0 f   guiscreen.obj
 0001:0006a340       ?CheckCursorAgainstHotspots@CGuiScreen@@UAE?AW4eFEHotspotType@@MM@Z 0046b340 f   guiscreen.obj
 0001:0006a4a0       ?RestoreDefaultFadeTime@CGuiScreen@@IAEXXZ 0046b4a0 f   guiscreen.obj
 0001:0006a4b0       ?IrisWipeOpen@CGuiScreen@@IAEXXZ 0046b4b0 f   guiscreen.obj
 0001:0006a4d0       ?SetAlphaForLayers@CGuiScreen@@IAEXMPAPAVLayer@Scrooby@@H@Z 0046b4d0 f   guiscreen.obj
 0001:0006a500       ?AutoScaleFrame@CGuiScreen@@IAEXPAVPage@Scrooby@@@Z 0046b500 f   guiscreen.obj
 0001:0006a700       ?FadeIn@CGuiScreen@@AAEXM@Z 0046b700 f   guiscreen.obj
 0001:0006a7d0       ?FadeOut@CGuiScreen@@AAEXM@Z 0046b7d0 f   guiscreen.obj
 0001:0006a8b0       ?ZoomIn@CGuiScreen@@AAEXM@Z 0046b8b0 f   guiscreen.obj
 0001:0006a940       ?ZoomOut@CGuiScreen@@AAEXM@Z 0046b940 f   guiscreen.obj
 0001:0006a9d0       ?SlideIn@CGuiScreen@@AAEXM@Z 0046b9d0 f   guiscreen.obj
 0001:0006aad0       ?SlideOut@CGuiScreen@@AAEXM@Z 0046bad0 f   guiscreen.obj
 0001:0006abd0       ?OnIrisWipeClosed@CGuiScreen@@AAEXXZ 0046bbd0 f   guiscreen.obj
 0001:0006ac00       ??0CGuiScreenMemCardCheck@@QAE@PAVScreen@Scrooby@@PAVCGuiEntity@@@Z 0046bc00 f   guiscreenmemcardcheck.obj
 0001:0006ad00       ??_ECGuiScreenMemCardCheck@@UAEPAXI@Z 0046bd00 f i guiscreenmemcardcheck.obj
 0001:0006ad00       ??_GCGuiScreenMemCardCheck@@UAEPAXI@Z 0046bd00 f i guiscreenmemcardcheck.obj
 0001:0006ad20       ??1CGuiScreenMemCardCheck@@UAE@XZ 0046bd20 f   guiscreenmemcardcheck.obj
 0001:0006ad40       ?HandleMessage@CGuiScreenMemCardCheck@@UAEXW4eGuiMessage@@II@Z 0046bd40 f   guiscreenmemcardcheck.obj
 0001:0006af40       ?OnFormatOperationComplete@CGuiScreenMemCardCheck@@UAEXW4radFileError@@@Z 0046bf40 f   guiscreenmemcardcheck.obj
 0001:0006af60       ?OnMemoryCardCheckDone@CGuiScreenMemCardCheck@@UAEXW4radFileError@@W4MediaState@MediaInfo@IRadDrive@@HHH@Z 0046bf60 f   guiscreenmemcardcheck.obj
 0001:0006b000       ?InitIntro@CGuiScreenMemCardCheck@@MAEXXZ 0046c000 f   guiscreenmemcardcheck.obj
 0001:0006b030       ?InitRunning@CGuiScreenMemCardCheck@@MAEXXZ 0046c030 f   guiscreenmemcardcheck.obj
 0001:0006b050       ?OnContinue@CGuiScreenMemCardCheck@@AAEXXZ 0046c050 f   guiscreenmemcardcheck.obj
 0001:0006b0b0       ?HasMenu@CGuiScreenMemoryCard@@UAEPAVCGuiMenu@@XZ 0046c0b0 f i guiscreenmemorycard.obj
 0001:0006b0b0       ?HasMenu@CGuiScreenCardGallery@@UAEPAVCGuiMenu@@XZ 0046c0b0 f i guiscreencardgallery.obj
 0001:0006b0c0       ??0CGuiScreenLoadSave@@QAE@PAVScreen@Scrooby@@@Z 0046c0c0 f   guiscreenmemorycard.obj
 0001:0006b120       ??_GCGuiScreenLoadSave@@UAEPAXI@Z 0046c120 f i guiscreenmemorycard.obj
 0001:0006b120       ??_ECGuiScreenLoadSave@@UAEPAXI@Z 0046c120 f i guiscreenmemorycard.obj
 0001:0006b140       ??1CGuiScreenLoadSave@@UAE@XZ 0046c140 f   guiscreenmemorycard.obj
 0001:0006b150       ?HandleMessage@CGuiScreenLoadSave@@UAEXW4eGuiMessage@@II@Z 0046c150 f   guiscreenmemorycard.obj
 0001:0006b190       ?FormatCurrentDrive@CGuiScreenLoadSave@@IAEXXZ 0046c190 f   guiscreenmemorycard.obj
 0001:0006b1c0       ?OnFormatOperationComplete@CGuiScreenLoadSave@@UAEXW4radFileError@@@Z 0046c1c0 f   guiscreenmemorycard.obj
 0001:0006b1e0       ?UpdateCurrentMemoryDevice@CGuiScreenLoadSave@@IAEXXZ 0046c1e0 f   guiscreenmemorycard.obj
 0001:0006b200       ??0CGuiScreenMemoryCard@@QAE@PAVScreen@Scrooby@@PAVCGuiEntity@@@Z 0046c200 f   guiscreenmemorycard.obj
 0001:0006b4e0       ??_GCGuiScreenMemoryCard@@UAEPAXI@Z 0046c4e0 f i guiscreenmemorycard.obj
 0001:0006b4e0       ??_ECGuiScreenMemoryCard@@UAEPAXI@Z 0046c4e0 f i guiscreenmemorycard.obj
 0001:0006b500       ??1CGuiScreenMemoryCard@@UAE@XZ 0046c500 f   guiscreenmemorycard.obj
 0001:0006b570       ?HandleMessage@CGuiScreenMemoryCard@@UAEXW4eGuiMessage@@II@Z 0046c570 f   guiscreenmemorycard.obj
 0001:0006b730       ?InitIntro@CGuiScreenMemoryCard@@MAEXXZ 0046c730 f   guiscreenmemorycard.obj
 0001:0006b7b0       ?UpdateDeviceList@CGuiScreenMemoryCard@@AAEX_N@Z 0046c7b0 f   guiscreenmemorycard.obj
 0001:0006ba30       ?UpdateFreeSpace@CGuiScreenMemoryCard@@AAEXI@Z 0046ca30 f   guiscreenmemorycard.obj
 0001:0006bc30       ?HasMenu@CGuiScreenScrapBook@@UAEPAVCGuiMenu@@XZ 0046cc30 f i guiscreenscrapbook.obj
 0001:0006bc30       ?HasMenu@CGuiScreenScrapBookContents@@UAEPAVCGuiMenu@@XZ 0046cc30 f i guiscreenscrapbookcontents.obj
 0001:0006bc30       ?HasMenu@CGuiScreenPrompt@@UAEPAVCGuiMenu@@XZ 0046cc30 f i guiscreenprompt.obj
 0001:0006bc30       ?HasMenu@CGuiScreenDisplay@@UAEPAVCGuiMenu@@XZ 0046cc30 f i guiscreendisplay.obj
 0001:0006bc30       ?HasMenu@CGuiScreenMiniPause@@UAEPAVCGuiMenu@@XZ 0046cc30 f i guiscreenminipause.obj
 0001:0006bc30       ?HasMenu@CGuiScreenViewMovies@@UAEPAVCGuiMenu@@XZ 0046cc30 f i guiscreenviewmovies.obj
 0001:0006bc30       ?HasMenu@CGuiScreenLanguage@@UAEPAVCGuiMenu@@XZ 0046cc30 f i guiscreenlanguage.obj
 0001:0006bc30       ?HasMenu@CGuiScreenMiniMenu@@UAEPAVCGuiMenu@@XZ 0046cc30 f i guiscreenminimenu.obj
 0001:0006bc30       ?HasMenu@CGuiScreenSound@@UAEPAVCGuiMenu@@XZ 0046cc30 f i guiscreensound.obj
 0001:0006bc30       ?HasMenu@CGuiScreenPauseOptions@@UAEPAVCGuiMenu@@XZ 0046cc30 f i guiscreenpauseoptions.obj
 0001:0006bc30       ?HasMenu@CGuiScreenMainMenu@@UAEPAVCGuiMenu@@XZ 0046cc30 f i guiscreenmainmenu.obj
 0001:0006bc30       ?HasMenu@CGuiScreenPause@@UAEPAVCGuiMenu@@XZ 0046cc30 f i guiscreenpause.obj
 0001:0006bc30       ?HasMenu@CGuiScreenMessage@@UAEPAVCGuiMenu@@XZ 0046cc30 f i guiscreenmessage.obj
 0001:0006bc30       ?HasMenu@CGuiScreenSplash@@UAEPAVCGuiMenu@@XZ 0046cc30 f i guiscreensplash.obj
 0001:0006bc40       ??0CGuiScreenMessage@@QAE@PAVScreen@Scrooby@@PAVCGuiEntity@@@Z 0046cc40 f   guiscreenmessage.obj
 0001:0006bd50       ??_ECGuiScreenMessage@@UAEPAXI@Z 0046cd50 f i guiscreenmessage.obj
 0001:0006bd50       ??_GCGuiScreenMessage@@UAEPAXI@Z 0046cd50 f i guiscreenmessage.obj
 0001:0006bd70       ??1CGuiScreenMessage@@UAE@XZ 0046cd70 f   guiscreenmessage.obj
 0001:0006bde0       ?HandleMessage@CGuiScreenMessage@@UAEXW4eGuiMessage@@II@Z 0046cde0 f   guiscreenmessage.obj
 0001:0006bf10       ?Display@CGuiScreenMessage@@SAXHPAVCGuiEntity@@@Z 0046cf10 f   guiscreenmessage.obj
 0001:0006bf20       ?GetControllerDisconnectedMessage@CGuiScreenMessage@@SAXHPADH@Z 0046cf20 f   guiscreenmessage.obj
 0001:0006bf40       ?ConvertUnicodeToChar@CGuiScreenMessage@@CAXPADPAGH@Z 0046cf40 f   guiscreenmessage.obj
 0001:0006bf90       ?FormatMessage@CGuiScreenMessage@@SAXPAVText@Scrooby@@PAGH@Z 0046cf90 f   guiscreenmessage.obj
 0001:0006bfe0       ?InitIntro@CGuiScreenMessage@@MAEXXZ 0046cfe0 f   guiscreenmessage.obj
 0001:0006c040       ?InitRunning@CGuiScreenMessage@@MAEXXZ 0046d040 f   guiscreenmessage.obj
 0001:0006c060       ??0CGuiScreenPrompt@@QAE@PAVScreen@Scrooby@@PAVCGuiEntity@@W4eGuiWindowID@CGuiWindow@@@Z 0046d060 f   guiscreenprompt.obj
 0001:0006c290       ??_ECGuiScreenPrompt@@UAEPAXI@Z 0046d290 f i guiscreenprompt.obj
 0001:0006c290       ??_GCGuiScreenPrompt@@UAEPAXI@Z 0046d290 f i guiscreenprompt.obj
 0001:0006c2b0       ??1CGuiScreenPrompt@@UAE@XZ 0046d2b0 f   guiscreenprompt.obj
 0001:0006c320       ?HandleMessage@CGuiScreenPrompt@@UAEXW4eGuiMessage@@II@Z 0046d320 f   guiscreenprompt.obj
 0001:0006c570       ?Display@CGuiScreenPrompt@@SAXHPAVCGuiEntity@@HPAW4ePromptResponse@CGuiMenuPrompt@@@Z 0046d570 f   guiscreenprompt.obj
 0001:0006c5c0       ?InitIntro@CGuiScreenPrompt@@MAEXXZ 0046d5c0 f   guiscreenprompt.obj
 0001:0006c670       ?CreateInstance@CGuiSystem@@SAPAV1@XZ 0046d670 f   guisystem.obj
 0001:0006c6d0       ?DestroyInstance@CGuiSystem@@SAXXZ 0046d6d0 f   guisystem.obj
 0001:0006c6f0       ?GetInstance@CGuiSystem@@SAPAV1@XZ 0046d6f0 f   guisystem.obj
 0001:0006c700       ??0CGuiSystem@@AAE@XZ      0046d700 f   guisystem.obj
 0001:0006c7c0       ??_GCGuiSystem@@EAEPAXI@Z  0046d7c0 f i guisystem.obj
 0001:0006c7c0       ??_ECGuiSystem@@EAEPAXI@Z  0046d7c0 f i guisystem.obj
 0001:0006c7e0       ??1CGuiSystem@@EAE@XZ      0046d7e0 f   guisystem.obj
 0001:0006c910       ?Init@CGuiSystem@@QAEXXZ   0046d910 f   guisystem.obj
 0001:0006ca50       ?Update@CGuiSystem@@QAEXI@Z 0046da50 f   guisystem.obj
 0001:0006cad0       ?HandleMessage@CGuiSystem@@UAEXW4eGuiMessage@@II@Z 0046dad0 f   guisystem.obj
 0001:0006cca0       ?OnProjectLoadComplete@CGuiSystem@@UAEXPAVProject@Scrooby@@@Z 0046dca0 f   guisystem.obj
 0001:0006d010       ?GotoScreen@CGuiSystem@@QAEXIIII@Z 0046e010 f   guisystem.obj
 0001:0006d050       ?GetCurrentManager@CGuiSystem@@QBEPAVCGuiManager@@XZ 0046e050 f   guisystem.obj
 0001:0006d0b0       ?RegisterUserInputHandlers@CGuiSystem@@QAEXH@Z 0046e0b0 f   guisystem.obj
 0001:0006d100       ?UnregisterUserInputHandlers@CGuiSystem@@QAEXH@Z 0046e100 f   guisystem.obj
 0001:0006d150       ?GetUserInputHandler@CGuiSystem@@QBEPAVCGuiUserInputHandler@@H@Z 0046e150 f   guisystem.obj
 0001:0006d170       ?LoadData@CGuiSystem@@UAEXPBEI@Z 0046e170 f   guisystem.obj
 0001:0006d190       ?SaveData@CGuiSystem@@UAEXPAEI@Z 0046e190 f   guisystem.obj
 0001:0006d1a0       ?ResetData@CGuiSystem@@UAEXXZ 0046e1a0 f   guisystem.obj
 0001:0006d1b0       ?OnInitBootUp@CGuiSystem@@AAEXXZ 0046e1b0 f   guisystem.obj
 0001:0006d2e0       ?OnReleaseBootUp@CGuiSystem@@AAEXXZ 0046e2e0 f   guisystem.obj
 0001:0006d370       ?OnInitFrontEnd@CGuiSystem@@AAEXXZ 0046e370 f   guisystem.obj
 0001:0006d3a0       ?OnReleaseFrontEnd@CGuiSystem@@AAEXXZ 0046e3a0 f   guisystem.obj
 0001:0006d400       ?OnInitMiniGame@CGuiSystem@@AAEXXZ 0046e400 f   guisystem.obj
 0001:0006d430       ?OnReleaseMiniGame@CGuiSystem@@AAEXXZ 0046e430 f   guisystem.obj
 0001:0006d490       ?OnInitInGame@CGuiSystem@@AAEXXZ 0046e490 f   guisystem.obj
 0001:0006d510       ?OnReleaseInGame@CGuiSystem@@AAEXXZ 0046e510 f   guisystem.obj
 0001:0006d5a0       ?GetPrimaryController@CGuiSystem@@QBEHXZ 0046e5a0 f   guisystem.obj
 0001:0006d5a0       ?GetPlayerManager@daSoundRenderingManager@Sound@@QAEPAVdaSoundPlayerManager@2@XZ 0046e5a0 f   soundrenderingmanager.obj
 0001:0006d5a0       ?pMatrix@InstStatEntityDSG@@QAEPAVMatrix@RadicalMathLibrary@@XZ 0046e5a0 f   InstStatEntityDSG.obj
 0001:0006d5b0       ?SetPrimaryController@CGuiSystem@@QAEXH@Z 0046e5b0 f   guisystem.obj
 0001:0006d5c0       ??0CGuiTextBible@@QAE@XZ   0046e5c0 f   guitextbible.obj
 0001:0006d5d0       ??_ECGuiTextBible@@UAEPAXI@Z 0046e5d0 f i guitextbible.obj
 0001:0006d5d0       ??_GCGuiTextBible@@UAEPAXI@Z 0046e5d0 f i guitextbible.obj
 0001:0006d5f0       ??1CGuiTextBible@@UAE@XZ   0046e5f0 f   guitextbible.obj
 0001:0006d610       ?SetTextBible@CGuiTextBible@@QAEXPBD@Z 0046e610 f   guitextbible.obj
 0001:0006d630       ?GetLocalizedText@CGuiTextBible@@SAPAGPBD@Z 0046e630 f   guitextbible.obj
 0001:0006d640       ?SetCurrentLanguage@CGuiTextBible@@SAXW4XLLanguage@Scrooby@@@Z 0046e640 f   guitextbible.obj
 0001:0006d660       ??0CGuiUserInputHandler@@QAE@XZ 0046e660 f   guiuserinputhandler.obj
 0001:0006d6d0       ??_ECGuiUserInputHandler@@UAEPAXI@Z 0046e6d0 f i guiuserinputhandler.obj
 0001:0006d6d0       ??_GCGuiUserInputHandler@@UAEPAXI@Z 0046e6d0 f i guiuserinputhandler.obj
 0001:0006d6f0       ??1CGuiUserInputHandler@@UAE@XZ 0046e6f0 f   guiuserinputhandler.obj
 0001:0006d700       ?Left@CGuiUserInputHandler@@QAEXH@Z 0046e700 f   guiuserinputhandler.obj
 0001:0006d720       ?Right@CGuiUserInputHandler@@QAEXH@Z 0046e720 f   guiuserinputhandler.obj
 0001:0006d740       ?Up@CGuiUserInputHandler@@QAEXH@Z 0046e740 f   guiuserinputhandler.obj
 0001:0006d760       ?Down@CGuiUserInputHandler@@QAEXH@Z 0046e760 f   guiuserinputhandler.obj
 0001:0006d780       ?Start@CGuiUserInputHandler@@QAEXH@Z 0046e780 f   guiuserinputhandler.obj
 0001:0006d7a0       ?Select@CGuiUserInputHandler@@QAEXH@Z 0046e7a0 f   guiuserinputhandler.obj
 0001:0006d7c0       ?Back@CGuiUserInputHandler@@QAEXH@Z 0046e7c0 f   guiuserinputhandler.obj
 0001:0006d7e0       ?AuxX@CGuiUserInputHandler@@QAEXH@Z 0046e7e0 f   guiuserinputhandler.obj
 0001:0006d800       ?AuxY@CGuiUserInputHandler@@QAEXH@Z 0046e800 f   guiuserinputhandler.obj
 0001:0006d820       ?L1@CGuiUserInputHandler@@QAEXH@Z 0046e820 f   guiuserinputhandler.obj
 0001:0006d840       ?R1@CGuiUserInputHandler@@QAEXH@Z 0046e840 f   guiuserinputhandler.obj
 0001:0006d860       ?OnControllerDisconnect@CGuiUserInputHandler@@UAEXH@Z 0046e860 f   guiuserinputhandler.obj
 0001:0006d890       ?OnControllerConnect@CGuiUserInputHandler@@UAEXH@Z 0046e890 f   guiuserinputhandler.obj
 0001:0006d8b0       ?OnButton@CGuiUserInputHandler@@UAEXHHPBVButton@@@Z 0046e8b0 f   guiuserinputhandler.obj
 0001:0006db70       ?OnButtonUp@CGuiUserInputHandler@@UAEXHHPBVButton@@@Z 0046eb70 f   guiuserinputhandler.obj
 0001:0006db90       ?OnButtonDown@CGuiUserInputHandler@@UAEXHHPBVButton@@@Z 0046eb90 f   guiuserinputhandler.obj
 0001:0006dd00       ?LoadControllerMappings@CGuiUserInputHandler@@UAEXI@Z 0046ed00 f   guiuserinputhandler.obj
 0001:0006dd40       ?Update@CGuiUserInputHandler@@QAEXII@Z 0046ed40 f   guiuserinputhandler.obj
 0001:0006dfa0       ?IsXAxisOnLeft@CGuiUserInputHandler@@QBE_NXZ 0046efa0 f   guiuserinputhandler.obj
 0001:0006dfc0       ?IsXAxisOnRight@CGuiUserInputHandler@@QBE_NXZ 0046efc0 f   guiuserinputhandler.obj
 0001:0006dfe0       ?IsYAxisOnUp@CGuiUserInputHandler@@QBE_NXZ 0046efe0 f   guiuserinputhandler.obj
 0001:0006e000       ?IsYAxisOnDown@CGuiUserInputHandler@@QBE_NXZ 0046f000 f   guiuserinputhandler.obj
 0001:0006e020       ?ResetRepeatableButtons@CGuiUserInputHandler@@AAEXXZ 0046f020 f   guiuserinputhandler.obj
 0001:0006e090       ?CheckCursorAgainstHotspots@CGuiWindow@@UAE?AW4eFEHotspotType@@MM@Z 0046f090 f i guiwindow.obj
 0001:0006e0a0       ??0CGuiWindow@@QAE@W4eGuiWindowID@0@PAVCGuiEntity@@@Z 0046f0a0 f   guiwindow.obj
 0001:0006e0c0       ??_GCGuiWindow@@UAEPAXI@Z  0046f0c0 f i guiwindow.obj
 0001:0006e0c0       ??_ECGuiWindow@@UAEPAXI@Z  0046f0c0 f i guiwindow.obj
 0001:0006e0e0       ??1CGuiWindow@@UAE@XZ      0046f0e0 f   guiwindow.obj
 0001:0006e0f0       ?HandleMessage@CGuiWindow@@UAEXW4eGuiMessage@@II@Z 0046f0f0 f   guiwindow.obj
 0001:0006e200       ?ForceClearTransitions@CGuiWindow@@QAEXXZ 0046f200 f   guiwindow.obj
 0001:0006e210       ??0CGuiManagerBackEnd@@QAE@PAVProject@Scrooby@@PAVCGuiEntity@@@Z 0046f210 f   guimanagerbackend.obj
 0001:0006e240       ??_ECGuiManagerBackEnd@@UAEPAXI@Z 0046f240 f i guimanagerbackend.obj
 0001:0006e240       ??_GCGuiManagerBackEnd@@UAEPAXI@Z 0046f240 f i guimanagerbackend.obj
 0001:0006e260       ??1CGuiManagerBackEnd@@UAE@XZ 0046f260 f   guimanagerbackend.obj
 0001:0006e2e0       ?Populate@CGuiManagerBackEnd@@UAEXXZ 0046f2e0 f   guimanagerbackend.obj
 0001:0006e410       ?Start@CGuiManagerBackEnd@@UAEXW4eGuiWindowID@CGuiWindow@@@Z 0046f410 f   guimanagerbackend.obj
 0001:0006e420       ?HandleMessage@CGuiManagerBackEnd@@UAEXW4eGuiMessage@@II@Z 0046f420 f   guimanagerbackend.obj
 0001:0006e610       ?GotoLoadingScreen@CGuiManagerBackEnd@@AAEXI@Z 0046f610 f   guimanagerbackend.obj
 0001:0006e640       ??_ECGuiManagerBackEnd@@WBA@AEPAXI@Z 0046f640 f i guimanagerbackend.obj
 0001:0006e650       ??0CGuiScreenDemo@@QAE@PAVScreen@Scrooby@@PAVCGuiEntity@@@Z 0046f650 f   guiscreendemo.obj
 0001:0006e6e0       ??_ECGuiScreenDemo@@UAEPAXI@Z 0046f6e0 f i guiscreendemo.obj
 0001:0006e6e0       ??_GCGuiScreenDemo@@UAEPAXI@Z 0046f6e0 f i guiscreendemo.obj
 0001:0006e700       ??1CGuiScreenDemo@@UAE@XZ  0046f700 f   guiscreendemo.obj
 0001:0006e710       ?HandleMessage@CGuiScreenDemo@@UAEXW4eGuiMessage@@II@Z 0046f710 f   guiscreendemo.obj
 0001:0006e800       ?InitIntro@CGuiScreenDemo@@MAEXXZ 0046f800 f   guiscreendemo.obj
 0001:0006e830       ??0CGuiScreenLoading@@QAE@PAVScreen@Scrooby@@PAVCGuiEntity@@@Z 0046f830 f   guiscreenloading.obj
 0001:0006ead0       ??_ECGuiScreenLoading@@UAEPAXI@Z 0046fad0 f i guiscreenloading.obj
 0001:0006ead0       ??_GCGuiScreenLoading@@UAEPAXI@Z 0046fad0 f i guiscreenloading.obj
 0001:0006eaf0       ??1CGuiScreenLoading@@UAE@XZ 0046faf0 f   guiscreenloading.obj
 0001:0006eb70       ?HandleMessage@CGuiScreenLoading@@UAEXW4eGuiMessage@@II@Z 0046fb70 f   guiscreenloading.obj
 0001:0006ee60       ?LoadResources@CGuiScreenLoading@@QAEXXZ 0046fe60 f   guiscreenloading.obj
 0001:0006ef20       ?OnProcessRequestsComplete@CGuiScreenLoading@@UAEXPAX@Z 0046ff20 f   guiscreenloading.obj
 0001:0006f020       ?InitIntro@CGuiScreenLoading@@MAEXXZ 00470020 f   guiscreenloading.obj
 0001:0006f120       ?InitOutro@CGuiScreenLoading@@MAEXXZ 00470120 f   guiscreenloading.obj
 0001:0006f230       ?find@?$@VtSprite@@@p3d@@YAPAVtSprite@@PAVtEntityStore@@PBD@Z 00470230 f i guiscreenloading.obj
 0001:0006f2a0       ?find@?$@VtSprite@@@p3d@@YAPAVtSprite@@PAVtEntityStore@@ABVtName@@@Z 004702a0 f i guiscreenloading.obj
 0001:0006f360       ?safe_cast@?$SafeCast@VtSprite@@@radLoadInventory@@UAEPAUIRefCount@@PAU3@@Z 00470360 f i guiscreenloading.obj
 0001:0006f380       ??0CGuiScreenLoadingFE@@QAE@PAVScreen@Scrooby@@PAVCGuiEntity@@@Z 00470380 f   guiscreenloadingfe.obj
 0001:0006f580       ??_GCGuiScreenLoadingFE@@UAEPAXI@Z 00470580 f i guiscreenloadingfe.obj
 0001:0006f580       ??_ECGuiScreenLoadingFE@@UAEPAXI@Z 00470580 f i guiscreenloadingfe.obj
 0001:0006f5a0       ??1CGuiScreenLoadingFE@@UAE@XZ 004705a0 f   guiscreenloadingfe.obj
 0001:0006f620       ?HandleMessage@CGuiScreenLoadingFE@@UAEXW4eGuiMessage@@II@Z 00470620 f   guiscreenloadingfe.obj
 0001:0006f7f0       ?LoadResources@CGuiScreenLoadingFE@@QAEXXZ 004707f0 f   guiscreenloadingfe.obj
 0001:0006f880       ?OnProcessRequestsComplete@CGuiScreenLoadingFE@@UAEXPAX@Z 00470880 f   guiscreenloadingfe.obj
 0001:0006f990       ?InitIntro@CGuiScreenLoadingFE@@MAEXXZ 00470990 f   guiscreenloadingfe.obj
 0001:0006fa30       ?InitOutro@CGuiScreenLoadingFE@@MAEXXZ 00470a30 f   guiscreenloadingfe.obj
 0001:0006fb10       ?GetCurrentMemoryUsage@CGuiScreenLoadingFE@@ABEMW4ContextEnum@@@Z 00470b10 f   guiscreenloadingfe.obj
 0001:0006fc10       ??0CGuiManagerFrontEnd@@QAE@PAVProject@Scrooby@@PAVCGuiEntity@@@Z 00470c10 f   guimanagerfrontend.obj
 0001:0006fc50       ??_GCGuiManagerFrontEnd@@UAEPAXI@Z 00470c50 f i guimanagerfrontend.obj
 0001:0006fc50       ??_ECGuiManagerFrontEnd@@UAEPAXI@Z 00470c50 f i guimanagerfrontend.obj
 0001:0006fc70       ??1CGuiManagerFrontEnd@@UAE@XZ 00470c70 f   guimanagerfrontend.obj
 0001:0006fc90       ?Populate@CGuiManagerFrontEnd@@UAEXXZ 00470c90 f   guimanagerfrontend.obj
 0001:000705b0       ?Start@CGuiManagerFrontEnd@@UAEXW4eGuiWindowID@CGuiWindow@@@Z 004715b0 f   guimanagerfrontend.obj
 0001:00070690       ?OnControllerConnected@CGuiManagerFrontEnd@@AAEXH@Z 00471690 f   guimanagerfrontend.obj
 0001:000706e0       ?OnControllerDisconnected@CGuiManagerFrontEnd@@AAEXH@Z 004716e0 f   guimanagerfrontend.obj
 0001:00070790       ?HandleMessage@CGuiManagerFrontEnd@@UAEXW4eGuiMessage@@II@Z 00471790 f   guimanagerfrontend.obj
 0001:00070bb0       ?StartIntroMovie@CGuiManagerFrontEnd@@AAEXXZ 00471bb0 f   guimanagerfrontend.obj
 0001:00070be0       ??_ECGuiManagerFrontEnd@@WBA@AEPAXI@Z 00471be0 f i guimanagerfrontend.obj
 0001:00070bf0       ??0CGuiScreenCardGallery@@QAE@PAVScreen@Scrooby@@PAVCGuiEntity@@W4eGuiWindowID@CGuiWindow@@@Z 00471bf0 f   guiscreencardgallery.obj
 0001:000710c0       ??_GCGuiScreenCardGallery@@UAEPAXI@Z 004720c0 f i guiscreencardgallery.obj
 0001:000710c0       ??_ECGuiScreenCardGallery@@UAEPAXI@Z 004720c0 f i guiscreencardgallery.obj
 0001:000710e0       ??1CGuiScreenCardGallery@@UAE@XZ 004720e0 f   guiscreencardgallery.obj
 0001:00071170       ?HandleMessage@CGuiScreenCardGallery@@UAEXW4eGuiMessage@@II@Z 00472170 f   guiscreencardgallery.obj
 0001:00071460       ?InitIntro@CGuiScreenCardGallery@@MAEXXZ 00472460 f   guiscreencardgallery.obj
 0001:00071480       ?UpdateCards@CGuiScreenCardGallery@@IAEXI@Z 00472480 f   guiscreencardgallery.obj
 0001:00071580       ?UpdateCardTransition@CGuiScreenCardGallery@@AAEXI_N@Z 00472580 f   guiscreencardgallery.obj
 0001:00071800       ?UpdateViewCard@CGuiScreenCardGallery@@AAEXI@Z 00472800 f   guiscreencardgallery.obj
 0001:00071890       ?SetCurrentViewCard@CGuiScreenCardGallery@@AAEXI@Z 00472890 f   guiscreencardgallery.obj
 0001:000719b0       ?HasMenu@CGuiScreenMissionOver@@UAEPAVCGuiMenu@@XZ 004729b0 f i guiscreenmissionover.obj
 0001:000719b0       ?HasMenu@CGuiScreenPauseSettings@@UAEPAVCGuiMenu@@XZ 004729b0 f i guiscreenpausesettings.obj
 0001:000719b0       ?HasMenu@CGuiScreenOptions@@UAEPAVCGuiMenu@@XZ 004729b0 f i guiscreenoptions.obj
 0001:000719b0       ?HasMenu@CGuiScreenVehicleGallery@@UAEPAVCGuiMenu@@XZ 004729b0 f i guiscreenvehiclegallery.obj
 0001:000719b0       ?HasMenu@CGuiScreenController@@UAEPAVCGuiMenu@@XZ 004729b0 f i guiscreencontrollerWin32.obj
 0001:000719b0       ?HasMenu@CGuiScreenMissionGallery@@UAEPAVCGuiMenu@@XZ 004729b0 f i guiscreenmissiongallery.obj
 0001:000719b0       ?HasMenu@CGuiScreenMissionSelect@@UAEPAVCGuiMenu@@XZ 004729b0 f i guiscreenmissionselect.obj
 0001:000719b0       ?HasMenu@CGuiScreenSkinGallery@@UAEPAVCGuiMenu@@XZ 004729b0 f i guiscreenskingallery.obj
 0001:000719c0       ??0CGuiScreenController@@QAE@PAVScreen@Scrooby@@PAVCGuiEntity@@@Z 004729c0 f   guiscreencontrollerWin32.obj
 0001:00071c60       ??_GCGuiScreenController@@UAEPAXI@Z 00472c60 f i guiscreencontrollerWin32.obj
 0001:00071c60       ??_ECGuiScreenController@@UAEPAXI@Z 00472c60 f i guiscreencontrollerWin32.obj
 0001:00071c80       ??1CGuiScreenController@@UAE@XZ 00472c80 f   guiscreencontrollerWin32.obj
 0001:00071cf0       ?HandleMessage@CGuiScreenController@@UAEXW4eGuiMessage@@II@Z 00472cf0 f   guiscreencontrollerWin32.obj
 0001:00072420       ?CheckCursorAgainstHotspots@CGuiScreenController@@UAE?AW4eFEHotspotType@@MM@Z 00473420 f   guiscreencontrollerWin32.obj
 0001:00072440       ?RemapButton@CGuiScreenController@@AAEXW4eControllerColumn@1@H@Z 00473440 f   guiscreencontrollerWin32.obj
 0001:000724e0       ?InitIntro@CGuiScreenController@@MAEXXZ 004734e0 f   guiscreencontrollerWin32.obj
 0001:00072620       ?InitOutro@CGuiScreenController@@MAEXXZ 00473620 f   guiscreencontrollerWin32.obj
 0001:00072640       ?OnButtonMapped@CGuiScreenController@@UAEXPBDW4eControllerType@@HW4eDirectionType@@@Z 00473640 f   guiscreencontrollerWin32.obj
 0001:00072740       ?UpdatePageLabels@CGuiScreenController@@AAEXW4eMenuPages@1@PBD@Z 00473740 f   guiscreencontrollerWin32.obj
 0001:00072a30       ?InitPageLabels@CGuiScreenController@@AAEXW4eMenuPages@1@@Z 00473a30 f   guiscreencontrollerWin32.obj
 0001:00072cd0       ?SetGroups@CGuiScreenController@@AAEXPAPAVText@Scrooby@@HPBDPAD2H@Z 00473cd0 f   guiscreencontrollerWin32.obj
 0001:00072f10       ?SetPageVisiblility@CGuiScreenController@@AAEXPBD_N@Z 00473f10 f   guiscreencontrollerWin32.obj
 0001:00073150       ?GetVirtualKey@CGuiScreenController@@AAEHW4eMenuPages@1@H@Z 00474150 f   guiscreencontrollerWin32.obj
 0001:000732c0       ?GetAppropriateInputName@CGuiScreenController@@AAEXPADW4eControllerType@@W4eDirectionType@@H@Z 004742c0 f   guiscreencontrollerWin32.obj
 0001:00073670       ??0CGuiScreenDisplay@@QAE@PAVScreen@Scrooby@@PAVCGuiEntity@@@Z 00474670 f   guiscreendisplay.obj
 0001:00073960       ??_ECGuiScreenDisplay@@UAEPAXI@Z 00474960 f i guiscreendisplay.obj
 0001:00073960       ??_GCGuiScreenDisplay@@UAEPAXI@Z 00474960 f i guiscreendisplay.obj
 0001:00073980       ??1CGuiScreenDisplay@@UAE@XZ 00474980 f   guiscreendisplay.obj
 0001:000739f0       ?HandleMessage@CGuiScreenDisplay@@UAEXW4eGuiMessage@@II@Z 004749f0 f   guiscreendisplay.obj
 0001:00073a80       ?InitIntro@CGuiScreenDisplay@@MAEXXZ 00474a80 f   guiscreendisplay.obj
 0001:00073b20       ?InitOutro@CGuiScreenDisplay@@MAEXXZ 00474b20 f   guiscreendisplay.obj
 0001:00073b50       ?ApplySettings@CGuiScreenDisplay@@AAEXXZ 00474b50 f   guiscreendisplay.obj
 0001:00073bd0       ?HasMenu@CGuiScreenLoadGame@@UAEPAVCGuiMenu@@XZ 00474bd0 f i guiscreenloadgame.obj
 0001:00073be0       ??0CGuiScreenLoadGame@@QAE@PAVScreen@Scrooby@@PAVCGuiEntity@@W4eGuiWindowID@CGuiWindow@@@Z 00474be0 f   guiscreenloadgame.obj
 0001:00073d90       ??_ECGuiScreenLoadGame@@UAEPAXI@Z 00474d90 f i guiscreenloadgame.obj
 0001:00073d90       ??_GCGuiScreenLoadGame@@UAEPAXI@Z 00474d90 f i guiscreenloadgame.obj
 0001:00073db0       ??1CGuiScreenLoadGame@@UAE@XZ 00474db0 f   guiscreenloadgame.obj
 0001:00073e40       ?HandleMessage@CGuiScreenLoadGame@@UAEXW4eGuiMessage@@II@Z 00474e40 f   guiscreenloadgame.obj
 0001:00074290       ?OnLoadGameComplete@CGuiScreenLoadGame@@UAEXW4radFileError@@@Z 00475290 f   guiscreenloadgame.obj
 0001:000742d0       ?HandleErrorResponse@CGuiScreenLoadGame@@MAEXW4ePromptResponse@CGuiMenuPrompt@@@Z 004752d0 f   guiscreenloadgame.obj
 0001:00074380       ?InitIntro@CGuiScreenLoadGame@@MAEXXZ 00475380 f   guiscreenloadgame.obj
 0001:00074650       ?GotoMemoryCardScreen@CGuiScreenLoadGame@@MAEX_N@Z 00475650 f   guiscreenloadgame.obj
 0001:000746a0       ?LoadGame@CGuiScreenLoadGame@@MAEXXZ 004756a0 f   guiscreenloadgame.obj
 0001:000746c0       ??0CGuiScreenAutoLoad@@QAE@PAVScreen@Scrooby@@PAVCGuiEntity@@@Z 004756c0 f   guiscreenloadgame.obj
 0001:000746f0       ??_GCGuiScreenAutoLoad@@UAEPAXI@Z 004756f0 f i guiscreenloadgame.obj
 0001:000746f0       ??_ECGuiScreenAutoLoad@@UAEPAXI@Z 004756f0 f i guiscreenloadgame.obj
 0001:00074710       ??1CGuiScreenAutoLoad@@UAE@XZ 00475710 f   guiscreenloadgame.obj
 0001:00074730       ?OnLoadGameComplete@CGuiScreenAutoLoad@@UAEXW4radFileError@@@Z 00475730 f   guiscreenloadgame.obj
 0001:00074760       ?InitRunning@CGuiScreenAutoLoad@@MAEXXZ 00475760 f   guiscreenloadgame.obj
 0001:000747b0       ?HandleErrorResponse@CGuiScreenAutoLoad@@MAEXW4ePromptResponse@CGuiMenuPrompt@@@Z 004757b0 f   guiscreenloadgame.obj
 0001:000747f0       ?LoadGame@CGuiScreenAutoLoad@@MAEXXZ 004757f0 f   guiscreenloadgame.obj
 0001:00074810       ??_ECGuiScreenLoadGame@@WJI@AEPAXI@Z 00475810 f i guiscreenloadgame.obj
 0001:00074820       ?HandleMessage@CGuiScreenLoadGame@@WJI@AEXW4eGuiMessage@@II@Z 00475820 f i guiscreenloadgame.obj
 0001:00074830       ??_ECGuiScreenAutoLoad@@WJI@AEPAXI@Z 00475830 f i guiscreenloadgame.obj
 0001:00074840       ??0CGuiScreenMainMenu@@QAE@PAVScreen@Scrooby@@PAVCGuiEntity@@@Z 00475840 f   guiscreenmainmenu.obj
 0001:00074bd0       ??_ECGuiScreenMainMenu@@UAEPAXI@Z 00475bd0 f i guiscreenmainmenu.obj
 0001:00074bd0       ??_GCGuiScreenMainMenu@@UAEPAXI@Z 00475bd0 f i guiscreenmainmenu.obj
 0001:00074bf0       ??1CGuiScreenMainMenu@@UAE@XZ 00475bf0 f   guiscreenmainmenu.obj
 0001:00074cb0       ?HandleMessage@CGuiScreenMainMenu@@UAEXW4eGuiMessage@@II@Z 00475cb0 f   guiscreenmainmenu.obj
 0001:000750c0       ?InitMenu@CGuiScreenMainMenu@@QAEXXZ 004760c0 f   guiscreenmainmenu.obj
 0001:00075110       ?InitIntro@CGuiScreenMainMenu@@MAEXXZ 00476110 f   guiscreenmainmenu.obj
 0001:00075140       ?InitRunning@CGuiScreenMainMenu@@MAEXXZ 00476140 f   guiscreenmainmenu.obj
 0001:00075190       ?InitOutro@CGuiScreenMainMenu@@MAEXXZ 00476190 f   guiscreenmainmenu.obj
 0001:000751c0       ?UpdateIntro@CGuiScreenMainMenu@@IAEXI@Z 004761c0 f   guiscreenmainmenu.obj
 0001:00075220       ?UpdateRunning@CGuiScreenMainMenu@@IAEXI@Z 00476220 f   guiscreenmainmenu.obj
 0001:00075240       ?UpdateOutro@CGuiScreenMainMenu@@IAEXI@Z 00476240 f   guiscreenmainmenu.obj
 0001:000753c0       ?UpdateGags@CGuiScreenMainMenu@@AAEXI@Z 004763c0 f   guiscreenmainmenu.obj
 0001:00075710       ?TurnOnGlowItems@CGuiScreenMainMenu@@AAEXI@Z 00476710 f   guiscreenmainmenu.obj
 0001:00075790       ?OnNewGameSelected@CGuiScreenMainMenu@@AAEXW4LevelEnum@RenderEnums@@W4MissionEnum@3@@Z 00476790 f   guiscreenmainmenu.obj
 0001:00075840       ?OnResumeGameSelected@CGuiScreenMainMenu@@AAEXXZ 00476840 f   guiscreenmainmenu.obj
 0001:00075870       ?OnMiniGameSelected@CGuiScreenMainMenu@@AAEXXZ 00476870 f   guiscreenmainmenu.obj
 0001:000758a0       ?ToggleLevelMenu@CGuiScreenMainMenu@@AAEXXZ 004768a0 f   guiscreenmainmenu.obj
 0001:00075910       ??0CGuiScreenIntroTransition@@QAE@PAVScreen@Scrooby@@PAVCGuiEntity@@@Z 00476910 f   guiscreenmainmenu.obj
 0001:000759e0       ??_ECGuiScreenIntroTransition@@UAEPAXI@Z 004769e0 f i guiscreenmainmenu.obj
 0001:000759e0       ??_GCGuiScreenIntroTransition@@UAEPAXI@Z 004769e0 f i guiscreenmainmenu.obj
 0001:00075a00       ??1CGuiScreenIntroTransition@@UAE@XZ 00476a00 f   guiscreenmainmenu.obj
 0001:00075a10       ?HandleMessage@CGuiScreenIntroTransition@@UAEXW4eGuiMessage@@II@Z 00476a10 f   guiscreenmainmenu.obj
 0001:00075b80       ?InitIntro@CGuiScreenIntroTransition@@MAEXXZ 00476b80 f   guiscreenmainmenu.obj
 0001:00075bd0       ?InitRunning@CGuiScreenIntroTransition@@MAEXXZ 00476bd0 f   guiscreenmainmenu.obj
 0001:00075c20       ??0CGuiScreenMissionGallery@@QAE@PAVScreen@Scrooby@@PAVCGuiEntity@@@Z 00476c20 f   guiscreenmissiongallery.obj
 0001:00075f50       ??_ECGuiScreenMissionGallery@@UAEPAXI@Z 00476f50 f i guiscreenmissiongallery.obj
 0001:00075f50       ??_GCGuiScreenMissionGallery@@UAEPAXI@Z 00476f50 f i guiscreenmissiongallery.obj
 0001:00075f70       ??1CGuiScreenMissionGallery@@UAE@XZ 00476f70 f   guiscreenmissiongallery.obj
 0001:00076000       ?HandleMessage@CGuiScreenMissionGallery@@UAEXW4eGuiMessage@@II@Z 00477000 f   guiscreenmissiongallery.obj
 0001:000761b0       ?OnProcessRequestsComplete@CGuiScreenMissionGallery@@UAEXPAX@Z 004771b0 f   guiscreenmissiongallery.obj
 0001:00076360       ?InitIntro@CGuiScreenMissionGallery@@MAEXXZ 00477360 f   guiscreenmissiongallery.obj
 0001:00076380       ?InitRunning@CGuiScreenMissionGallery@@MAEXXZ 00477380 f   guiscreenmissiongallery.obj
 0001:000763c0       ?OnUpdate@CGuiScreenMissionGallery@@AAEXI@Z 004773c0 f   guiscreenmissiongallery.obj
 0001:00076800       ?SetMenuAlpha@CGuiScreenMissionGallery@@AAEXM@Z 00477800 f   guiscreenmissiongallery.obj
 0001:00076850       ?OnMenuSelectionMade@CGuiScreenMissionGallery@@AAEXH@Z 00477850 f   guiscreenmissiongallery.obj
 0001:00076980       ?OnStartMission@CGuiScreenMissionGallery@@AAEXXZ 00477980 f   guiscreenmissiongallery.obj
 0001:000769e0       ?LoadMissionImages@CGuiScreenMissionGallery@@AAEHXZ 004779e0 f   guiscreenmissiongallery.obj
 0001:00076ba0       ?UnloadMissionImages@CGuiScreenMissionGallery@@AAEXXZ 00477ba0 f   guiscreenmissiongallery.obj
 0001:00076c50       ?SetVisibilityForAllOtherMenuItems@CGuiScreenMissionGallery@@AAEX_N@Z 00477c50 f   guiscreenmissiongallery.obj
 0001:00076c90       ??0CGuiScreenOptions@@QAE@PAVScreen@Scrooby@@PAVCGuiEntity@@@Z 00477c90 f   guiscreenoptions.obj
 0001:00076f80       ??_GCGuiScreenOptions@@UAEPAXI@Z 00477f80 f i guiscreenoptions.obj
 0001:00076f80       ??_ECGuiScreenOptions@@UAEPAXI@Z 00477f80 f i guiscreenoptions.obj
 0001:00076fa0       ??1CGuiScreenOptions@@UAE@XZ 00477fa0 f   guiscreenoptions.obj
 0001:00077020       ?HandleMessage@CGuiScreenOptions@@UAEXW4eGuiMessage@@II@Z 00478020 f   guiscreenoptions.obj
 0001:00077300       ?OnCheatEntered@CGuiScreenOptions@@UAEXW4eCheatID@@_N@Z 00478300 f   guiscreenoptions.obj
 0001:00077340       ?InitIntro@CGuiScreenOptions@@MAEXXZ 00478340 f   guiscreenoptions.obj
 0001:00077370       ?InitOutro@CGuiScreenPauseOptions@@MAEXXZ 00478370 f   guiscreenpauseoptions.obj
 0001:00077370       ?InitOutro@CGuiScreenOptions@@MAEXXZ 00478370 f   guiscreenoptions.obj
 0001:00077380       ?UpdateCheatsDisplay@CGuiScreenOptions@@AAEXH@Z 00478380 f   guiscreenoptions.obj
 0001:000774c0       ?ProgressiveModeTestBegin@CGuiScreenOptions@@AAEXXZ 004784c0 f   guiscreenoptions.obj
 0001:000774e0       ?OnProgressiveModeTestEnd@CGuiScreenOptions@@AAEXXZ 004784e0 f   guiscreenoptions.obj
 0001:00077500       ??0CGuiScreenPlayMovie@@QAE@PAVScreen@Scrooby@@PAVCGuiEntity@@W4eGuiWindowID@CGuiWindow@@@Z 00478500 f   guiscreenplaymovie.obj
 0001:000775b0       ??_GCGuiScreenPlayMovie@@UAEPAXI@Z 004785b0 f i guiscreenplaymovie.obj
 0001:000775b0       ??_ECGuiScreenPlayMovie@@UAEPAXI@Z 004785b0 f i guiscreenplaymovie.obj
 0001:000775d0       ??1CGuiScreenPlayMovie@@UAE@XZ 004785d0 f   guiscreenplaymovie.obj
 0001:000775f0       ?HandleMessage@CGuiScreenPlayMovie@@UAEXW4eGuiMessage@@II@Z 004785f0 f   guiscreenplaymovie.obj
 0001:000776a0       ?SetMovieToPlay@CGuiScreenPlayMovie@@QAEXPBD_N11@Z 004786a0 f   guiscreenplaymovie.obj
 0001:00077730       ?OnPresentationEventBegin@CGuiScreenPlayMovie@@UAEXPAVPresentationEvent@@@Z 00478730 f   guiscreenplaymovie.obj
 0001:00077750       ?OnPresentationEventEnd@CGuiScreenPlayMovie@@UAEXPAVPresentationEvent@@@Z 00478750 f   guiscreenplaymovie.obj
 0001:00077800       ?InitIntro@CGuiScreenPlayMovie@@MAEXXZ 00478800 f   guiscreenplaymovie.obj
 0001:00077840       ?InitRunning@CGuiScreenPlayMovie@@MAEXXZ 00478840 f   guiscreenplaymovie.obj
 0001:00077880       ?InitOutro@CGuiScreenPlayMovie@@MAEXXZ 00478880 f   guiscreenplaymovie.obj
 0001:000778e0       ??0CGuiScreenScrapBook@@QAE@PAVScreen@Scrooby@@PAVCGuiEntity@@@Z 004788e0 f   guiscreenscrapbook.obj
 0001:00077a40       ??_GCGuiScreenScrapBook@@UAEPAXI@Z 00478a40 f i guiscreenscrapbook.obj
 0001:00077a40       ??_ECGuiScreenScrapBook@@UAEPAXI@Z 00478a40 f i guiscreenscrapbook.obj
 0001:00077a60       ??1CGuiScreenScrapBook@@UAE@XZ 00478a60 f   guiscreenscrapbook.obj
 0001:00077ad0       ?HandleMessage@CGuiScreenScrapBook@@UAEXW4eGuiMessage@@II@Z 00478ad0 f   guiscreenscrapbook.obj
 0001:00077b30       ?InitIntro@CGuiScreenScrapBook@@MAEXXZ 00478b30 f   guiscreenscrapbook.obj
 0001:00077b70       ?OnMenuSelectionMade@CGuiScreenScrapBook@@AAEXW4eMenuItem@1@@Z 00478b70 f   guiscreenscrapbook.obj
 0001:00077bc0       ??0CGuiScreenScrapBookContents@@QAE@PAVScreen@Scrooby@@PAVCGuiEntity@@@Z 00478bc0 f   guiscreenscrapbookcontents.obj
 0001:000780f0       ??_GCGuiScreenScrapBookContents@@UAEPAXI@Z 004790f0 f i guiscreenscrapbookcontents.obj
 0001:000780f0       ??_ECGuiScreenScrapBookContents@@UAEPAXI@Z 004790f0 f i guiscreenscrapbookcontents.obj
 0001:00078110       ??1CGuiScreenScrapBookContents@@UAE@XZ 00479110 f   guiscreenscrapbookcontents.obj
 0001:00078180       ?CheckCursorAgainstHotspots@CGuiScreenScrapBookContents@@UAE?AW4eFEHotspotType@@MM@Z 00479180 f   guiscreenscrapbookcontents.obj
 0001:000781f0       ?HandleMessage@CGuiScreenScrapBookContents@@UAEXW4eGuiMessage@@II@Z 004791f0 f   guiscreenscrapbookcontents.obj
 0001:00078410       ?SetLevelBarVisible@CGuiScreenScrapBookContents@@QAEX_N@Z 00479410 f   guiscreenscrapbookcontents.obj
 0001:00078430       ?InitIntro@CGuiScreenScrapBookContents@@MAEXXZ 00479430 f   guiscreenscrapbookcontents.obj
 0001:00078470       ?InitRunning@CGuiScreenScrapBookContents@@MAEXXZ 00479470 f   guiscreenscrapbookcontents.obj
 0001:00078480       ?OnLevelSelectionChange@CGuiScreenScrapBookContents@@AAEXH@Z 00479480 f   guiscreenscrapbookcontents.obj
 0001:000786c0       ?OnMenuSelectionMade@CGuiScreenScrapBookContents@@AAEXW4eMenuItem@1@@Z 004796c0 f   guiscreenscrapbookcontents.obj
 0001:00078750       ??0CGuiScreenScrapBookStats@@QAE@PAVScreen@Scrooby@@PAVCGuiEntity@@@Z 00479750 f   guiscreenscrapbookstats.obj
 0001:00078940       ??_ECGuiScreenScrapBookStats@@UAEPAXI@Z 00479940 f i guiscreenscrapbookstats.obj
 0001:00078940       ??_GCGuiScreenScrapBookStats@@UAEPAXI@Z 00479940 f i guiscreenscrapbookstats.obj
 0001:00078960       ??1CGuiScreenScrapBookStats@@UAE@XZ 00479960 f   guiscreenscrapbookstats.obj
 0001:00078970       ?HandleMessage@CGuiScreenScrapBookStats@@UAEXW4eGuiMessage@@II@Z 00479970 f   guiscreenscrapbookstats.obj
 0001:000789b0       ?InitIntro@CGuiScreenScrapBookStats@@MAEXXZ 004799b0 f   guiscreenscrapbookstats.obj
 0001:00078cc0       ??0CGuiScreenSkinGallery@@QAE@PAVScreen@Scrooby@@PAVCGuiEntity@@@Z 00479cc0 f   guiscreenskingallery.obj
 0001:00078f50       ??_GCGuiScreenSkinGallery@@UAEPAXI@Z 00479f50 f i guiscreenskingallery.obj
 0001:00078f50       ??_ECGuiScreenSkinGallery@@UAEPAXI@Z 00479f50 f i guiscreenskingallery.obj
 0001:00078f70       ??1CGuiScreenSkinGallery@@UAE@XZ 00479f70 f   guiscreenskingallery.obj
 0001:00079000       ?HandleMessage@CGuiScreenSkinGallery@@UAEXW4eGuiMessage@@II@Z 0047a000 f   guiscreenskingallery.obj
 0001:00079100       ?OnProcessRequestsComplete@CGuiScreenSkinGallery@@UAEXPAX@Z 0047a100 f   guiscreenskingallery.obj
 0001:00079280       ?InitIntro@CGuiScreenSkinGallery@@MAEXXZ 0047a280 f   guiscreenskingallery.obj
 0001:00079320       ?InitOutro@CGuiScreenSkinGallery@@MAEXXZ 0047a320 f   guiscreenskingallery.obj
 0001:00079350       ?OnUpdate@CGuiScreenSkinGallery@@AAEXI@Z 0047a350 f   guiscreenskingallery.obj
 0001:000797a0       ?OnMenuSelectionChange@CGuiScreenSkinGallery@@AAEXH@Z 0047a7a0 f   guiscreenskingallery.obj
 0001:00079820       ?OnMenuSelectionMade@CGuiScreenSkinGallery@@AAEXH@Z 0047a820 f   guiscreenskingallery.obj
 0001:000799f0       ?SetMenuAlpha@CGuiScreenSkinGallery@@AAEXM@Z 0047a9f0 f   guiscreenskingallery.obj
 0001:00079a40       ?Load2DImages@CGuiScreenSkinGallery@@AAEXXZ 0047aa40 f   guiscreenskingallery.obj
 0001:00079bc0       ?Unload2DImages@CGuiScreenSkinGallery@@AAEXXZ 0047abc0 f   guiscreenskingallery.obj
 0001:00079c50       ?SetVisibilityForAllOtherMenuItems@CGuiScreenSkinGallery@@AAEX_N@Z 0047ac50 f   guiscreenskingallery.obj
 0001:00079c90       ??0CGuiScreenSound@@QAE@PAVScreen@Scrooby@@PAVCGuiEntity@@@Z 0047ac90 f   guiscreensound.obj
 0001:00079fa0       ??_ECGuiScreenSound@@UAEPAXI@Z 0047afa0 f i guiscreensound.obj
 0001:00079fa0       ??_GCGuiScreenSound@@UAEPAXI@Z 0047afa0 f i guiscreensound.obj
 0001:00079fc0       ??1CGuiScreenSound@@UAE@XZ 0047afc0 f   guiscreensound.obj
 0001:0007a030       ?HandleMessage@CGuiScreenSound@@UAEXW4eGuiMessage@@II@Z 0047b030 f   guiscreensound.obj
 0001:0007a1f0       ?InitIntro@CGuiScreenSound@@MAEXXZ 0047b1f0 f   guiscreensound.obj
 0001:0007a360       ?InitOutro@CGuiScreenSound@@MAEXXZ 0047b360 f   guiscreensound.obj
 0001:0007a370       ??0CGuiScreenSplash@@QAE@PAVScreen@Scrooby@@PAVCGuiEntity@@@Z 0047b370 f   guiscreensplash.obj
 0001:0007a4c0       ??_GCGuiScreenSplash@@UAEPAXI@Z 0047b4c0 f i guiscreensplash.obj
 0001:0007a4c0       ??_ECGuiScreenSplash@@UAEPAXI@Z 0047b4c0 f i guiscreensplash.obj
 0001:0007a4e0       ??1CGuiScreenSplash@@UAE@XZ 0047b4e0 f   guiscreensplash.obj
 0001:0007a550       ?HandleMessage@CGuiScreenSplash@@UAEXW4eGuiMessage@@II@Z 0047b550 f   guiscreensplash.obj
 0001:0007a720       ?InitRunning@CGuiScreenSplash@@MAEXXZ 0047b720 f   guiscreensplash.obj
 0001:0007a730       ?StartDemoInRuntime@CGuiScreenSplash@@AAEXXZ 0047b730 f   guiscreensplash.obj
 0001:0007a740       ??0CGuiScreenVehicleGallery@@QAE@PAVScreen@Scrooby@@PAVCGuiEntity@@@Z 0047b740 f   guiscreenvehiclegallery.obj
 0001:0007a9e0       ??_GCGuiScreenVehicleGallery@@UAEPAXI@Z 0047b9e0 f i guiscreenvehiclegallery.obj
 0001:0007a9e0       ??_ECGuiScreenVehicleGallery@@UAEPAXI@Z 0047b9e0 f i guiscreenvehiclegallery.obj
 0001:0007aa00       ??1CGuiScreenVehicleGallery@@UAE@XZ 0047ba00 f   guiscreenvehiclegallery.obj
 0001:0007aa90       ?HandleMessage@CGuiScreenVehicleGallery@@UAEXW4eGuiMessage@@II@Z 0047ba90 f   guiscreenvehiclegallery.obj
 0001:0007ab90       ?OnProcessRequestsComplete@CGuiScreenVehicleGallery@@UAEXPAX@Z 0047bb90 f   guiscreenvehiclegallery.obj
 0001:0007ad10       ?InitIntro@CGuiScreenVehicleGallery@@MAEXXZ 0047bd10 f   guiscreenvehiclegallery.obj
 0001:0007ad50       ?InitOutro@CGuiScreenVehicleGallery@@MAEXXZ 0047bd50 f   guiscreenvehiclegallery.obj
 0001:0007ad80       ?OnUpdate@CGuiScreenVehicleGallery@@AAEXI@Z 0047bd80 f   guiscreenvehiclegallery.obj
 0001:0007b1d0       ?OnMenuSelectionChange@CGuiScreenVehicleGallery@@AAEXH@Z 0047c1d0 f   guiscreenvehiclegallery.obj
 0001:0007b250       ?OnMenuSelectionMade@CGuiScreenVehicleGallery@@AAEXH@Z 0047c250 f   guiscreenvehiclegallery.obj
 0001:0007b420       ?SetMenuAlpha@CGuiScreenVehicleGallery@@AAEXM@Z 0047c420 f   guiscreenvehiclegallery.obj
 0001:0007b470       ?Load2DImages@CGuiScreenVehicleGallery@@AAEXXZ 0047c470 f   guiscreenvehiclegallery.obj
 0001:0007b6f0       ?Unload2DImages@CGuiScreenVehicleGallery@@AAEXXZ 0047c6f0 f   guiscreenvehiclegallery.obj
 0001:0007b780       ?SetVisibilityForAllOtherMenuItems@CGuiScreenVehicleGallery@@AAEX_N@Z 0047c780 f   guiscreenvehiclegallery.obj
 0001:0007b7c0       ??0CGuiScreenViewCredits@@QAE@PAVScreen@Scrooby@@PAVCGuiEntity@@@Z 0047c7c0 f   guiscreenviewcredits.obj
 0001:0007ba10       ??_GCGuiScreenViewCredits@@UAEPAXI@Z 0047ca10 f i guiscreenviewcredits.obj
 0001:0007ba10       ??_ECGuiScreenViewCredits@@UAEPAXI@Z 0047ca10 f i guiscreenviewcredits.obj
 0001:0007ba30       ??1CGuiScreenViewCredits@@UAE@XZ 0047ca30 f   guiscreenviewcredits.obj
 0001:0007ba40       ?HandleMessage@CGuiScreenViewCredits@@UAEXW4eGuiMessage@@II@Z 0047ca40 f   guiscreenviewcredits.obj
 0001:0007bb90       ?InitIntro@CGuiScreenViewCredits@@MAEXXZ 0047cb90 f   guiscreenviewcredits.obj
 0001:0007bc10       ?InitRunning@CGuiScreenViewCredits@@MAEXXZ 0047cc10 f   guiscreenviewcredits.obj
 0001:0007bc30       ?InitOutro@CGuiScreenViewCredits@@MAEXXZ 0047cc30 f   guiscreenviewcredits.obj
 0001:0007bc70       ?ResetScrolling@CGuiScreenViewCredits@@IAEXXZ 0047cc70 f   guiscreenviewcredits.obj
 0001:0007bca0       ?FormatTextWithLineBreaks@CGuiScreenViewCredits@@AAEMPAVText@Scrooby@@@Z 0047cca0 f   guiscreenviewcredits.obj
 0001:0007bd30       ?ScrollCredits@CGuiScreenViewCredits@@AAE_NM@Z 0047cd30 f   guiscreenviewcredits.obj
 0001:0007be10       ?OnScrollingDone@CGuiScreenViewCredits@@EAEXXZ 0047ce10 f   guiscreenviewcredits.obj
 0001:0007be70       ?OnNewLineDisplayed@CGuiScreenViewCredits@@AAEXH@Z 0047ce70 f   guiscreenviewcredits.obj
 0001:0007bea0       ??0CGuiScreenViewMovies@@QAE@PAVScreen@Scrooby@@PAVCGuiEntity@@@Z 0047cea0 f   guiscreenviewmovies.obj
 0001:0007bfb0       ??_GCGuiScreenViewMovies@@UAEPAXI@Z 0047cfb0 f i guiscreenviewmovies.obj
 0001:0007bfb0       ??_ECGuiScreenViewMovies@@UAEPAXI@Z 0047cfb0 f i guiscreenviewmovies.obj
 0001:0007bfd0       ??1CGuiScreenViewMovies@@UAE@XZ 0047cfd0 f   guiscreenviewmovies.obj
 0001:0007c040       ?HandleMessage@CGuiScreenViewMovies@@UAEXW4eGuiMessage@@II@Z 0047d040 f   guiscreenviewmovies.obj
 0001:0007c0f0       ?InitIntro@CGuiScreenViewMovies@@MAEXXZ 0047d0f0 f   guiscreenviewmovies.obj
 0001:0007c150       ?IsHudScreen@CGuiManagerInGame@@ABE_NW4eGuiWindowID@CGuiWindow@@@Z 0047d150 f i guimanageringame.obj
 0001:0007c170       ??0CGuiManagerInGame@@QAE@PAVProject@Scrooby@@PAVCGuiEntity@@@Z 0047d170 f   guimanageringame.obj
 0001:0007c3c0       ??_GCGuiManagerInGame@@UAEPAXI@Z 0047d3c0 f i guimanageringame.obj
 0001:0007c3c0       ??_ECGuiManagerInGame@@UAEPAXI@Z 0047d3c0 f i guimanageringame.obj
 0001:0007c3e0       ??1CGuiManagerInGame@@UAE@XZ 0047d3e0 f   guimanageringame.obj
 0001:0007c450       ?Populate@CGuiManagerInGame@@UAEXXZ 0047d450 f   guimanageringame.obj
 0001:0007cd50       ?Start@CGuiManagerInGame@@UAEXW4eGuiWindowID@CGuiWindow@@@Z 0047dd50 f   guimanageringame.obj
 0001:0007cd90       ?HandleMessage@CGuiManagerInGame@@UAEXW4eGuiMessage@@II@Z 0047dd90 f   guimanageringame.obj
 0001:0007d5b0       ?HandleEvent@CGuiManagerInGame@@UAEXW4EventEnum@@PAX@Z 0047e5b0 f   guimanageringame.obj
 0001:0007d740       ?OnProjectLoadComplete@CGuiManagerInGame@@UAEXPAVProject@Scrooby@@@Z 0047e740 f   guimanageringame.obj
 0001:0007d770       ?OnMemcardInfoLoadComplete@CGuiManagerInGame@@UAEXXZ 0047e770 f   guimanageringame.obj
 0001:0007d790       ?UpdateDuringMissionLoading@CGuiManagerInGame@@AAEXI@Z 0047e790 f   guimanageringame.obj
 0001:0007d7b0       ?UpdateWhileLoadingNotDone@CGuiManagerInGame@@AAEXI@Z 0047e7b0 f   guimanageringame.obj
 0001:0007d7f0       ?GotoPauseScreen@CGuiManagerInGame@@AAEXXZ 0047e7f0 f   guimanageringame.obj
 0001:0007d840       ?GotoHUDScreen@CGuiManagerInGame@@AAEXXZ 0047e840 f   guimanageringame.obj
 0001:0007d960       ?ResumeGame@CGuiManagerInGame@@AAEXII@Z 0047e960 f   guimanageringame.obj
 0001:0007d9a0       ?QuitGame@CGuiManagerInGame@@AAEXXZ 0047e9a0 f   guimanageringame.obj
 0001:0007da20       ?OnControllerDisconnected@CGuiManagerInGame@@AAEXH@Z 0047ea20 f   guimanageringame.obj
 0001:0007daa0       ?OnControllerConnected@CGuiManagerInGame@@AAEXH@Z 0047eaa0 f   guimanageringame.obj
 0001:0007daf0       ?OnNewMissionLoadBegin@CGuiManagerInGame@@AAEXXZ 0047eaf0 f   guimanageringame.obj
 0001:0007db50       ?OnNewMissionLoadEnd@CGuiManagerInGame@@AAEXXZ 0047eb50 f   guimanageringame.obj
 0001:0007dba0       ?IsPausingAllowed@CGuiManagerInGame@@ABE_NXZ 0047eba0 f   guimanageringame.obj
 0001:0007dc10       ?Activate@AbortCurrentMission@GuiSFX@@UAEXXZ 0047ec10 f   guimanageringame.obj
 0001:0007dc40       ?Activate@RestartCurrentMission@GuiSFX@@UAEXXZ 0047ec40 f   guimanageringame.obj
 0001:0007dc60       ??_ECGuiManagerInGame@@WBA@AEPAXI@Z 0047ec60 f i guimanageringame.obj
 0001:0007dc70       ??0CGuiScreenCreditsPostFMV@@QAE@PAVScreen@Scrooby@@PAVCGuiEntity@@@Z 0047ec70 f   guiscreencreditspostfmv.obj
 0001:0007dd40       ??_GCGuiScreenCreditsPostFMV@@UAEPAXI@Z 0047ed40 f i guiscreencreditspostfmv.obj
 0001:0007dd40       ??_ECGuiScreenCreditsPostFMV@@UAEPAXI@Z 0047ed40 f i guiscreencreditspostfmv.obj
 0001:0007dd60       ??1CGuiScreenCreditsPostFMV@@UAE@XZ 0047ed60 f   guiscreencreditspostfmv.obj
 0001:0007ddd0       ?HandleMessage@CGuiScreenCreditsPostFMV@@UAEXW4eGuiMessage@@II@Z 0047edd0 f   guiscreencreditspostfmv.obj
 0001:0007de10       ?InitIntro@CGuiScreenCreditsPostFMV@@MAEXXZ 0047ee10 f   guiscreencreditspostfmv.obj
 0001:0007de60       ?InitRunning@CGuiScreenCreditsPostFMV@@MAEXXZ 0047ee60 f   guiscreencreditspostfmv.obj
 0001:0007de80       ?InitOutro@CGuiScreenCreditsPostFMV@@MAEXXZ 0047ee80 f   guiscreencreditspostfmv.obj
 0001:0007dea0       ?OnScrollingDone@CGuiScreenCreditsPostFMV@@EAEXXZ 0047eea0 f   guiscreencreditspostfmv.obj
 0001:0007deb0       ??0CGuiScreenHasTransitions@@QAE@XZ 0047eeb0 f   guiscreenhastransitions.obj
 0001:0007ded0       ?AddTransition@CGuiScreenHasTransitions@@IAEXAAVTransition@GuiSFX@@@Z 0047eed0 f   guiscreenhastransitions.obj
 0001:0007def0       ?DoneAddingTransitions@CGuiScreenHasTransitions@@IAEXXZ 0047eef0 f   guiscreenhastransitions.obj
 0001:0007df00       ?ResetMovableObjects@CGuiScreenHasTransitions@@IAEXXZ 0047ef00 f   guiscreenhastransitions.obj
 0001:0007df40       ?ResetTransitions@CGuiScreenHasTransitions@@IAEXXZ 0047ef40 f   guiscreenhastransitions.obj
 0001:0007df60       ?UpdateTransitions@CGuiScreenHasTransitions@@IAEXM@Z 0047ef60 f   guiscreenhastransitions.obj
 0001:0007df90       ??0MessageQueue@@QAE@XZ    0047ef90 f   guiscreenhud.obj
 0001:0007dfb0       ??_GMessageQueue@@UAEPAXI@Z 0047efb0 f i guiscreenhud.obj
 0001:0007dfb0       ??_EMessageQueue@@UAEPAXI@Z 0047efb0 f i guiscreenhud.obj
 0001:0007dfd0       ??1MessageQueue@@UAE@XZ    0047efd0 f   guiscreenhud.obj
 0001:0007dfe0       ?Enqueue@MessageQueue@@QAEXI@Z 0047efe0 f   guiscreenhud.obj
 0001:0007e020       ?Dequeue@MessageQueue@@QAEIXZ 0047f020 f   guiscreenhud.obj
 0001:0007e060       ??0CGuiScreenHud@@QAE@PAVScreen@Scrooby@@PAVCGuiEntity@@@Z 0047f060 f   guiscreenhud.obj
 0001:0007ec30       ??_ECGuiScreenHud@@UAEPAXI@Z 0047fc30 f i guiscreenhud.obj
 0001:0007ec30       ??_GCGuiScreenHud@@UAEPAXI@Z 0047fc30 f i guiscreenhud.obj
 0001:0007ec50       ??1CGuiScreenHud@@UAE@XZ   0047fc50 f   guiscreenhud.obj
 0001:0007ed10       ?HandleMessage@CGuiScreenHud@@UAEXW4eGuiMessage@@II@Z 0047fd10 f   guiscreenhud.obj
 0001:0007f100       ?Update@CGuiScreenHud@@QAEXI@Z 00480100 f   guiscreenhud.obj
 0001:0007f430       ?SetVisible@CGuiScreenHud@@QAEX_N@Z 00480430 f   guiscreenhud.obj
 0001:0007f4a0       ?SetTimerBlinkingInterval@CGuiScreenHud@@QAEXHH@Z 004804a0 f   guiscreenhud.obj
 0001:0007f4b0       ?SetParTime@CGuiScreenHud@@QAEXH@Z 004804b0 f   guiscreenhud.obj
 0001:0007f510       ?SetCollectibles@CGuiScreenHud@@QAEXHH@Z 00480510 f   guiscreenhud.obj
 0001:0007f580       ?SetRacePosition@CGuiScreenHud@@QAEXHH@Z 00480580 f   guiscreenhud.obj
 0001:0007f650       ?SetLap@CGuiScreenHud@@QAEXHH@Z 00480650 f   guiscreenhud.obj
 0001:0007f6f0       ?SetDamageMeter@CGuiScreenHud@@QAEXM@Z 004806f0 f   guiscreenhud.obj
 0001:0007f710       ?SetProximityMeter@CGuiScreenHud@@QAEXM@Z 00480710 f   guiscreenhud.obj
 0001:0007f730       ?SetHitAndRunMeter@CGuiScreenHud@@QAEXM@Z 00480730 f   guiscreenhud.obj
 0001:0007f8a0       ?DisplayMessage@CGuiScreenHud@@QAEX_NH@Z 004808a0 f   guiscreenhud.obj
 0001:0007f990       ?HandleEvent@CGuiScreenHud@@UAEXW4EventEnum@@PAX@Z 00480990 f   guiscreenhud.obj
 0001:0007fca0       ?SetNumCoinsDisplay@CGuiScreenHud@@SAXPAVSprite@Scrooby@@@Z 00480ca0 f   guiscreenhud.obj
 0001:0007fd20       ?UpdateNumCoinsDisplay@CGuiScreenHud@@SAXH_N@Z 00480d20 f   guiscreenhud.obj
 0001:0007fdd0       ?InitIntro@CGuiScreenHud@@MAEXXZ 00480dd0 f   guiscreenhud.obj
 0001:0007fe70       ?InitRunning@CGuiScreenHud@@MAEXXZ 00480e70 f   guiscreenhud.obj
 0001:0007feb0       ?InitOutro@CGuiScreenHud@@MAEXXZ 00480eb0 f   guiscreenhud.obj
 0001:0007fee0       ?UpdateOverlays@CGuiScreenHud@@AAEXI@Z 00480ee0 f   guiscreenhud.obj
 0001:000802e0       ?UpdateEventHandlers@CGuiScreenHud@@AAEXI@Z 004812e0 f   guiscreenhud.obj
 0001:00080320       ?UpdateTimer@CGuiScreenHud@@AAEXI@Z 00481320 f   guiscreenhud.obj
 0001:00080510       ?AbortFade@CGuiScreenHud@@QAEXXZ 00481510 f   guiscreenhud.obj
 0001:00080540       ??_ECGuiScreenHud@@WCEE@AEPAXI@Z 00481540 f i guiscreenhud.obj
 0001:00080550       ??0CGuiScreenIrisWipe@@QAE@PAVScreen@Scrooby@@PAVCGuiEntity@@@Z 00481550 f   guiscreeniriswipe.obj
 0001:00080670       ??_GCGuiScreenIrisWipe@@UAEPAXI@Z 00481670 f i guiscreeniriswipe.obj
 0001:00080670       ??_ECGuiScreenIrisWipe@@UAEPAXI@Z 00481670 f i guiscreeniriswipe.obj
 0001:00080690       ??1CGuiScreenIrisWipe@@UAE@XZ 00481690 f   guiscreeniriswipe.obj
 0001:000806a0       ?DoNotOpenOnNextOutro@CGuiScreenIrisWipe@@SAXXZ 004816a0 f   guiscreeniriswipe.obj
 0001:000806b0       ?HandleMessage@CGuiScreenIrisWipe@@UAEXW4eGuiMessage@@II@Z 004816b0 f   guiscreeniriswipe.obj
 0001:00080840       ?InitIntro@CGuiScreenIrisWipe@@MAEXXZ 00481840 f   guiscreeniriswipe.obj
 0001:000808e0       ?InitRunning@CGuiScreenIrisWipe@@MAEXXZ 004818e0 f   guiscreeniriswipe.obj
 0001:000808f0       ?InitOutro@CGuiScreenIrisWipe@@MAEXXZ 004818f0 f   guiscreeniriswipe.obj
 0001:000809a0       ??0CGuiScreenLetterBox@@QAE@PAVScreen@Scrooby@@PAVCGuiEntity@@@Z 004819a0 f   guiscreenletterbox.obj
 0001:00080e20       ??_GCGuiScreenLetterBox@@UAEPAXI@Z 00481e20 f i guiscreenletterbox.obj
 0001:00080e20       ??_ECGuiScreenLetterBox@@UAEPAXI@Z 00481e20 f i guiscreenletterbox.obj
 0001:00080e40       ??1CGuiScreenLetterBox@@UAE@XZ 00481e40 f   guiscreenletterbox.obj
 0001:00080e70       ?CheckIfScreenShouldBeBlank@CGuiScreenLetterBox@@QAEXXZ 00481e70 f   guiscreenletterbox.obj
 0001:00080f20       ?ForceOpen@CGuiScreenLetterBox@@SAXXZ 00481f20 f   guiscreenletterbox.obj
 0001:00080f30       ?HandleMessage@CGuiScreenLetterBox@@UAEXW4eGuiMessage@@II@Z 00481f30 f   guiscreenletterbox.obj
 0001:00081040       ?HandleEvent@CGuiScreenLetterBox@@UAEXW4EventEnum@@PAX@Z 00482040 f   guiscreenletterbox.obj
 0001:00081060       ?InitIntro@CGuiScreenLetterBox@@MAEXXZ 00482060 f   guiscreenletterbox.obj
 0001:00081240       ?InitOutro@CGuiScreenLetterBox@@MAEXXZ 00482240 f   guiscreenletterbox.obj
 0001:00081390       ?SurpressSkipButton@CGuiScreenLetterBox@@SAXXZ 00482390 f   guiscreenletterbox.obj
 0001:000813a0       ?UnSurpressSkipButton@CGuiScreenLetterBox@@SAXXZ 004823a0 f   guiscreenletterbox.obj
 0001:000813b0       ?OnAccept@CGuiScreenLetterBox@@AAEXXZ 004823b0 f   guiscreenletterbox.obj
 0001:000813b0       ?OnSkip@CGuiScreenLetterBox@@AAEXXZ 004823b0 f   guiscreenletterbox.obj
 0001:000813e0       ?OnCancel@CGuiScreenLetterBox@@AAEXXZ 004823e0 f   guiscreenletterbox.obj
 0001:000814b0       ?SetIntroFromClosed@CGuiScreenLetterBox@@IAEXXZ 004824b0 f   guiscreenletterbox.obj
 0001:00081570       ?SetIntroFromOpen@CGuiScreenLetterBox@@IAEXXZ 00482570 f   guiscreenletterbox.obj
 0001:000815d0       ??_ECGuiScreenLetterBox@@WJI@AEPAXI@Z 004825d0 f i guiscreenletterbox.obj
 0001:000815e0       ??0CGuiScreenLevelEnd@@QAE@PAVScreen@Scrooby@@PAVCGuiEntity@@@Z 004825e0 f   guiscreenlevelend.obj
 0001:00081600       ??_ECGuiScreenLevelEnd@@UAEPAXI@Z 00482600 f i guiscreenlevelend.obj
 0001:00081600       ??_GCGuiScreenLevelEnd@@UAEPAXI@Z 00482600 f i guiscreenlevelend.obj
 0001:00081620       ??1CGuiScreenLevelEnd@@UAE@XZ 00482620 f   guiscreenlevelend.obj
 0001:00081630       ?HandleMessage@CGuiScreenLevelEnd@@UAEXW4eGuiMessage@@II@Z 00482630 f   guiscreenlevelend.obj
 0001:00081690       ?InitIntro@CGuiScreenLevelEnd@@MAEXXZ 00482690 f   guiscreenlevelend.obj
 0001:000816f0       ??0CGuiScreenLevelStats@@QAE@PAVScreen@Scrooby@@PAVCGuiEntity@@W4eGuiWindowID@CGuiWindow@@@Z 004826f0 f   guiscreenlevelstats.obj
 0001:000818f0       ??_ECGuiScreenLevelStats@@UAEPAXI@Z 004828f0 f i guiscreenlevelstats.obj
 0001:000818f0       ??_GCGuiScreenLevelStats@@UAEPAXI@Z 004828f0 f i guiscreenlevelstats.obj
 0001:00081910       ??1CGuiScreenLevelStats@@UAE@XZ 00482910 f   guiscreenlevelstats.obj
 0001:00081920       ?HandleMessage@CGuiScreenLevelStats@@UAEXW4eGuiMessage@@II@Z 00482920 f   guiscreenlevelstats.obj
 0001:00081960       ?InitIntro@CGuiScreenLevelStats@@MAEXXZ 00482960 f   guiscreenlevelstats.obj
 0001:00081970       ?UpdateLevelStats@CGuiScreenLevelStats@@IAEXXZ 00482970 f   guiscreenlevelstats.obj
 0001:00081bd0       ??0CGuiScreenMissionBase@@QAE@PAVScreen@Scrooby@@PAVCGuiEntity@@W4eGuiWindowID@CGuiWindow@@@Z 00482bd0 f   guiscreenmissionbase.obj
 0001:00082620       ??_GCGuiScreenMissionBase@@UAEPAXI@Z 00483620 f i guiscreenmissionbase.obj
 0001:00082620       ??_ECGuiScreenMissionBase@@UAEPAXI@Z 00483620 f i guiscreenmissionbase.obj
 0001:00082640       ??1CGuiScreenMissionBase@@UAE@XZ 00483640 f   guiscreenmissionbase.obj
 0001:000826e0       ?ClearBitmap@CGuiScreenMissionBase@@SAXXZ 004836e0 f   guiscreenmissionbase.obj
 0001:000826f0       ?GetAbortBitmap@CGuiScreenMissionBase@@IAEPAVGroup@Scrooby@@XZ 004836f0 f   guiscreenmissionbase.obj
 0001:00082700       ?GetBitmapName@CGuiScreenMissionBase@@SAXPAD@Z 00483700 f   guiscreenmissionbase.obj
 0001:00082720       ?GetFlag@CGuiScreenMissionBase@@IAEPAVDrawable@Scrooby@@XZ 00483720 f   guiscreenmissionbase.obj
 0001:00082740       ?GetLoadCompletedGroup@CGuiScreenMissionBase@@IAEPAVGroup@Scrooby@@XZ 00483740 f   guiscreenmissionbase.obj
 0001:00082750       ?GetMissionInfoText@CGuiScreenMissionBase@@IAEPAVText@Scrooby@@XZ 00483750 f   guiscreenmissionbase.obj
 0001:00082760       ?GetMissionStartBitmap@CGuiScreenMissionBase@@IAEPAVBoundedDrawable@Scrooby@@XZ 00483760 f   guiscreenmissionbase.obj
 0001:00082780       ?GetTitleText@CGuiScreenMissionBase@@IAEPAVText@Scrooby@@XZ 00483780 f   guiscreenmissionbase.obj
 0001:00082790       ?HandleMessage@CGuiScreenMissionBase@@UAEXW4eGuiMessage@@II@Z 00483790 f   guiscreenmissionbase.obj
 0001:00082900       ?InitIntro@CGuiScreenMissionBase@@UAEXXZ 00483900 f   guiscreenmissionbase.obj
 0001:00082cd0       ?InitIntroWagerMission@CGuiScreenMissionBase@@IAEXXZ 00483cd0 f   guiscreenmissionbase.obj
 0001:00082e90       ?InitOutro@CGuiScreenMissionBase@@UAEXXZ 00483e90 f   guiscreenmissionbase.obj
 0001:00082f40       ?IsCurrentBitmap@CGuiScreenMissionBase@@SA_NPBD@Z 00483f40 f   guiscreenmissionbase.obj
 0001:00082f90       ?OutroDone@CGuiScreenMissionBase@@MAEXXZ 00483f90 f   guiscreenmissionbase.obj
 0001:00083010       ?RemoveAnimatedBitmap@CGuiScreenMissionBase@@KAXXZ 00484010 f   guiscreenmissionbase.obj
 0001:00083030       ?ReplaceBitmap@CGuiScreenMissionBase@@SAXXZ 00484030 f   guiscreenmissionbase.obj
 0001:000830f0       ?SetBitmapName@CGuiScreenMissionBase@@SAXPBD@Z 004840f0 f   guiscreenmissionbase.obj
 0001:00083260       ?SetPlayAnimatedCamera@CGuiScreenMissionBase@@IAEX_N@Z 00484260 f   guiscreenmissionbase.obj
 0001:00083270       ?UnloadBitmap@CGuiScreenMissionBase@@IAEXXZ 00484270 f   guiscreenmissionbase.obj
 0001:000832c0       ?UpdateAnimatedBitmap@CGuiScreenMissionBase@@IAEXM@Z 004842c0 f   guiscreenmissionbase.obj
 0001:000835b0       ?UpdateGamblingInfo@CGuiScreenMissionBase@@IAEXXZ 004845b0 f   guiscreenmissionbase.obj
 0001:000837e0       ?Next@?$Iterator@VtEntity@@@tInventory@@QAEPAVtEntity@@XZ 004847e0 f i guiscreenmissionbase.obj
 0001:00083820       ?safe_cast@?$SafeCast@VtEntity@@@radLoadInventory@@UAEPAUIRefCount@@PAU3@@Z 00484820 f i guiscreenmissionbase.obj
 0001:00083840       ??0CGuiScreenMissionLoad@@QAE@PAVScreen@Scrooby@@PAVCGuiEntity@@@Z 00484840 f   guiscreenmissionload.obj
 0001:000839b0       ??_GCGuiScreenMissionLoad@@UAEPAXI@Z 004849b0 f i guiscreenmissionload.obj
 0001:000839b0       ??_ECGuiScreenMissionLoad@@UAEPAXI@Z 004849b0 f i guiscreenmissionload.obj
 0001:000839d0       ??1CGuiScreenMissionLoad@@UAE@XZ 004849d0 f   guiscreenmissionload.obj
 0001:00083a40       ?AddListeners@CGuiScreenMissionLoad@@MAEXXZ 00484a40 f   guiscreenmissionload.obj
 0001:00083a70       ?ExtractNormalPositions@CGuiScreenMissionLoad@@IAEXXZ 00484a70 f   guiscreenmissionload.obj
 0001:00083ad0       ?HandleEvent@CGuiScreenMissionLoad@@UAEXW4EventEnum@@PAX@Z 00484ad0 f   guiscreenmissionload.obj
 0001:00083b30       ?HandleMessage@CGuiScreenMissionLoad@@UAEXW4eGuiMessage@@II@Z 00484b30 f   guiscreenmissionload.obj
 0001:00083cf0       ?InitializePermanentVariables@CGuiScreenMissionLoad@@SAXXZ 00484cf0 f   guiscreenmissionload.obj
 0001:00083d10       ?InitIntro@CGuiScreenMissionLoad@@UAEXXZ 00484d10 f   guiscreenmissionload.obj
 0001:00083e90       ?InitOutro@CGuiScreenMissionLoad@@UAEXXZ 00484e90 f   guiscreenmissionload.obj
 0001:00083ec0       ?InitPositionsNormal@CGuiScreenMissionLoad@@IAEXXZ 00484ec0 f   guiscreenmissionload.obj
 0001:00083f20       ?InitPositionsWager@CGuiScreenMissionLoad@@IAEXXZ 00484f20 f   guiscreenmissionload.obj
 0001:00083fb0       ??_ECGuiScreenMissionLoad@@WCCE@AEPAXI@Z 00484fb0 f i guiscreenmissionload.obj
 0001:00083fc0       ??0CGuiScreenMissionOver@@QAE@PAVScreen@Scrooby@@PAVCGuiEntity@@@Z 00484fc0 f   guiscreenmissionover.obj
 0001:00084170       ??_GCGuiScreenMissionOver@@UAEPAXI@Z 00485170 f i guiscreenmissionover.obj
 0001:00084170       ??_ECGuiScreenMissionOver@@UAEPAXI@Z 00485170 f i guiscreenmissionover.obj
 0001:00084190       ??1CGuiScreenMissionOver@@UAE@XZ 00485190 f   guiscreenmissionover.obj
 0001:00084230       ?HandleMessage@CGuiScreenMissionOver@@UAEXW4eGuiMessage@@II@Z 00485230 f   guiscreenmissionover.obj
 0001:000842b0       ?HandleEvent@CGuiScreenMissionOver@@UAEXW4EventEnum@@PAX@Z 004852b0 f   guiscreenmissionover.obj
 0001:000842f0       ?InitIntro@CGuiScreenMissionOver@@MAEXXZ 004852f0 f   guiscreenmissionover.obj
 0001:00084370       ?InitOutro@CGuiScreenMissionOver@@MAEXXZ 00485370 f   guiscreenmissionover.obj
 0001:000843a0       ?SetFailureMessage@CGuiScreenMissionOver@@AAEXW4ConditionTypeEnum@MissionCondition@@@Z 004853a0 f   guiscreenmissionover.obj
 0001:00084480       ??_ECGuiScreenMissionOver@@WJI@AEPAXI@Z 00485480 f i guiscreenmissionover.obj
 0001:00084490       ??0CGuiScreenMissionSelect@@QAE@PAVScreen@Scrooby@@PAVCGuiEntity@@@Z 00485490 f   guiscreenmissionselect.obj
 0001:000848e0       ??_GCGuiScreenMissionSelect@@UAEPAXI@Z 004858e0 f i guiscreenmissionselect.obj
 0001:000848e0       ??_ECGuiScreenMissionSelect@@UAEPAXI@Z 004858e0 f i guiscreenmissionselect.obj
 0001:00084900       ??1CGuiScreenMissionSelect@@UAE@XZ 00485900 f   guiscreenmissionselect.obj
 0001:00084980       ?HandleMessage@CGuiScreenMissionSelect@@UAEXW4eGuiMessage@@II@Z 00485980 f   guiscreenmissionselect.obj
 0001:00084a40       ?CheckCursorAgainstHotspots@CGuiScreenMissionSelect@@UAE?AW4eFEHotspotType@@MM@Z 00485a40 f   guiscreenmissionselect.obj
 0001:00084ab0       ?InitIntro@CGuiScreenMissionSelect@@MAEXXZ 00485ab0 f   guiscreenmissionselect.obj
 0001:00084b40       ?OnLevelSelectionChange@CGuiScreenMissionSelect@@AAEXH@Z 00485b40 f   guiscreenmissionselect.obj
 0001:00084c70       ?UpdateMissionStatus@CGuiScreenMissionSelect@@AAEXHPAUMissionRecord@@@Z 00485c70 f   guiscreenmissionselect.obj
 0001:00084cc0       ??0CGuiScreenMissionSuccess@@QAE@PAVScreen@Scrooby@@PAVCGuiEntity@@@Z 00485cc0 f   guiscreenmissionsuccess.obj
 0001:00084da0       ??_GCGuiScreenMissionSuccess@@UAEPAXI@Z 00485da0 f i guiscreenmissionsuccess.obj
 0001:00084da0       ??_ECGuiScreenMissionSuccess@@UAEPAXI@Z 00485da0 f i guiscreenmissionsuccess.obj
 0001:00084dc0       ??1CGuiScreenMissionSuccess@@UAE@XZ 00485dc0 f i guiscreenmissionsuccess.obj
 0001:00084dd0       ?HandleMessage@CGuiScreenMissionSuccess@@UAEXW4eGuiMessage@@II@Z 00485dd0 f   guiscreenmissionsuccess.obj
 0001:00084e10       ?InitIntro@CGuiScreenMissionSuccess@@UAEXXZ 00485e10 f   guiscreenmissionsuccess.obj
 0001:000850d0       ?OutroDone@CGuiScreenMissionSuccess@@MAEXXZ 004860d0 f   guiscreenmissionsuccess.obj
 0001:00085110       ??0CGuiScreenMultiHud@@QAE@PAVScreen@Scrooby@@PAVCGuiEntity@@W4eGuiWindowID@CGuiWindow@@H@Z 00486110 f   guiscreenmultihud.obj
 0001:00085690       ??_GCGuiScreenMultiHud@@UAEPAXI@Z 00486690 f i guiscreenmultihud.obj
 0001:00085690       ??_ECGuiScreenMultiHud@@UAEPAXI@Z 00486690 f i guiscreenmultihud.obj
 0001:000856b0       ??1UnderdampedTranslator@GuiSFX@@QAE@XZ 004866b0 f i guiscreenmultihud.obj
 0001:000856c0       ??1CGuiScreenMultiHud@@UAE@XZ 004866c0 f   guiscreenmultihud.obj
 0001:00085760       ?HandleMessage@CGuiScreenMultiHud@@UAEXW4eGuiMessage@@II@Z 00486760 f   guiscreenmultihud.obj
 0001:00085960       ?GetHudMap@CGuiScreenMultiHud@@UBEPAVCHudMap@@I@Z 00486960 f   guiscreenmultihud.obj
 0001:00085970       ?InitIntro@CGuiScreenMultiHud@@MAEXXZ 00486970 f   guiscreenmultihud.obj
 0001:000859d0       ?RetrieveElements@CGuiScreenMultiHud@@IAEXPAVPage@Scrooby@@@Z 004869d0 f   guiscreenmultihud.obj
 0001:00086050       ?UpdateElements@CGuiScreenMultiHud@@IAEXI@Z 00487050 f   guiscreenmultihud.obj
 0001:000861d0       ?TutorialBitmapHide@CGuiScreenMultiHud@@QAEXXZ 004871d0 f   guiscreenmultihud.obj
 0001:000861f0       ?UpdateTutorialMode@CGuiScreenMultiHud@@IAEXM@Z 004871f0 f   guiscreenmultihud.obj
 0001:00086270       ?ShowLetterBox@CGuiScreenMultiHud@@QAEXXZ 00487270 f   guiscreenmultihud.obj
 0001:00086290       ??0ResetCar@@QAE@XZ        00487290 f   guiscreenmultihud.obj
 0001:000862a0       ?Activate@ResetCar@@UAEXXZ 004872a0 f   guiscreenmultihud.obj
 0001:000862e0       ?SetVehicle@ResetCar@@QAEXPAVVehicle@@@Z 004872e0 f   guiscreenmultihud.obj
 0001:000862f0       ?SetScroobyText@?$NumericText@VText@Scrooby@@@@QAEXPAVGroup@Scrooby@@PBD@Z 004872f0 f i guiscreenmultihud.obj
 0001:000863a0       ?SetValue@?$NumericText@VText@Scrooby@@@@QAEXII@Z 004873a0 f i guiscreenmultihud.obj
 0001:000864a0       ?SetVisible@?$NumericText@VText@Scrooby@@@@QAEX_N@Z 004874a0 f i guiscreenmultihud.obj
 0001:000864e0       ??0CGuiScreenPause@@QAE@PAVScreen@Scrooby@@PAVCGuiEntity@@W4eGuiWindowID@CGuiWindow@@@Z 004874e0 f   guiscreenpause.obj
 0001:00086780       ??_ECGuiScreenPause@@UAEPAXI@Z 00487780 f i guiscreenpause.obj
 0001:00086780       ??_GCGuiScreenPause@@UAEPAXI@Z 00487780 f i guiscreenpause.obj
 0001:000867a0       ??1CGuiScreenPause@@UAE@XZ 004877a0 f   guiscreenpause.obj
 0001:00086810       ?HandleMessage@CGuiScreenPause@@UAEXW4eGuiMessage@@II@Z 00487810 f   guiscreenpause.obj
 0001:00086970       ?InitIntro@CGuiScreenPause@@MAEXXZ 00487970 f   guiscreenpause.obj
 0001:00086b10       ?InitRunning@CGuiScreenPause@@MAEXXZ 00487b10 f   guiscreenpause.obj
 0001:00086b40       ?InitOutro@CGuiScreenPause@@MAEXXZ 00487b40 f   guiscreenpause.obj
 0001:00086b50       ?HandleResumeGame@CGuiScreenPause@@IAEXII@Z 00487b50 f   guiscreenpause.obj
 0001:00086b80       ?OnQuitGameSelected@CGuiScreenMainMenu@@AAEXXZ 00487b80 f   guiscreenmainmenu.obj
 0001:00086b80       ?HandleQuitGame@CGuiScreenPause@@IAEXXZ 00487b80 f   guiscreenpause.obj
 0001:00086ba0       ?HandleQuitToSystem@CGuiScreenPause@@IAEXXZ 00487ba0 f   guiscreenpause.obj
 0001:00086bc0       ??0CGuiScreenPauseController@@QAE@PAVScreen@Scrooby@@PAVCGuiEntity@@@Z 00487bc0 f   guiscreenpausecontroller.obj
 0001:00086be0       ??_ECGuiScreenPauseController@@UAEPAXI@Z 00487be0 f i guiscreenpausecontroller.obj
 0001:00086be0       ??_GCGuiScreenPauseController@@UAEPAXI@Z 00487be0 f i guiscreenpausecontroller.obj
 0001:00086c00       ??1CGuiScreenPauseController@@UAE@XZ 00487c00 f   guiscreenpausecontroller.obj
 0001:00086c20       ?HandleMessage@CGuiScreenPauseController@@UAEXW4eGuiMessage@@II@Z 00487c20 f   guiscreenpausecontroller.obj
 0001:00086c60       ?InitIntro@CGuiScreenPauseController@@MAEXXZ 00487c60 f   guiscreenpausecontroller.obj
 0001:00086c70       ?InitOutro@CGuiScreenPauseController@@MAEXXZ 00487c70 f   guiscreenpausecontroller.obj
 0001:00086cd0       ??0CGuiScreenPauseDisplay@@QAE@PAVScreen@Scrooby@@PAVCGuiEntity@@@Z 00487cd0 f   guiscreenpausedisplay.obj
 0001:00086ce0       ??_GCGuiScreenPauseDisplay@@UAEPAXI@Z 00487ce0 f i guiscreenpausedisplay.obj
 0001:00086ce0       ??_ECGuiScreenPauseDisplay@@UAEPAXI@Z 00487ce0 f i guiscreenpausedisplay.obj
 0001:00086d00       ??1CGuiScreenPauseDisplay@@UAE@XZ 00487d00 f   guiscreenpausedisplay.obj
 0001:00086d10       ?HandleMessage@CGuiScreenPauseDisplay@@UAEXW4eGuiMessage@@II@Z 00487d10 f   guiscreenpausedisplay.obj
 0001:00086d50       ?InitIntro@CGuiScreenPauseDisplay@@MAEXXZ 00487d50 f   guiscreenpausedisplay.obj
 0001:00086d60       ?InitOutro@CGuiScreenPauseDisplay@@MAEXXZ 00487d60 f   guiscreenpausedisplay.obj
 0001:00086d70       ??0CGuiScreenPauseMission@@QAE@PAVScreen@Scrooby@@PAVCGuiEntity@@@Z 00487d70 f   guiscreenpausemission.obj
 0001:00086e70       ??_ECGuiScreenPauseMission@@UAEPAXI@Z 00487e70 f i guiscreenpausemission.obj
 0001:00086e70       ??_GCGuiScreenPauseMission@@UAEPAXI@Z 00487e70 f i guiscreenpausemission.obj
 0001:00086e90       ??1CGuiScreenPauseMission@@UAE@XZ 00487e90 f   guiscreenpausemission.obj
 0001:00086ea0       ?HandleMessage@CGuiScreenPauseMission@@UAEXW4eGuiMessage@@II@Z 00487ea0 f   guiscreenpausemission.obj
 0001:00086ff0       ?InitIntro@CGuiScreenPauseMission@@MAEXXZ 00487ff0 f   guiscreenpausemission.obj
 0001:000870b0       ?InitRunning@CGuiScreenPauseSunday@@MAEXXZ 004880b0 f   guiscreenpausesunday.obj
 0001:000870b0       ?InitRunning@CGuiScreenPauseMission@@MAEXXZ 004880b0 f   guiscreenpausemission.obj
 0001:000870c0       ?InitOutro@CGuiScreenPauseSunday@@MAEXXZ 004880c0 f   guiscreenpausesunday.obj
 0001:000870c0       ?InitOutro@CGuiScreenPauseMission@@MAEXXZ 004880c0 f   guiscreenpausemission.obj
 0001:000870d0       ??0CGuiScreenPauseOptions@@QAE@PAVScreen@Scrooby@@PAVCGuiEntity@@@Z 004880d0 f   guiscreenpauseoptions.obj
 0001:000872a0       ??_ECGuiScreenPauseOptions@@UAEPAXI@Z 004882a0 f i guiscreenpauseoptions.obj
 0001:000872a0       ??_GCGuiScreenPauseOptions@@UAEPAXI@Z 004882a0 f i guiscreenpauseoptions.obj
 0001:000872c0       ??1CGuiScreenPauseOptions@@UAE@XZ 004882c0 f   guiscreenpauseoptions.obj
 0001:00087330       ?HandleMessage@CGuiScreenPauseOptions@@UAEXW4eGuiMessage@@II@Z 00488330 f   guiscreenpauseoptions.obj
 0001:000873f0       ?InitIntro@CGuiScreenPauseOptions@@MAEXXZ 004883f0 f   guiscreenpauseoptions.obj
 0001:00087400       ??0CGuiScreenPauseSettings@@QAE@PAVScreen@Scrooby@@PAVCGuiEntity@@@Z 00488400 f   guiscreenpausesettings.obj
 0001:00087680       ??_GCGuiScreenPauseSettings@@UAEPAXI@Z 00488680 f i guiscreenpausesettings.obj
 0001:00087680       ??_ECGuiScreenPauseSettings@@UAEPAXI@Z 00488680 f i guiscreenpausesettings.obj
 0001:000876a0       ??1CGuiScreenPauseSettings@@UAE@XZ 004886a0 f   guiscreenpausesettings.obj
 0001:00087720       ?HandleMessage@CGuiScreenPauseSettings@@UAEXW4eGuiMessage@@II@Z 00488720 f   guiscreenpausesettings.obj
 0001:000877c0       ?OnCheatEntered@CGuiScreenPauseSettings@@UAEXW4eCheatID@@_N@Z 004887c0 f   guiscreenpausesettings.obj
 0001:000877e0       ?InitIntro@CGuiScreenPauseSettings@@MAEXXZ 004887e0 f   guiscreenpausesettings.obj
 0001:00087910       ?InitOutro@CGuiScreenPauseSettings@@MAEXXZ 00488910 f   guiscreenpausesettings.obj
 0001:000879f0       ?UpdateCameraSelections@CGuiScreenPauseSettings@@AAEXXZ 004889f0 f   guiscreenpausesettings.obj
 0001:00087c10       ??0CGuiScreenPauseSound@@QAE@PAVScreen@Scrooby@@PAVCGuiEntity@@@Z 00488c10 f   guiscreenpausesound.obj
 0001:00087c20       ??_GCGuiScreenPauseSound@@UAEPAXI@Z 00488c20 f i guiscreenpausesound.obj
 0001:00087c20       ??_ECGuiScreenPauseSound@@UAEPAXI@Z 00488c20 f i guiscreenpausesound.obj
 0001:00087c40       ??1CGuiScreenPauseSound@@UAE@XZ 00488c40 f   guiscreenpausesound.obj
 0001:00087c50       ?HandleMessage@CGuiScreenPauseSound@@UAEXW4eGuiMessage@@II@Z 00488c50 f   guiscreenpausesound.obj
 0001:00087c90       ?InitIntro@CGuiScreenPauseSound@@MAEXXZ 00488c90 f   guiscreenpausesound.obj
 0001:00087ca0       ?InitOutro@CGuiScreenPauseSound@@MAEXXZ 00488ca0 f   guiscreenpausesound.obj
 0001:00087cb0       ??0CGuiScreenPauseSunday@@QAE@PAVScreen@Scrooby@@PAVCGuiEntity@@@Z 00488cb0 f   guiscreenpausesunday.obj
 0001:00087db0       ??_ECGuiScreenPauseSunday@@UAEPAXI@Z 00488db0 f i guiscreenpausesunday.obj
 0001:00087db0       ??_GCGuiScreenPauseSunday@@UAEPAXI@Z 00488db0 f i guiscreenpausesunday.obj
 0001:00087dd0       ??1CGuiScreenPauseSunday@@UAE@XZ 00488dd0 f   guiscreenpausesunday.obj
 0001:00087de0       ?HandleMessage@CGuiScreenPauseSunday@@UAEXW4eGuiMessage@@II@Z 00488de0 f   guiscreenpausesunday.obj
 0001:00087f30       ?InitIntro@CGuiScreenPauseSunday@@MAEXXZ 00488f30 f   guiscreenpausesunday.obj
 0001:00087fa0       ?HasMenu@CGuiScreenPhoneBooth@@UAEPAVCGuiMenu@@XZ 00488fa0 f i guiscreenphonebooth.obj
 0001:00087fb0       ?AddDebugVehicleSelectionInfo@CarSelectionInfo@SummonVehiclePhone@ActionButton@@QAEXPBD00@Z 00488fb0 f i guiscreenphonebooth.obj
 0001:00087ff0       ??0CGuiScreenPhoneBooth@@QAE@PAVScreen@Scrooby@@PAVCGuiEntity@@@Z 00488ff0 f   guiscreenphonebooth.obj
 0001:00088350       ??_GCGuiScreenPhoneBooth@@UAEPAXI@Z 00489350 f i guiscreenphonebooth.obj
 0001:00088350       ??_ECGuiScreenPhoneBooth@@UAEPAXI@Z 00489350 f i guiscreenphonebooth.obj
 0001:00088370       ??1CGuiScreenPhoneBooth@@UAE@XZ 00489370 f   guiscreenphonebooth.obj
 0001:000883e0       ?HandleMessage@CGuiScreenPhoneBooth@@UAEXW4eGuiMessage@@II@Z 004893e0 f   guiscreenphonebooth.obj
 0001:000887a0       ?CheckCursorAgainstHotspots@CGuiScreenPhoneBooth@@UAE?AW4eFEHotspotType@@MM@Z 004897a0 f   guiscreenphonebooth.obj
 0001:00088810       ?InitIntro@CGuiScreenPhoneBooth@@MAEXXZ 00489810 f   guiscreenphonebooth.obj
 0001:000888c0       ?InitRunning@CGuiScreenPhoneBooth@@MAEXXZ 004898c0 f   guiscreenphonebooth.obj
 0001:000888e0       ?InitOutro@CGuiScreenPhoneBooth@@MAEXXZ 004898e0 f   guiscreenphonebooth.obj
 0001:00088a00       ?On3DModelLoaded@CGuiScreenPhoneBooth@@MAEXPBUPreviewObject@@@Z 00489a00 f   guiscreenphonebooth.obj
 0001:00088b90       ?GetCurrentPreviewObject@CGuiScreenPhoneBooth@@MBEPBUPreviewObject@@XZ 00489b90 f   guiscreenphonebooth.obj
 0001:00088bb0       ?InitMenu@CGuiScreenPhoneBooth@@MAEXXZ 00489bb0 f   guiscreenphonebooth.obj
 0001:00088d00       ?OnUpdate@CGuiScreenPhoneBooth@@EAEXI@Z 00489d00 f   guiscreenphonebooth.obj
 0001:00088d10       ?LoadSelectedReward@CGuiScreenPhoneBooth@@AAEXXZ 00489d10 f   guiscreenphonebooth.obj
 0001:00088d50       ?UpdateDamagedInfo@CGuiScreenPhoneBooth@@AAEXXZ 00489d50 f   guiscreenphonebooth.obj
 0001:00088ee0       ?HandleMessageForCar@CGuiScreenPhoneBooth@@AAEXW4eGuiMessage@@II@Z 00489ee0 f   guiscreenphonebooth.obj
 0001:000891a0       ?find@?$@VtCameraAnimationController@@@p3d@@YAPAVtCameraAnimationController@@PAVtEntityStore@@PBD@Z 0048a1a0 f i guiscreenphonebooth.obj
 0001:00089210       ?find@?$@VtCameraAnimationController@@@p3d@@YAPAVtCameraAnimationController@@PAVtEntityStore@@ABVtName@@@Z 0048a210 f i guiscreenphonebooth.obj
 0001:000892d0       ?safe_cast@?$SafeCast@VtCameraAnimationController@@@radLoadInventory@@UAEPAUIRefCount@@PAU3@@Z 0048a2d0 f i guiscreenphonebooth.obj
 0001:000892f0       ??0CGuiScreenPurchaseRewards@@QAE@PAVScreen@Scrooby@@PAVCGuiEntity@@@Z 0048a2f0 f   guiscreenpurchaserewards.obj
 0001:00089580       ??_GCGuiScreenPurchaseRewards@@UAEPAXI@Z 0048a580 f i guiscreenpurchaserewards.obj
 0001:00089580       ??_ECGuiScreenPurchaseRewards@@UAEPAXI@Z 0048a580 f i guiscreenpurchaserewards.obj
 0001:000895a0       ??1CGuiScreenPurchaseRewards@@UAE@XZ 0048a5a0 f   guiscreenpurchaserewards.obj
 0001:00089660       ?HandleMessage@CGuiScreenPurchaseRewards@@UAEXW4eGuiMessage@@II@Z 0048a660 f   guiscreenpurchaserewards.obj
 0001:00089980       ?OnProcessRequestsComplete@CGuiScreenPurchaseRewards@@UAEXPAX@Z 0048a980 f   guiscreenpurchaserewards.obj
 0001:00089af0       ?CheckCursorAgainstHotspots@CGuiScreenPurchaseRewards@@UAE?AW4eFEHotspotType@@MM@Z 0048aaf0 f   guiscreenpurchaserewards.obj
 0001:00089b60       ?InitIntro@CGuiScreenPurchaseRewards@@MAEXXZ 0048ab60 f   guiscreenpurchaserewards.obj
 0001:00089c80       ?InitRunning@CGuiScreenPurchaseRewards@@MAEXXZ 0048ac80 f   guiscreenpurchaserewards.obj
 0001:00089ca0       ?InitOutro@CGuiScreenPurchaseRewards@@MAEXXZ 0048aca0 f   guiscreenpurchaserewards.obj
 0001:00089cf0       ?On3DModelLoaded@CGuiScreenPurchaseRewards@@MAEXPBUPreviewObject@@@Z 0048acf0 f   guiscreenpurchaserewards.obj
 0001:00089fa0       ?GetCurrentPreviewObject@CGuiScreenPurchaseRewards@@MBEPBUPreviewObject@@XZ 0048afa0 f   guiscreenpurchaserewards.obj
 0001:00089ff0       ?InitMenu@CGuiScreenPurchaseRewards@@MAEXXZ 0048aff0 f   guiscreenpurchaserewards.obj
 0001:0008a1e0       ?OnUpdate@CGuiScreenPurchaseRewards@@EAEXI@Z 0048b1e0 f   guiscreenpurchaserewards.obj
 0001:0008a2d0       ?UpdateRewardPrice@CGuiScreenPurchaseRewards@@AAEXXZ 0048b2d0 f   guiscreenpurchaserewards.obj
 0001:0008a3e0       ?PurchaseReward@CGuiScreenPurchaseRewards@@AAEXXZ 0048b3e0 f   guiscreenpurchaserewards.obj
 0001:0008a480       ?LoadSelectedReward@CGuiScreenPurchaseRewards@@AAEXXZ 0048b480 f   guiscreenpurchaserewards.obj
 0001:0008a6c0       ??0PhoneBoothStars@@QAE@PAVPage@Scrooby@@PBD@Z 0048b6c0 f   guiscreenrewards.obj
 0001:0008a730       ?SetNumStars@PhoneBoothStars@@QAEXM@Z 0048b730 f   guiscreenrewards.obj
 0001:0008a790       ??0IGuiScreenRewards@@QAE@PAVScreen@Scrooby@@PAVPage@2@PAVCGuiEntity@@W4eGuiWindowID@CGuiWindow@@@Z 0048b790 f   guiscreenrewards.obj
 0001:0008ad00       ??_GIGuiScreenRewards@@UAEPAXI@Z 0048bd00 f i guiscreenrewards.obj
 0001:0008ad00       ??_EIGuiScreenRewards@@UAEPAXI@Z 0048bd00 f i guiscreenrewards.obj
 0001:0008ad20       ??1IGuiScreenRewards@@UAE@XZ 0048bd20 f   guiscreenrewards.obj
 0001:0008adf0       ?HandleMessage@IGuiScreenRewards@@UAEXW4eGuiMessage@@II@Z 0048bdf0 f   guiscreenrewards.obj
 0001:0008ae70       ?OnProcessRequestsComplete@IGuiScreenRewards@@UAEXPAX@Z 0048be70 f   guiscreenrewards.obj
 0001:0008af50       ?InitIntro@IGuiScreenRewards@@MAEXXZ 0048bf50 f   guiscreenrewards.obj
 0001:0008afa0       ?InitOutro@IGuiScreenRewards@@MAEXXZ 0048bfa0 f   guiscreenrewards.obj
 0001:0008afd0       ?InsertPreviewObject@IGuiScreenRewards@@IAEHPAUPreviewObject@@HPAVReward@@_N@Z 0048bfd0 f   guiscreenrewards.obj
 0001:0008b300       ?OnUpdate@IGuiScreenRewards@@MAEXI@Z 0048c300 f   guiscreenrewards.obj
 0001:0008b420       ?SetLightOpening@IGuiScreenRewards@@IAEXM@Z 0048c420 f   guiscreenrewards.obj
 0001:0008b450       ?On3DModelSelectionChange@IGuiScreenRewards@@IAEXPBUPreviewObject@@@Z 0048c450 f   guiscreenrewards.obj
 0001:0008b5c0       ?Load3DModel@IGuiScreenRewards@@IAEXPBUPreviewObject@@@Z 0048c5c0 f   guiscreenrewards.obj
 0001:0008b690       ?Unload3DModel@IGuiScreenRewards@@IAEXXZ 0048c690 f   guiscreenrewards.obj
 0001:0008b770       ?SetVehicleStatsVisible@IGuiScreenRewards@@IAEX_N@Z 0048c770 f   guiscreenrewards.obj
 0001:0008b7b0       ?UpdateVehicleStats@IGuiScreenRewards@@IAEXXZ 0048c7b0 f   guiscreenrewards.obj
 0001:0008b810       ?HasMenu@CGuiScreenSaveGame@@UAEPAVCGuiMenu@@XZ 0048c810 f i guiscreensavegame.obj
 0001:0008b820       ??0CGuiScreenSaveGame@@QAE@PAVScreen@Scrooby@@PAVCGuiEntity@@@Z 0048c820 f   guiscreensavegame.obj
 0001:0008ba30       ??_GCGuiScreenSaveGame@@UAEPAXI@Z 0048ca30 f i guiscreensavegame.obj
 0001:0008ba30       ??_ECGuiScreenSaveGame@@UAEPAXI@Z 0048ca30 f i guiscreensavegame.obj
 0001:0008ba50       ??1CGuiScreenSaveGame@@UAE@XZ 0048ca50 f   guiscreensavegame.obj
 0001:0008bae0       ?HandleMessage@CGuiScreenSaveGame@@UAEXW4eGuiMessage@@II@Z 0048cae0 f   guiscreensavegame.obj
 0001:0008bfa0       ?OnSaveGameComplete@CGuiScreenSaveGame@@UAEXW4radFileError@@@Z 0048cfa0 f   guiscreensavegame.obj
 0001:0008bfe0       ?OnDeleteGameComplete@CGuiScreenSaveGame@@UAEXW4radFileError@@@Z 0048cfe0 f   guiscreensavegame.obj
 0001:0008c020       ?HandleErrorResponse@CGuiScreenSaveGame@@MAEXW4ePromptResponse@CGuiMenuPrompt@@@Z 0048d020 f   guiscreensavegame.obj
 0001:0008c0d0       ?InitIntro@CGuiScreenSaveGame@@MAEXXZ 0048d0d0 f   guiscreensavegame.obj
 0001:0008c420       ?GotoMemoryCardScreen@CGuiScreenSaveGame@@MAEX_N@Z 0048d420 f   guiscreensavegame.obj
 0001:0008c440       ?SaveGame@CGuiScreenSaveGame@@AAEXXZ 0048d440 f   guiscreensavegame.obj
 0001:0008c460       ??_ECGuiScreenSaveGame@@WJI@AEPAXI@Z 0048d460 f i guiscreensavegame.obj
 0001:0008c470       ?HandleMessage@CGuiScreenSaveGame@@WJI@AEXW4eGuiMessage@@II@Z 0048d470 f i guiscreensavegame.obj
 0001:0008c480       ??0CGuiScreenTutorial@@QAE@PAVScreen@Scrooby@@PAVCGuiEntity@@@Z 0048d480 f   guiscreentutorial.obj
 0001:0008c5e0       ??_GCGuiScreenTutorial@@UAEPAXI@Z 0048d5e0 f i guiscreentutorial.obj
 0001:0008c5e0       ??_ECGuiScreenTutorial@@UAEPAXI@Z 0048d5e0 f i guiscreentutorial.obj
 0001:0008c600       ??1CGuiScreenTutorial@@UAE@XZ 0048d600 f   guiscreentutorial.obj
 0001:0008c610       ?HandleMessage@CGuiScreenTutorial@@UAEXW4eGuiMessage@@II@Z 0048d610 f   guiscreentutorial.obj
 0001:0008c7f0       ?InitIntro@CGuiScreenTutorial@@MAEXXZ 0048d7f0 f   guiscreentutorial.obj
 0001:0008c8b0       ?InitOutro@CGuiScreenTutorial@@MAEXXZ 0048d8b0 f   guiscreentutorial.obj
 0001:0008c8c0       ??0CGuiScreenViewCards@@QAE@PAVScreen@Scrooby@@PAVCGuiEntity@@@Z 0048d8c0 f   guiscreenviewcards.obj
 0001:0008c960       ??_GCGuiScreenViewCards@@UAEPAXI@Z 0048d960 f i guiscreenviewcards.obj
 0001:0008c960       ??_ECGuiScreenViewCards@@UAEPAXI@Z 0048d960 f i guiscreenviewcards.obj
 0001:0008c980       ??1CGuiScreenViewCards@@UAE@XZ 0048d980 f   guiscreenviewcards.obj
 0001:0008c990       ?HandleMessage@CGuiScreenViewCards@@UAEXW4eGuiMessage@@II@Z 0048d990 f   guiscreenviewcards.obj
 0001:0008ca30       ?InitIntro@CGuiScreenViewCards@@MAEXXZ 0048da30 f   guiscreenviewcards.obj
 0001:0008ca50       ??0HudCardCollected@@QAE@PAVPage@Scrooby@@@Z 0048da50 f   hudcardcollected.obj
 0001:0008cc00       ??_GHudCardCollected@@UAEPAXI@Z 0048dc00 f i hudcardcollected.obj
 0001:0008cc00       ??_EHudCardCollected@@UAEPAXI@Z 0048dc00 f i hudcardcollected.obj
 0001:0008cc20       ??1HudCardCollected@@UAE@XZ 0048dc20 f   hudcardcollected.obj
 0001:0008cc30       ?Start@HudCardCollected@@UAEXXZ 0048dc30 f   hudcardcollected.obj
 0001:0008cd60       ?Stop@HudCardCollected@@UAEXXZ 0048dd60 f   hudcardcollected.obj
 0001:0008cd60       ?Stop@HudMissionProgress@@UAEXXZ 0048dd60 f   hudmissionprogress.obj
 0001:0008cd60       ?Stop@HudHitNRun@@UAEXXZ   0048dd60 f   hudhitnrun.obj
 0001:0008cd60       ?Stop@HudWaspDestroyed@@UAEXXZ 0048dd60 f   hudwaspdestroyed.obj
 0001:0008cd60       ?Stop@HudItemDropped@@UAEXXZ 0048dd60 f   huditemdropped.obj
 0001:0008cd70       ?Update@HudCardCollected@@UAEXM@Z 0048dd70 f   hudcardcollected.obj
 0001:0008d340       ?SetCurrentCard@HudCardCollected@@QAEXI@Z 0048e340 f   hudcardcollected.obj
 0001:0008d360       ?SetCardCount@HudCardCollected@@AAEXII@Z 0048e360 f   hudcardcollected.obj
 0001:0008d3f0       ??0HudCoinCollected@@QAE@PAVPage@Scrooby@@@Z 0048e3f0 f   hudcoincollected.obj
 0001:0008d560       ??_GHudCoinCollected@@UAEPAXI@Z 0048e560 f i hudcoincollected.obj
 0001:0008d560       ??_EHudCoinCollected@@UAEPAXI@Z 0048e560 f i hudcoincollected.obj
 0001:0008d580       ??1HudCoinCollected@@UAE@XZ 0048e580 f   hudcoincollected.obj
 0001:0008d590       ?Start@HudCoinCollected@@UAEXXZ 0048e590 f   hudcoincollected.obj
 0001:0008d680       ?Stop@HudCoinCollected@@UAEXXZ 0048e680 f   hudcoincollected.obj
 0001:0008d6a0       ?Update@HudCoinCollected@@UAEXM@Z 0048e6a0 f   hudcoincollected.obj
 0001:0008d950       ?SetItemCount@HudCoinCollected@@AAEXII@Z 0048e950 f   hudcoincollected.obj
 0001:0008d9b0       ??0HudCountDown@@QAE@PAVPage@Scrooby@@@Z 0048e9b0 f   hudcountdown.obj
 0001:0008da60       ??_EHudCountDown@@UAEPAXI@Z 0048ea60 f i hudcountdown.obj
 0001:0008da60       ??_GHudCountDown@@UAEPAXI@Z 0048ea60 f i hudcountdown.obj
 0001:0008da80       ??1HudCountDown@@UAE@XZ    0048ea80 f   hudcountdown.obj
 0001:0008da90       ?OnStart@HudCountDown@@IAEXXZ 0048ea90 f   hudcountdown.obj
 0001:0008daa0       ?QueueDisableInput@HudCountDown@@IAEXXZ 0048eaa0 f   hudcountdown.obj
 0001:0008dab0       ?Start@HudCountDown@@UAEXXZ 0048eab0 f   hudcountdown.obj
 0001:0008db60       ?Stop@HudCountDown@@UAEXXZ 0048eb60 f   hudcountdown.obj
 0001:0008db90       ?Update@HudCountDown@@UAEXM@Z 0048eb90 f   hudcountdown.obj
 0001:0008dc80       ?GetNextSequenceUnit@HudCountDown@@AAEXXZ 0048ec80 f   hudcountdown.obj
 0001:0008dcd0       ??0HudEventHandler@@QAE@PAVGroup@Scrooby@@@Z 0048ecd0 f   hudeventhandler.obj
 0001:0008dd00       ??_EHudEventHandler@@UAEPAXI@Z 0048ed00 f i hudeventhandler.obj
 0001:0008dd00       ??_GHudEventHandler@@UAEPAXI@Z 0048ed00 f i hudeventhandler.obj
 0001:0008dd20       ??1HudEventHandler@@UAE@XZ 0048ed20 f   hudeventhandler.obj
 0001:0008dd30       ?OnStart@HudEventHandler@@IAEXXZ 0048ed30 f   hudeventhandler.obj
 0001:0008dd60       ?OnStop@HudEventHandler@@IAEXXZ 0048ed60 f   hudeventhandler.obj
 0001:0008dd90       ??0HudHitNRun@@QAE@PAVPage@Scrooby@@@Z 0048ed90 f   hudhitnrun.obj
 0001:0008ded0       ??_GHudHitNRun@@UAEPAXI@Z  0048eed0 f i hudhitnrun.obj
 0001:0008ded0       ??_EHudHitNRun@@UAEPAXI@Z  0048eed0 f i hudhitnrun.obj
 0001:0008def0       ??1HudHitNRun@@UAE@XZ      0048eef0 f   hudhitnrun.obj
 0001:0008df00       ?Start@HudHitNRun@@UAEXXZ  0048ef00 f   hudhitnrun.obj
 0001:0008df90       ?Update@HudHitNRun@@UAEXM@Z 0048ef90 f   hudhitnrun.obj
 0001:0008e560       ?SetScreen@GotoScreen@GuiSFX@@QAEXW4eGuiWindowID@CGuiWindow@@@Z 0048f560 f   transitions.obj
 0001:0008e560       ?SetState@InputStateChange@GuiSFX@@QAEXW4ActiveState@Input@@@Z 0048f560 f   transitions.obj
 0001:0008e560       ?SetMessage@HudHitNRun@@QAEXW4eMessage@1@@Z 0048f560 f   hudhitnrun.obj
 0001:0008e560       ?SetNumberOfFrames@PauseInFrames@GuiSFX@@QAEXI@Z 0048f560 f   transitions.obj
 0001:0008e560       ?SetContext@SwitchContext@GuiSFX@@QAEXW4ContextEnum@@@Z 0048f560 f   transitions.obj
 0001:0008e560       ?SetEvent@SendEvent@GuiSFX@@QAEXW4EventEnum@@@Z 0048f560 f   transitions.obj
 0001:0008e570       ??0HudItemDropped@@QAE@PAVPage@Scrooby@@@Z 0048f570 f   huditemdropped.obj
 0001:0008e5f0       ??_GHudItemDropped@@UAEPAXI@Z 0048f5f0 f i huditemdropped.obj
 0001:0008e5f0       ??_EHudItemDropped@@UAEPAXI@Z 0048f5f0 f i huditemdropped.obj
 0001:0008e610       ??1HudItemDropped@@UAE@XZ  0048f610 f   huditemdropped.obj
 0001:0008e620       ?Start@HudItemDropped@@UAEXXZ 0048f620 f   huditemdropped.obj
 0001:0008e670       ?Update@HudItemDropped@@UAEXM@Z 0048f670 f   huditemdropped.obj
 0001:0008e7c0       ??0HudMissionObjective@@QAE@PAVPage@Scrooby@@@Z 0048f7c0 f   hudmissionobjective.obj
 0001:0008e900       ??_EHudMissionObjective@@UAEPAXI@Z 0048f900 f i hudmissionobjective.obj
 0001:0008e900       ??_GHudMissionObjective@@UAEPAXI@Z 0048f900 f i hudmissionobjective.obj
 0001:0008e920       ??1HudMissionObjective@@UAE@XZ 0048f920 f   hudmissionobjective.obj
 0001:0008e980       ?Start@HudMissionObjective@@UAEXXZ 0048f980 f   hudmissionobjective.obj
 0001:0008e9c0       ?Stop@HudMissionObjective@@UAEXXZ 0048f9c0 f   hudmissionobjective.obj
 0001:0008ea20       ?Update@HudMissionObjective@@UAEXM@Z 0048fa20 f   hudmissionobjective.obj
 0001:0008eb70       ?UpdateIcon@HudMissionObjective@@QAE_NXZ 0048fb70 f   hudmissionobjective.obj
 0001:0008ec00       ??0HudMissionProgress@@QAE@PAVPage@Scrooby@@@Z 0048fc00 f   hudmissionprogress.obj
 0001:0008ec90       ??_EHudMissionProgress@@UAEPAXI@Z 0048fc90 f i hudmissionprogress.obj
 0001:0008ec90       ??_GHudMissionProgress@@UAEPAXI@Z 0048fc90 f i hudmissionprogress.obj
 0001:0008ecb0       ??1HudMissionProgress@@UAE@XZ 0048fcb0 f   hudmissionprogress.obj
 0001:0008ecc0       ?Start@HudMissionProgress@@UAEXXZ 0048fcc0 f   hudmissionprogress.obj
 0001:0008ecd0       ?Update@HudMissionProgress@@UAEXM@Z 0048fcd0 f   hudmissionprogress.obj
 0001:0008ed30       ??0HudWaspDestroyed@@QAE@PAVPage@Scrooby@@@Z 0048fd30 f   hudwaspdestroyed.obj
 0001:0008edb0       ??_GHudWaspDestroyed@@UAEPAXI@Z 0048fdb0 f i hudwaspdestroyed.obj
 0001:0008edb0       ??_EHudWaspDestroyed@@UAEPAXI@Z 0048fdb0 f i hudwaspdestroyed.obj
 0001:0008edd0       ??1HudWaspDestroyed@@UAE@XZ 0048fdd0 f   hudwaspdestroyed.obj
 0001:0008ede0       ?Start@HudWaspDestroyed@@UAEXXZ 0048fde0 f   hudwaspdestroyed.obj
 0001:0008ee90       ?Update@HudWaspDestroyed@@UAEXM@Z 0048fe90 f   hudwaspdestroyed.obj
 0001:0008f0a0       ?IsAICarIcon@HudMapIcon@@QBE_NXZ 004900a0 f i hudmap.obj
 0001:0008f0c0       ?ApplyAICarIconColour@HudMapIcon@@QAEXXZ 004900c0 f   hudmap.obj
 0001:0008f150       ??0CHudMap@@QAE@PAVPage@Scrooby@@HPBD@Z 00490150 f   hudmap.obj
 0001:0008f400       ??_ECHudMap@@UAEPAXI@Z     00490400 f i hudmap.obj
 0001:0008f400       ??_GCHudMap@@UAEPAXI@Z     00490400 f i hudmap.obj
 0001:0008f420       ??1CHudMap@@UAE@XZ         00490420 f   hudmap.obj
 0001:0008f440       ?SetCameraTarget@CHudMap@@QAEXPAVISuperCamTarget@@@Z 00490440 f   hudmap.obj
 0001:0008f450       ?Update@CHudMap@@QAEXI@Z   00490450 f   hudmap.obj
 0001:0008fab0       ?AddIconToInventory@CHudMap@@QAEXW4eIconType@HudMapIcon@@PAVSprite@Scrooby@@@Z 00490ab0 f   hudmap.obj
 0001:0008faf0       ?RemoveIconFromInventory@CHudMap@@QAEPAVSprite@Scrooby@@W4eIconType@HudMapIcon@@@Z 00490af0 f   hudmap.obj
 0001:0008fb40       ?RegisterIcon@CHudMap@@QAEHW4eIconType@HudMapIcon@@VVector@RadicalMathLibrary@@PAUIHudMapIconLocator@@_N@Z 00490b40 f   hudmap.obj
 0001:0008fd40       ?UnregisterIcon@CHudMap@@QAEXH@Z 00490d40 f   hudmap.obj
 0001:0008fda0       ?SetFocalPointIcon@CHudMap@@QAEXH@Z 00490da0 f   hudmap.obj
 0001:0008fdc0       ?FindIcon@CHudMap@@QBEPAUHudMapIcon@@W4eIconType@2@@Z 00490dc0 f   hudmap.obj
 0001:0008fe10       ?Reset@CHudMap@@QAEXXZ     00490e10 f   hudmap.obj
 0001:0008fea0       ?SetVisible@CHudMap@@QAEX_N@Z 00490ea0 f   hudmap.obj
 0001:0008fef0       ?RestoreAllRegisteredIcons@CHudMap@@QAEXXZ 00490ef0 f   hudmap.obj
 0001:0008ff40       ?ClearAllRegisteredIcons@CHudMap@@SAXXZ 00490f40 f   hudmap.obj
 0001:0008ff60       ?CalculateDistanceBetweenPoints@CHudMap@@CAMAAVVector@RadicalMathLibrary@@0@Z 00490f60 f   hudmap.obj
 0001:0008ff90       ?UpdateIconHeading@CHudMap@@AAEXPAVSprite@Scrooby@@PAVVector@RadicalMathLibrary@@@Z 00490f90 f   hudmap.obj
 0001:00090160       ?CalculateCameraHeight@CHudMap@@ABEMAAVVector@RadicalMathLibrary@@0@Z 00491160 f   hudmap.obj
 0001:000901b0       ?CalculateCameraHeight@CHudMap@@ABEMM@Z 004911b0 f   hudmap.obj
 0001:00090210       ?CalculatRadarConeAngle@CHudMap@@ABEMAAVVector@RadicalMathLibrary@@@Z 00491210 f   hudmap.obj
 0001:000902a0       ?DetermineOnRoadLocation@CHudMap@@AAEXAAVVector@RadicalMathLibrary@@0M@Z 004912a0 f   hudmap.obj
 0001:00090d90       ??0HudMapCam@@QAE@H@Z      00491d90 f   hudmapcam.obj
 0001:00090e70       ??_EHudMapCam@@UAEPAXI@Z   00491e70 f i hudmapcam.obj
 0001:00090e70       ??_GHudMapCam@@UAEPAXI@Z   00491e70 f i hudmapcam.obj
 0001:00090e90       ??1HudMapCam@@UAE@XZ       00491e90 f   hudmapcam.obj
 0001:00090f00       ?Update@HudMapCam@@UAEXI@Z 00491f00 f   hudmapcam.obj
 0001:00091060       ??0ScrollingText@@QAE@PAVText@Scrooby@@@Z 00492060 f   scrollingtext.obj
 0001:000910e0       ??_EScrollingText@@UAEPAXI@Z 004920e0 f i scrollingtext.obj
 0001:000910e0       ??_GScrollingText@@UAEPAXI@Z 004920e0 f i scrollingtext.obj
 0001:00091100       ??1ScrollingText@@UAE@XZ   00492100 f   scrollingtext.obj
 0001:00091110       ?SetTextIndex@ScrollingText@@QAEXH@Z 00492110 f   scrollingtext.obj
 0001:00091130       ?Start@ScrollingText@@QAEXXZ 00492130 f   scrollingtext.obj
 0001:00091170       ?Stop@ScrollingText@@QAEXXZ 00492170 f   scrollingtext.obj
 0001:000911c0       ?Update@ScrollingText@@QAEXI@Z 004921c0 f   scrollingtext.obj
 0001:00091200       ?ClipText@ScrollingText@@AAEXHH@Z 00492200 f   scrollingtext.obj
 0001:00091400       ??0Slider@@QAE@W4eSliderType@0@@Z 00492400 f   slider.obj
 0001:00091430       ?SetScroobyPolygon@Slider@@QAEXPAVPolygon@Scrooby@@PAVSprite@3@@Z 00492430 f   slider.obj
 0001:000914f0       ?SetValue@Slider@@UAEXM@Z  004924f0 f   slider.obj
 0001:000916c0       ??0ImageSlider@@QAE@W4eSliderType@Slider@@@Z 004926c0 f   slider.obj
 0001:000916d0       ?SetValue@ImageSlider@@UAEXM_N@Z 004926d0 f   slider.obj
 0001:00091990       ?Flash@GuiSFX@@YA_NPAVBoundedDrawable@Scrooby@@MMHMM@Z 00492990 f   specialfx.obj
 0001:00091a40       ?Blink@GuiSFX@@YA_NPAVDrawable@Scrooby@@MM_N@Z 00492a40 f   specialfx.obj
 0001:00091ab0       ?Pulse@GuiSFX@@YAMMMMMM@Z  00492ab0 f   specialfx.obj
 0001:00091ad0       ?ModulateColour@GuiSFX@@YAXPAUpddiColour@@MMU2@1M@Z 00492ad0 f   specialfx.obj
 0001:00091bc0       ?Spiral@GuiSFX@@YA_NPAVBoundedDrawable@Scrooby@@MMMMM_N@Z 00492bc0 f   specialfx.obj
