 SRR2wr

 Timestamp is 3ed7bf7d (Fri May 30 13:30:53 2003)

 Preferred load address is 00400000

 Start         Length     Name                   Class
 0001:00000000 001b3e5fH .text                   CODE
 0001:001b3e60 0000aa22H .text$x                 CODE
 0001:001be890 0000a1c0H .text$yc                CODE
 0001:001c8a50 000003b0H .text$yd                CODE
 0002:00000000 0000024cH .idata$5                DATA
 0002:00000250 00026300H .rdata                  DATA
 0002:00026550 0001bce4H .rdata$r                DATA
 0002:00042234 00000004H .rtc$IAA                DATA
 0002:00042238 00000004H .rtc$IZZ                DATA
 0002:0004223c 00000004H .rtc$TAA                DATA
 0002:00042240 00000004H .rtc$TZZ                DATA
 0002:00042248 0000b7ecH .xdata$x                DATA
 0002:0004da34 00000064H .idata$2                DATA
 0002:0004da98 00000014H .idata$3                DATA
 0002:0004daac 0000024cH .idata$4                DATA
 0002:0004dcf8 00000a3cH .idata$6                DATA
 0002:0004e740 000002e4H .edata                  DATA
 0003:00000000 00000004H .CRT$XCA                DATA
 0003:00000004 00000004H .CRT$XCAA               DATA
 0003:00000008 00001224H .CRT$XCU                DATA
 0003:0000122c 00000004H .CRT$XCZ                DATA
 0003:00001230 00000004H .CRT$XIA                DATA
 0003:00001234 00000010H .CRT$XIC                DATA
 0003:00001244 00000004H .CRT$XIY                DATA
 0003:00001248 00000004H .CRT$XIZ                DATA
 0003:0000124c 00000004H .CRT$XPA                DATA
 0003:00001250 00000004H .CRT$XPX                DATA
 0003:00001254 00000004H .CRT$XPZ                DATA
 0003:00001258 00000004H .CRT$XTA                DATA
 0003:0000125c 00000004H .CRT$XTB                DATA
 0003:00001260 00000004H .CRT$XTZ                DATA
 0003:00001270 000215f0H .data                   DATA
 0003:00022860 0005fa58H .bss                    DATA

  Address         Publics by Value              Rva+Base     Lib:Object

 0000:00000000       __except_list              00000000     <absolute>
 0001:00000000       ?StoreHandlingCollisions@tTempStore@@UAEXPAVtEntity@@@Z 00401000 f i pure3dwr:loadmanager.obj
 0001:00000000       ?Update@ButtonHandler@ActionButton@@UAEXM@Z 00401000 f i actionbuttonhandler.obj
 0001:00000010       ?HasFootGroundFixup@BlendFootDriver@choreo@@UBE_NXZ 00401010 f i choreowr:blend.obj
 0001:00000010       ?UsesActionButton@PurchaseSkin@ActionButton@@UBE_NXZ 00401010 f i actionbuttonhandler.obj
 0001:00000010       ?HasRootGroundFixup@LocomotionRootDriver@choreo@@UBE_NXZ 00401010 f i choreowr:locomotion.obj
 0001:00000010       ?NeedsUpdate@SummonVehiclePhone@ActionButton@@MBE_NXZ 00401010 f i actionbuttonhandler.obj
 0001:00000010       ?IsClose@DamageCondition@@UAE_NXZ 00401010 f i damagecondition.obj
 0001:00000010       ?IsChaseCondition@RaceCondition@@UAE_NXZ 00401010 f i racecondition.obj
 0001:00000010       ?HasRootRotation@RootTransformController@choreo@@UBE_NXZ 00401010 f i choreowr:root.obj
 0001:00000010       ?MovesDrawable@PulseScale@GuiSFX@@UBE_NXZ 00401010 f i transitions.obj
 0001:00000010       ?GetIsCyclic@AutoPlayAnimLoop@ActionButton@@MBE_NXZ 00401010 f i actionbuttonhandler.obj
 0001:00000010       ?IsChaseCondition@FollowCondition@@UAE_NXZ 00401010 f i followcondition.obj
 0001:00000010       ?CanLoad@tDXTNHandler@@UAE_NXZ 00401010 f i pure3dwr:imagefactory.obj
 0001:00000010       ?ShouldRespawn@RespawnCollectible@ActionButton@@MBE_NXZ 00401010 f i actionbuttonhandler.obj
 0001:00000010       ?IsInstanceEnabled@ButtonHandler@ActionButton@@UBE_NXZ 00401010 f i actionbuttonhandler.obj
 0001:00000010       ?IsSuperSprint@SuperSprintManager@@UAE_NXZ 00401010 f i supersprintmanager.obj
 0001:00000010       ?IsSundayDrive@SuperSprintManager@@UAE_NXZ 00401010 f i supersprintmanager.obj
 0001:00000010       ?CanLoad@tPNGHandler@@UAE_NXZ 00401010 f i win32platform.obj
 0001:00000010       ?MovesDrawable@Translator@GuiSFX@@UBE_NXZ 00401010 f i transitions.obj
 0001:00000010       ?HasRootRotation@LocomotionRootDriver@choreo@@UBE_NXZ 00401010 f i choreowr:locomotion.obj
 0001:00000010       ?IsCar@Vehicle@@UBE_NXZ    00401010 f i vehicle.obj
 0001:00000010       ?HasRootGroundFixup@RootTransformController@choreo@@UBE_NXZ 00401010 f i choreowr:root.obj
 0001:00000010       ?CanLoad@tBMPHandler@@UAE_NXZ 00401010 f i win32platform.obj
 0001:00000010       ?IsSlave@SlaveAction@@UBE_NXZ 00401010 f i action.obj
 0001:00000010       ?IsOwner@FeOwner@@UBE_NXZ  00401010 f i scroobywr:FeOwner.obj
 0001:00000010       ?UsesActionButton@PurchaseCar@ActionButton@@UBE_NXZ 00401010 f i actionbuttonhandler.obj
 0001:00000010       ?CanSwitch@SuperCam@@MAE_NXZ 00401010 f i animatedcam.obj
 0001:00000010       ?NeedsUpdate@PurchaseReward@ActionButton@@MBE_NXZ 00401010 f i actionbuttonhandler.obj
 0001:00000010       ?MovesDrawable@Spin@GuiSFX@@UBE_NXZ 00401010 f i transitions.obj
 0001:00000010       ?IsPage@FePage@@UBE_NXZ    00401010 f i scroobywr:FePage.obj
 0001:00000010       ?RequiresPushTransforForDisplay@SimState@sim@@UBE_NXZ 00401010 f i simwr:simstate.obj
 0001:00000010       ?NeedsUpdate@Collectible@ActionButton@@MBE_NXZ 00401010 f i actionbuttonhandler.obj
 0001:00000010       ?IsValid@FeTextChildHardCodedString@@UAE_NXZ 00401010 f i scroobywr:FeText.obj
 0001:00000010       ?CanLoad@tTargaHandler@@UAE_NXZ 00401010 f i win32platform.obj
 0001:00000010       ?HasAlpha@StatePropDSG@@UBE_NXZ 00401010 f i actordsg.obj
 0001:00000010       ?DeformationEmpty@PhysicsJoint0D@sim@@UBE_NXZ 00401010 f i simwr:physicsjoint.obj
 0001:00000010       ?ForceReleasePlayer@MusicSoundPlayer@Sound@@UAE_NXZ 00401010 f i musicsoundplayer.obj
 0001:00000010       ?HasRootTranslation@RootTransformController@choreo@@UBE_NXZ 00401010 f i choreowr:root.obj
 0001:00000010       ?CanLoad@tRawImageHandler@@UAE_NXZ 00401010 f i pure3dwr:imagefactory.obj
 0001:00000010       ?IsClose@MissionCondition@@UAE_NXZ 00401010 f i missioncondition.obj
 0001:00000010       ?HasFootPlanted@BlendFootDriver@choreo@@UBE_NXZ 00401010 f i choreowr:blend.obj
 0001:00000010       ?IsCaptured@MusicSoundPlayer@Sound@@UAE_NXZ 00401010 f i musicsoundplayer.obj
 0001:00000010       ?IsDrawable@FeDrawable@@UAE_NXZ 00401010 f i scroobywr:FeScreen.obj
 0001:00000010       ?HasRootTranslation@LocomotionRootDriver@choreo@@UBE_NXZ 00401010 f i choreowr:locomotion.obj
 0001:00000010       ?MovesDrawable@UnderdampedTranslator@GuiSFX@@UBE_NXZ 00401010 f i transitions.obj
 0001:00000010       ?UsesActionButton@ButtonHandler@ActionButton@@UBE_NXZ 00401010 f i actionbuttonhandler.obj
 0001:00000010       ?CanSave@tTargaHandler@@UAE_NXZ 00401010 f i win32platform.obj
 0001:00000010       ?IsClose@FollowCondition@@UAE_NXZ 00401010 f i followcondition.obj
 0001:00000020       ?Reset@ButtonHandler@ActionButton@@UAEXXZ 00401020 f i actionbuttonhandler.obj
 0001:00000030       ?GetDataType@PedGroupLocator@@UBE?AW4Type@LocatorType@@XZ 00401030 f i locatorloader.obj
 0001:00000030       ?GetType@ActionEventHandler@ActionButton@@UAE?AW4Type@ButtonHandler@2@XZ 00401030 f i actionbuttonhandler.obj
 0001:00000030       ?GetType@ButtonHandler@ActionButton@@UAE?AW4Type@12@XZ 00401030 f i actionbuttonhandler.obj
 0001:00000030       ?GetType@RailCam@@UAE?AW4Type@SuperCam@@XZ 00401030 f i railcam.obj
 0001:00000040       ?OnButtonPressed@AutoPlayAnim@ActionButton@@MAE_NPAVCharacter@@PAVSequencer@@@Z 00401040 f i actionbuttonhandler.obj
 0001:00000040       ?OnButtonPressed@AutomaticDoor@ActionButton@@MAE_NPAVCharacter@@PAVSequencer@@@Z 00401040 f i automaticdoor.obj
 0001:00000040       ?GetBoundingBox@RectTriggerVolume@@UBE_NAAVVector@RadicalMathLibrary@@0@Z 00401040 f i recttriggervolume.obj
 0001:00000040       ?SaveImage@tBMPHandler@@UAE_NPAVtImage@@PAD@Z 00401040 f i pure3dwr:bmp.obj
 0001:00000040       ?SaveImage@tImageHandler@@UAE_NPAVtImage@@PAD@Z 00401040 f i pure3dwr:imagefactory.obj
 0001:00000040       ?SaveImage@tPNGHandler@@UAE_NPAVtImage@@PAD@Z 00401040 f i pure3dwr:png.obj
 0001:00000040       ?OnButtonPressed@ButtonHandler@ActionButton@@MAE_NPAVCharacter@@PAVSequencer@@@Z 00401040 f i actionbuttonhandler.obj
 0001:00000040       ?ImpulseReaction@PhysicsJoint0D@sim@@MAE_NABVVector@RadicalMathLibrary@@AAV34@@Z 00401040 f i simwr:physicsjoint.obj
 0001:00000040       ?SaveImage@tDXTNHandler@@UAE_NPAVtImage@@PAD@Z 00401040 f i pure3dwr:dxtn.obj
 0001:00000040       ?OnButtonPressed@AutoPlayAnimInOut@ActionButton@@MAE_NPAVCharacter@@PAVSequencer@@@Z 00401040 f i actionbuttonhandler.obj
 0001:00000050       ?GetType@EnterInterior@ActionButton@@UAE?AW4Type@ButtonHandler@2@XZ 00401050 f i actionbuttonhandler.obj
 0001:00000050       ?GetStateID@GetIn@CharacterAi@@UBE?AW4CharacterState@2@XZ 00401050 f i state.obj
 0001:00000050       ?GetDataType@CarStartLocator@@UBE?AW4Type@LocatorType@@XZ 00401050 f i carstartlocator.obj
 0001:00000060       ?GetDataType@InteriorEntranceLocator@@UBE?AW4Type@LocatorType@@XZ 00401060 f i interiorentrancelocator.obj
 0001:00000060       ?GetType@GetInCar@ActionButton@@UAE?AW4Type@ButtonHandler@2@XZ 00401060 f i actionbuttonhandler.obj
 0001:00000060       ?GetType@WrecklessCam@@UAE?AW4Type@SuperCam@@XZ 00401060 f i wrecklesscam.obj
 0001:00000070       ?UsesActionButton@AnimSwitch@ActionButton@@UBE_NXZ 00401070 f i actionbuttonhandler.obj
 0001:00000070       ?IsSleeping@Task@@QAE_NXZ  00401070 f i task.obj
 0001:00000080       ?NeedsUpdate@AnimSwitch@ActionButton@@UBE_NXZ 00401080 f i actionbuttonhandler.obj
 0001:00000090       ?GetType@AnimSwitch@ActionButton@@UAE?AW4Type@ButtonHandler@2@XZ 00401090 f i actionbuttonhandler.obj
 0001:00000090       ?GetAIRef@FenceEntityDSG@@UAEHXZ 00401090 f i FenceEntityDSG.obj
 0001:00000090       ?GetStateID@GetOut@CharacterAi@@UBE?AW4CharacterState@2@XZ 00401090 f i state.obj
 0001:00000090       ?GetDataType@SplineLocator@@UBE?AW4Type@LocatorType@@XZ 00401090 f i splinelocator.obj
 0001:00000090       ?GetType@BumperCam@@UAE?AW4Type@SuperCam@@XZ 00401090 f i bumpercam.obj
 0001:000000a0       ?IsInstanceEnabled@DestroyObject@ActionButton@@UBE_NXZ 004010a0 f i actionbuttonhandler.obj
 0001:000000a0       ?IsInitialized@daSoundRenderingManager@Sound@@UAE_NXZ 004010a0 f i soundrenderingmanager.obj
 0001:000000a0       ?GetLoadString@radTypeInfoSystem@@UAE_NXZ 004010a0 f i radscriptwr:TypeInfoSystem.obj
 0001:000000a0       ?GetAutoRepack@tInventory@@UAE_NXZ 004010a0 f i pure3dwr:inventory.obj
 0001:000000b0       ?GetGroundPlaneAIRef@Vehicle@@UAEHXZ 004010b0 f i vehicleinit.obj
 0001:000000b0       ?GetDataType@Locator@@UBE?AW4Type@LocatorType@@XZ 004010b0 f i locator.obj
 0001:000000b0       ?GetType@SummonVehiclePhone@ActionButton@@UAE?AW4Type@ButtonHandler@2@XZ 004010b0 f i actionbuttonhandler.obj
 0001:000000b0       ?GetStateID@InCar@CharacterAi@@UBE?AW4CharacterState@2@XZ 004010b0 f i state.obj
 0001:000000c0       ?SetPitch@MusicSoundPlayer@Sound@@UAE_NM@Z 004010c0 f i musicsoundplayer.obj
 0001:000000c0       ?IsScreenLoaded@FeProject@@UAE_NPAVScreen@Scrooby@@@Z 004010c0 f i scroobywr:FeProject.obj
 0001:000000c0       ?Create@Collectible@ActionButton@@UAE_NPAVtEntityStore@@@Z 004010c0 f i actionbuttonhandler.obj
 0001:000000c0       ?DoPreDynaLoad@RenderLayer@@UAE_NAAVtName@@@Z 004010c0 f i RenderLayer.obj
 0001:000000c0       ?IsCacheEmpty@ArticulatedPhysicsObject@sim@@UBE_NH@Z 004010c0 f i simwr:articulatedphysicsobject.obj
 0001:000000c0       ?IsActionButtonPressed@AutoPlayAnimInOut@ActionButton@@MAE_NPAVCharacter@@@Z 004010c0 f i actionbuttonhandler.obj
 0001:000000c0       ?SuspendOnlyIfTooQuiet@daSoundPlayer@Sound@@QAE_NXZ 004010c0 f i dasoundplayer.obj
 0001:000000c0       ?IsActionButtonPressed@AutoPlayAnim@ActionButton@@MAE_NPAVCharacter@@@Z 004010c0 f i actionbuttonhandler.obj
 0001:000000c0       ?IsButtonDown@NPCController@@UBE_NH@Z 004010c0 f i charactercontroller.obj
 0001:000000c0       ?OnButtonPressed@SummonVehiclePhone@ActionButton@@MAE_NPAVCharacter@@@Z 004010c0 f i actionbuttonhandler.obj
 0001:000000c0       ?IsButtonDown@Pedestrian@@UBE_NH@Z 004010c0 f i pedestrian.obj
 0001:000000d0       ?IsRespawnTimeExpired@Collectible@ActionButton@@MBE_NXZ 004010d0 f i actionbuttonhandler.obj
 0001:000000f0       ?UpdateRespawnTime@RespawnCollectible@ActionButton@@MAEXM@Z 004010f0 f i actionbuttonhandler.obj
 0001:00000100       ?GetType@CollectibleCard@ActionButton@@UAE?AW4Type@ButtonHandler@2@XZ 00401100 f i actionbuttonhandler.obj
 0001:00000100       ?GetDataType@DirectionalLocator@@UBE?AW4Type@LocatorType@@XZ 00401100 f i directionallocator.obj
 0001:00000100       ?char_instance_size@ods@@YAIABVpointer@1@@Z 00401100 f i radmusicwr:ods.obj
 0001:00000100       ?nPts@BoxPts@@UAEHXZ       00401100 f i BoxPts.obj
 0001:00000100       ?GetType@WalkerCam@@UAE?AW4Type@SuperCam@@XZ 00401100 f i walkercam.obj
 0001:00000100       ?bool_instance_size@ods@@YAIABVpointer@1@@Z 00401100 f i radmusicwr:ods.obj
 0001:00000110       ?GetDataType@FOVLocator@@UBE?AW4Type@LocatorType@@XZ 00401110 f i fovlocator.obj
 0001:00000110       ?GetPriority@PhysicsJointMatrixModifier@sim@@UBEHXZ 00401110 f i vehicleinit.obj
 0001:00000110       ?GetType@WrenchIcon@ActionButton@@UAE?AW4Type@ButtonHandler@2@XZ 00401110 f i actionbuttonhandler.obj
 0001:00000110       ?GetType@KullCam@@UAE?AW4Type@SuperCam@@XZ 00401110 f i kullcam.obj
 0001:00000120       ?GetType@NitroIcon@ActionButton@@UAE?AW4Type@ButtonHandler@2@XZ 00401120 f i actionbuttonhandler.obj
 0001:00000120       ?GetType@TrackerCam@@UAE?AW4Type@SuperCam@@XZ 00401120 f i trackercam.obj
 0001:00000120       ?GetPriority@PhysicsJointInertialEffector@sim@@UBEHXZ 00401120 f i vehicleinit.obj
 0001:00000130       ?GetDataType@StaticCamLocator@@UBE?AW4Type@LocatorType@@XZ 00401130 f i staticcamlocator.obj
 0001:00000130       ?GetType@TeleportAction@ActionButton@@UAE?AW4Type@ButtonHandler@2@XZ 00401130 f i actionbuttonhandler.obj
 0001:00000140       ?OnButtonPressed@PurchaseReward@ActionButton@@MAE_NPAVCharacter@@PAVSequencer@@@Z 00401140 f i actionbuttonhandler.obj
 0001:00000150       ?GetAbsoluteMaxObjects@ChaseManager@@UBEHXZ 00401150 f i chasemanager.obj
 0001:00000150       ?GetType@PurchaseCar@ActionButton@@UAE?AW4Type@ButtonHandler@2@XZ 00401150 f i actionbuttonhandler.obj
 0001:00000150       ?GetDataType@ZoneEventLocator@@UBE?AW4Type@LocatorType@@XZ 00401150 f i zoneeventlocator.obj
 0001:00000150       ?GetType@ChaseCam@@UAE?AW4Type@SuperCam@@XZ 00401150 f i chasecam.obj
 0001:00000160       ?GetDataType@OcclusionLocator@@UBE?AW4Type@LocatorType@@XZ 00401160 f i occlusionlocator.obj
 0001:00000160       ?GetType@DebugCam@@UAE?AW4Type@SuperCam@@XZ 00401160 f i debugcam.obj
 0001:00000160       ?GetType@PurchaseSkin@ActionButton@@UAE?AW4Type@ButtonHandler@2@XZ 00401160 f i actionbuttonhandler.obj
 0001:00000170       ??3State@CharacterAi@@SAXPAXI@Z 00401170 f i actionbuttonhandler.obj
 0001:00000190       ?GetPosition@Character@@QBEXAAVVector@RadicalMathLibrary@@@Z 00401190 f i actionbuttonhandler.obj
 0001:000001e0       ??3Action@@SAXPAXI@Z       004011e0 f i actionbuttonhandler.obj
 0001:00000200       ?WakeUp@TriggerEventAction@@UAEXM@Z 00401200 f i actionbuttonhandler.obj
 0001:00000230       ??_EAction@@UAEPAXI@Z      00401230 f i actionbuttonhandler.obj
 0001:00000230       ??_GAction@@UAEPAXI@Z      00401230 f i actionbuttonhandler.obj
 0001:00000260       ?WakeUp@AssignValueToFloat@@UAEXM@Z 00401260 f i actionbuttonhandler.obj
 0001:00000280       ?GetControllerIDforPlayer@InputManager@@QBEHH@Z 00401280 f i actionbuttonhandler.obj
 0001:000002a0       ??0AnimCollisionEntityDSGWrapper@ActionButton@@QAE@XZ 004012a0 f   actionbuttonhandler.obj
 0001:000002c0       ??_GAnimCollisionEntityDSGWrapper@ActionButton@@UAEPAXI@Z 004012c0 f i actionbuttonhandler.obj
 0001:000002c0       ??_EAnimCollisionEntityDSGWrapper@ActionButton@@UAEPAXI@Z 004012c0 f i actionbuttonhandler.obj
 0001:000002e0       ??1AnimCollisionEntityDSGWrapper@ActionButton@@UAE@XZ 004012e0 f   actionbuttonhandler.obj
 0001:00000300       ?UpdateVisibility@AnimCollisionEntityDSGWrapper@ActionButton@@UAEXXZ 00401300 f   actionbuttonhandler.obj
 0001:00000310       ?SetEvent@RecieveEvent@GuiSFX@@QAEXW4EventEnum@@@Z 00401310 f   transitions.obj
 0001:00000310       ?SetEventData@SendEvent@GuiSFX@@QAEXPAX@Z 00401310 f   transitions.obj
 0001:00000310       ?SetGameObject@AnimCollisionEntityDSGWrapper@ActionButton@@QAEXPAVAnimCollisionEntityDSG@@@Z 00401310 f   actionbuttonhandler.obj
 0001:00000320       ?GetAnimationDirection@AnimCollisionEntityDSGWrapper@ActionButton@@UAEAAMXZ 00401320 f   actionbuttonhandler.obj
 0001:00000330       ?SetAnimationDirection@AnimCollisionEntityDSGWrapper@ActionButton@@UAEXM@Z 00401330 f   actionbuttonhandler.obj
 0001:00000340       ?GetAnimController@AnimCollisionEntityDSGWrapper@ActionButton@@UBEPAVtMultiController@@XZ 00401340 f   actionbuttonhandler.obj
 0001:00000350       ?GetDrawable@AnimCollisionEntityDSGWrapper@ActionButton@@UBEPAVtCompositeDrawable@@XZ 00401350 f   actionbuttonhandler.obj
 0001:00000360       ??0ButtonHandler@ActionButton@@QAE@XZ 00401360 f   actionbuttonhandler.obj
 0001:00000380       ??_GButtonHandler@ActionButton@@UAEPAXI@Z 00401380 f i actionbuttonhandler.obj
 0001:00000380       ??_EButtonHandler@ActionButton@@UAEPAXI@Z 00401380 f i actionbuttonhandler.obj
 0001:000003a0       ??1ButtonHandler@ActionButton@@UAE@XZ 004013a0 f   actionbuttonhandler.obj
 0001:000003b0       ?ButtonPressed@ButtonHandler@ActionButton@@UAE_NPAVCharacter@@@Z 004013b0 f   actionbuttonhandler.obj
 0001:00000400       ?Enter@ButtonHandler@ActionButton@@UAEXPAVCharacter@@@Z 00401400 f   actionbuttonhandler.obj
 0001:00000400       ?Read@tFile@@UAE_NPAXII@Z  00401400 f   pure3dwr:file.obj
 0001:00000410       ?Exit@ButtonHandler@ActionButton@@UAEXPAVCharacter@@@Z 00401410 f   actionbuttonhandler.obj
 0001:00000420       ?IsActionButtonPressed@ButtonHandler@ActionButton@@MAE_NPAVCharacter@@@Z 00401420 f   actionbuttonhandler.obj
 0001:00000440       ??0PropHandler@ActionButton@@QAE@XZ 00401440 f   actionbuttonhandler.obj
 0001:00000460       ??_EPropHandler@ActionButton@@UAEPAXI@Z 00401460 f i actionbuttonhandler.obj
 0001:00000460       ??_GPropHandler@ActionButton@@UAEPAXI@Z 00401460 f i actionbuttonhandler.obj
 0001:00000480       ??1PropHandler@ActionButton@@UAE@XZ 00401480 f   actionbuttonhandler.obj
 0001:000004e0       ?GetProp@PropHandler@ActionButton@@QBEPAVInstDynaPhysDSG@@XZ 004014e0 f   actionbuttonhandler.obj
 0001:000004f0       ?OnButtonPressed@AttachProp@ActionButton@@MAE_NPAVCharacter@@PAVSequencer@@@Z 004014f0 f   actionbuttonhandler.obj
 0001:00000510       ??0EnterInterior@ActionButton@@QAE@PAVInteriorEntranceLocator@@@Z 00401510 f   actionbuttonhandler.obj
 0001:00000540       ??_EEnterInterior@ActionButton@@UAEPAXI@Z 00401540 f i actionbuttonhandler.obj
 0001:00000540       ??_GEnterInterior@ActionButton@@UAEPAXI@Z 00401540 f i actionbuttonhandler.obj
 0001:00000560       ??1EnterInterior@ActionButton@@UAE@XZ 00401560 f   actionbuttonhandler.obj
 0001:00000570       ?SetNextTransition@Chainable1@GuiSFX@@QAEXAAVChainable@2@@Z 00401570 f   transitions.obj
 0001:00000570       ?SetLocator@EnterInterior@ActionButton@@QAEXPAVInteriorEntranceLocator@@@Z 00401570 f   actionbuttonhandler.obj
 0001:00000570       ?SetNextTransition@Chainable1@GuiSFX@@QAEXPAVChainable@2@@Z 00401570 f   transitions.obj
 0001:00000570       ?SetScroobyImage@ImageSlider@@QAEXPAVSprite@Scrooby@@@Z 00401570 f   slider.obj
 0001:00000580       ?OnButtonPressed@EnterInterior@ActionButton@@MAE_NPAVCharacter@@PAVSequencer@@@Z 00401580 f   actionbuttonhandler.obj
 0001:000005a0       ??0GetInCar@ActionButton@@QAE@PAVEventLocator@@@Z 004015a0 f   actionbuttonhandler.obj
 0001:00000600       ??_GGetInCar@ActionButton@@UAEPAXI@Z 00401600 f i actionbuttonhandler.obj
 0001:00000600       ??_EGetInCar@ActionButton@@UAEPAXI@Z 00401600 f i actionbuttonhandler.obj
 0001:00000620       ??1GetInCar@ActionButton@@UAE@XZ 00401620 f   actionbuttonhandler.obj
 0001:00000690       ?OnButtonPressed@GetInCar@ActionButton@@MAE_NPAVCharacter@@PAVSequencer@@@Z 00401690 f   actionbuttonhandler.obj
 0001:00000700       ??0ActionEventHandler@ActionButton@@QAE@PAVActionEventLocator@@@Z 00401700 f   actionbuttonhandler.obj
 0001:00000760       ??_EActionEventHandler@ActionButton@@UAEPAXI@Z 00401760 f i actionbuttonhandler.obj
 0001:00000760       ??_GActionEventHandler@ActionButton@@UAEPAXI@Z 00401760 f i actionbuttonhandler.obj
 0001:00000780       ??1ActionEventHandler@ActionButton@@UAE@XZ 00401780 f   actionbuttonhandler.obj
 0001:000007f0       ??0AnimSwitch@ActionButton@@QAE@PAVActionEventLocator@@@Z 004017f0 f   actionbuttonhandler.obj
 0001:00000880       ??_GAnimSwitch@ActionButton@@UAEPAXI@Z 00401880 f i actionbuttonhandler.obj
 0001:00000880       ??_EAnimSwitch@ActionButton@@UAEPAXI@Z 00401880 f i actionbuttonhandler.obj
 0001:000008a0       ??1AnimSwitch@ActionButton@@UAE@XZ 004018a0 f   actionbuttonhandler.obj
 0001:00000910       ?Create@AnimSwitch@ActionButton@@UAE_NPAVtEntityStore@@@Z 00401910 f   actionbuttonhandler.obj
 0001:000009e0       ?OnReset@AnimSwitch@ActionButton@@MAEXXZ 004019e0 f   actionbuttonhandler.obj
 0001:00000a20       ?Init@AnimSwitch@ActionButton@@QAEXPAUIGameObjectWrapper@2@PAVJoint@tPose@@_N@Z 00401a20 f   actionbuttonhandler.obj
 0001:00000aa0       ?GetAnimationDirection@AnimSwitch@ActionButton@@QAEAAMXZ 00401aa0 f   actionbuttonhandler.obj
 0001:00000ab0       ?SetAnimationDirection@AnimSwitch@ActionButton@@QAEXM@Z 00401ab0 f   actionbuttonhandler.obj
 0001:00000ac0       ?GetAnimController@AnimSwitch@ActionButton@@QBEPAVtMultiController@@XZ 00401ac0 f   actionbuttonhandler.obj
 0001:00000ad0       ?Update@AnimSwitch@ActionButton@@UAEXM@Z 00401ad0 f   actionbuttonhandler.obj
 0001:00000b20       ?ButtonPressed@AnimSwitch@ActionButton@@UAE_NPAVCharacter@@@Z 00401b20 f   actionbuttonhandler.obj
 0001:00000b80       ?PositionCharacter@AnimSwitch@ActionButton@@MAEXPAVCharacter@@PAVSequencer@@@Z 00401b80 f   actionbuttonhandler.obj
 0001:00000d10       ?SetAnimation@AnimSwitch@ActionButton@@MAEXPAVCharacter@@PAVSequencer@@@Z 00401d10 f   actionbuttonhandler.obj
 0001:00000de0       ??0ToggleAnim@ActionButton@@QAE@PAVActionEventLocator@@@Z 00401de0 f   actionbuttonhandler.obj
 0001:00000e00       ??_GToggleAnim@ActionButton@@UAEPAXI@Z 00401e00 f i actionbuttonhandler.obj
 0001:00000e00       ??_EToggleAnim@ActionButton@@UAEPAXI@Z 00401e00 f i actionbuttonhandler.obj
 0001:00000e20       ??1ToggleAnim@ActionButton@@UAE@XZ 00401e20 f   actionbuttonhandler.obj
 0001:00000e30       ?OnButtonPressed@ToggleAnim@ActionButton@@MAE_NPAVCharacter@@PAVSequencer@@@Z 00401e30 f   actionbuttonhandler.obj
 0001:00000f20       ?OnButtonPressed@ReverseAnim@ActionButton@@MAE_NPAVCharacter@@PAVSequencer@@@Z 00401f20 f   actionbuttonhandler.obj
 0001:00000ff0       ??0PlayAnim@ActionButton@@QAE@PAVActionEventLocator@@@Z 00401ff0 f   actionbuttonhandler.obj
 0001:00001010       ??_EPlayAnim@ActionButton@@UAEPAXI@Z 00402010 f i actionbuttonhandler.obj
 0001:00001010       ??_GPlayAnim@ActionButton@@UAEPAXI@Z 00402010 f i actionbuttonhandler.obj
 0001:00001030       ??1PlayAnim@ActionButton@@UAE@XZ 00402030 f   actionbuttonhandler.obj
 0001:00001040       ?OnButtonPressed@PlayAnim@ActionButton@@MAE_NPAVCharacter@@PAVSequencer@@@Z 00402040 f   actionbuttonhandler.obj
 0001:00001150       ??0PlayAnimLoop@ActionButton@@QAE@PAVActionEventLocator@@@Z 00402150 f   actionbuttonhandler.obj
 0001:00001170       ??_GPlayAnimLoop@ActionButton@@UAEPAXI@Z 00402170 f i actionbuttonhandler.obj
 0001:00001170       ??_EPlayAnimLoop@ActionButton@@UAEPAXI@Z 00402170 f i actionbuttonhandler.obj
 0001:00001190       ??1PlayAnimLoop@ActionButton@@UAE@XZ 00402190 f   actionbuttonhandler.obj
 0001:000011a0       ?OnButtonPressed@PlayAnimLoop@ActionButton@@MAE_NPAVCharacter@@PAVSequencer@@@Z 004021a0 f   actionbuttonhandler.obj
 0001:00001270       ??0AutoPlayAnim@ActionButton@@QAE@PAVActionEventLocator@@@Z 00402270 f   actionbuttonhandler.obj
 0001:00001290       ??_EAutoPlayAnim@ActionButton@@UAEPAXI@Z 00402290 f i actionbuttonhandler.obj
 0001:00001290       ??_GAutoPlayAnim@ActionButton@@UAEPAXI@Z 00402290 f i actionbuttonhandler.obj
 0001:000012b0       ??1AutoPlayAnim@ActionButton@@UAE@XZ 004022b0 f   actionbuttonhandler.obj
 0001:000012c0       ?OnEnter@AutoPlayAnim@ActionButton@@UAEXPAVCharacter@@@Z 004022c0 f   actionbuttonhandler.obj
 0001:00001330       ?OnUpdate@AutoPlayAnim@ActionButton@@MAEXM@Z 00402330 f   actionbuttonhandler.obj
 0001:00001360       ?OnExit@AutoPlayAnim@ActionButton@@UAEXPAVCharacter@@@Z 00402360 f   actionbuttonhandler.obj
 0001:00001390       ??0AutoPlayAnimLoop@ActionButton@@QAE@PAVActionEventLocator@@@Z 00402390 f   actionbuttonhandler.obj
 0001:000013a0       ??_GAutoPlayAnimLoop@ActionButton@@UAEPAXI@Z 004023a0 f i actionbuttonhandler.obj
 0001:000013a0       ??_EAutoPlayAnimLoop@ActionButton@@UAEPAXI@Z 004023a0 f i actionbuttonhandler.obj
 0001:000013c0       ??1AutoPlayAnimLoop@ActionButton@@UAE@XZ 004023c0 f   actionbuttonhandler.obj
 0001:000013d0       ??0AutoPlayAnimInOut@ActionButton@@QAE@PAVActionEventLocator@@@Z 004023d0 f   actionbuttonhandler.obj
 0001:000013e0       ??_EAutoPlayAnimInOut@ActionButton@@UAEPAXI@Z 004023e0 f i actionbuttonhandler.obj
 0001:000013e0       ??_GAutoPlayAnimInOut@ActionButton@@UAEPAXI@Z 004023e0 f i actionbuttonhandler.obj
 0001:00001400       ??1AutoPlayAnimInOut@ActionButton@@UAE@XZ 00402400 f   actionbuttonhandler.obj
 0001:00001410       ?OnUpdate@AutoPlayAnimInOut@ActionButton@@MAEXM@Z 00402410 f   actionbuttonhandler.obj
 0001:00001470       ?OnExit@AutoPlayAnimInOut@ActionButton@@MAEXPAVCharacter@@@Z 00402470 f   actionbuttonhandler.obj
 0001:00001490       ??0DestroyObject@ActionButton@@QAE@PAVActionEventLocator@@@Z 00402490 f   actionbuttonhandler.obj
 0001:000014c0       ??_GDestroyObject@ActionButton@@UAEPAXI@Z 004024c0 f i actionbuttonhandler.obj
 0001:000014c0       ??_EDestroyObject@ActionButton@@UAEPAXI@Z 004024c0 f i actionbuttonhandler.obj
 0001:000014e0       ??1DestroyObject@ActionButton@@UAE@XZ 004024e0 f   actionbuttonhandler.obj
 0001:00001510       ?Create@DestroyObject@ActionButton@@UAE_NPAVtEntityStore@@@Z 00402510 f   actionbuttonhandler.obj
 0001:00001560       ?Enter@DestroyObject@ActionButton@@UAEXPAVCharacter@@@Z 00402560 f   actionbuttonhandler.obj
 0001:00001570       ?OnReset@DestroyObject@ActionButton@@MAEXXZ 00402570 f   actionbuttonhandler.obj
 0001:000015a0       ?OnButtonPressed@DestroyObject@ActionButton@@MAE_NPAVCharacter@@PAVSequencer@@@Z 004025a0 f   actionbuttonhandler.obj
 0001:000015c0       ?PositionCharacter@DestroyObject@ActionButton@@MAEXPAVCharacter@@PAVSequencer@@@Z 004025c0 f   actionbuttonhandler.obj
 0001:00001780       ?SetAnimation@DestroyObject@ActionButton@@MAEXPAVCharacter@@PAVSequencer@@@Z 00402780 f   actionbuttonhandler.obj
 0001:00001780       ?SetAnimation@PrankPhone@ActionButton@@MAEXPAVCharacter@@PAVSequencer@@@Z 00402780 f   actionbuttonhandler.obj
 0001:00001800       ?RecieveEvent@DestroyObject@ActionButton@@UAEXHPAVCStateProp@@@Z 00402800 f   actionbuttonhandler.obj
 0001:00001840       ??0UseVendingMachine@ActionButton@@QAE@PAVActionEventLocator@@@Z 00402840 f   actionbuttonhandler.obj
 0001:00001850       ??_EUseVendingMachine@ActionButton@@UAEPAXI@Z 00402850 f i actionbuttonhandler.obj
 0001:00001850       ??_GUseVendingMachine@ActionButton@@UAEPAXI@Z 00402850 f i actionbuttonhandler.obj
 0001:00001870       ??1UseVendingMachine@ActionButton@@UAE@XZ 00402870 f   actionbuttonhandler.obj
 0001:00001880       ?SetAnimation@UseVendingMachine@ActionButton@@MAEXPAVCharacter@@PAVSequencer@@@Z 00402880 f   actionbuttonhandler.obj
 0001:00001900       ??0PrankPhone@ActionButton@@QAE@PAVActionEventLocator@@@Z 00402900 f   actionbuttonhandler.obj
 0001:00001910       ??_GPrankPhone@ActionButton@@UAEPAXI@Z 00402910 f i actionbuttonhandler.obj
 0001:00001910       ??_EPrankPhone@ActionButton@@UAEPAXI@Z 00402910 f i actionbuttonhandler.obj
 0001:00001930       ??1PrankPhone@ActionButton@@UAE@XZ 00402930 f   actionbuttonhandler.obj
 0001:00001940       ?OnButtonPressed@UseVendingMachine@ActionButton@@MAE_NPAVCharacter@@PAVSequencer@@@Z 00402940 f   actionbuttonhandler.obj
 0001:00001940       ?OnButtonPressed@PrankPhone@ActionButton@@MAE_NPAVCharacter@@PAVSequencer@@@Z 00402940 f   actionbuttonhandler.obj
 0001:00001960       ?Create@Doorbell@ActionButton@@UAE_NPAVtEntityStore@@@Z 00402960 f   actionbuttonhandler.obj
 0001:00001a20       ?OnButtonPressed@Doorbell@ActionButton@@MAE_NPAVCharacter@@PAVSequencer@@@Z 00402a20 f   actionbuttonhandler.obj
 0001:00001a60       ??0SummonVehiclePhone@ActionButton@@QAE@PAVActionEventLocator@@@Z 00402a60 f   actionbuttonhandler.obj
 0001:00001b30       ??_GSummonVehiclePhone@ActionButton@@UAEPAXI@Z 00402b30 f i actionbuttonhandler.obj
 0001:00001b30       ??_ESummonVehiclePhone@ActionButton@@UAEPAXI@Z 00402b30 f i actionbuttonhandler.obj
 0001:00001b50       ??1SummonVehiclePhone@ActionButton@@UAE@XZ 00402b50 f   actionbuttonhandler.obj
 0001:00001bf0       ?Create@SummonVehiclePhone@ActionButton@@UAE_NPAVtEntityStore@@@Z 00402bf0 f   actionbuttonhandler.obj
 0001:00001c80       ?UsesActionButton@SummonVehiclePhone@ActionButton@@UBE_NXZ 00402c80 f   actionbuttonhandler.obj
 0001:00001c90       ?OnButtonPressed@SummonVehiclePhone@ActionButton@@MAE_NPAVCharacter@@PAVSequencer@@@Z 00402c90 f   actionbuttonhandler.obj
 0001:00001e80       ?LoadVehicle@SummonVehiclePhone@ActionButton@@SAXPBD0W4DriverInit@VehicleCentral@@@Z 00402e80 f   actionbuttonhandler.obj
 0001:00001f00       ?LoadVehicle@SummonVehiclePhone@ActionButton@@SAXH@Z 00402f00 f   actionbuttonhandler.obj
 0001:00001f40       ?LoadDebugVehicle@SummonVehiclePhone@ActionButton@@SAXXZ 00402f40 f   actionbuttonhandler.obj
 0001:00001f50       ?OnUpdate@SummonVehiclePhone@ActionButton@@MAEXM@Z 00402f50 f   actionbuttonhandler.obj
 0001:00001f90       ??1SummonVehiclePhoneStaticCallback@ActionButton@@QAE@XZ 00402f90 f   actionbuttonhandler.obj
 0001:00001fb0       ?OnProcessRequestsComplete@SummonVehiclePhoneStaticCallback@ActionButton@@UAEXPAX@Z 00402fb0 f   actionbuttonhandler.obj
 0001:000020b0       ?SetAnimation@SummonVehiclePhone@ActionButton@@MAEXPAVCharacter@@PAVSequencer@@@Z 004030b0 f   actionbuttonhandler.obj
 0001:00002130       ?OnEnter@Bounce@ActionButton@@SAXPAVCharacter@@PAVLocator@@@Z 00403130 f   actionbuttonhandler.obj
 0001:00002210       ??0Collectible@ActionButton@@QAE@PAVActionEventLocator@@@Z 00403210 f   actionbuttonhandler.obj
 0001:00002230       ??_ECollectible@ActionButton@@UAEPAXI@Z 00403230 f i actionbuttonhandler.obj
 0001:00002230       ??_GCollectible@ActionButton@@UAEPAXI@Z 00403230 f i actionbuttonhandler.obj
 0001:00002250       ??1Collectible@ActionButton@@UAE@XZ 00403250 f   actionbuttonhandler.obj
 0001:000022b0       ?OnReset@Collectible@ActionButton@@MAEXXZ 004032b0 f   actionbuttonhandler.obj
 0001:000022d0       ?ResetCollectible@Collectible@ActionButton@@UAEXXZ 004032d0 f   actionbuttonhandler.obj
 0001:000022e0       ?OnUpdate@Collectible@ActionButton@@MAEXM@Z 004032e0 f   actionbuttonhandler.obj
 0001:00002360       ?OnEnter@Collectible@ActionButton@@MAEXPAVCharacter@@@Z 00403360 f   actionbuttonhandler.obj
 0001:000023a0       ??0RespawnCollectible@ActionButton@@QAE@PAVActionEventLocator@@@Z 004033a0 f   actionbuttonhandler.obj
 0001:000023c0       ??_GRespawnCollectible@ActionButton@@UAEPAXI@Z 004033c0 f i actionbuttonhandler.obj
 0001:000023c0       ??_ERespawnCollectible@ActionButton@@UAEPAXI@Z 004033c0 f i actionbuttonhandler.obj
 0001:000023e0       ??1RespawnCollectible@ActionButton@@UAE@XZ 004033e0 f   actionbuttonhandler.obj
 0001:000023f0       ??0CollectibleFood@ActionButton@@QAE@PAVActionEventLocator@@M@Z 004033f0 f   actionbuttonhandler.obj
 0001:00002410       ??_ECollectibleFood@ActionButton@@UAEPAXI@Z 00403410 f i actionbuttonhandler.obj
 0001:00002410       ??_GCollectibleFood@ActionButton@@UAEPAXI@Z 00403410 f i actionbuttonhandler.obj
 0001:00002430       ??1CollectibleFood@ActionButton@@UAE@XZ 00403430 f   actionbuttonhandler.obj
 0001:00002440       ?OnEnter@CollectibleFood@ActionButton@@MAEXPAVCharacter@@@Z 00403440 f   actionbuttonhandler.obj
 0001:00002450       ??0CollectibleCard@ActionButton@@QAE@PAVActionEventLocator@@@Z 00403450 f   actionbuttonhandler.obj
 0001:00002470       ??_GCollectibleCard@ActionButton@@UAEPAXI@Z 00403470 f i actionbuttonhandler.obj
 0001:00002470       ??_ECollectibleCard@ActionButton@@UAEPAXI@Z 00403470 f i actionbuttonhandler.obj
 0001:00002490       ??1CollectibleCard@ActionButton@@UAE@XZ 00403490 f   actionbuttonhandler.obj
 0001:00002510       ?Create@CollectibleCard@ActionButton@@UAE_NPAVtEntityStore@@@Z 00403510 f   actionbuttonhandler.obj
 0001:00002660       ?OnEnter@CollectibleCard@ActionButton@@MAEXPAVCharacter@@@Z 00403660 f   actionbuttonhandler.obj
 0001:00002770       ?UpdateThing@CollectibleCard@ActionButton@@SAXI@Z 00403770 f   actionbuttonhandler.obj
 0001:00002780       ??0WrenchIcon@ActionButton@@QAE@PAVActionEventLocator@@@Z 00403780 f   actionbuttonhandler.obj
 0001:000027b0       ??_EWrenchIcon@ActionButton@@UAEPAXI@Z 004037b0 f i actionbuttonhandler.obj
 0001:000027b0       ??_GWrenchIcon@ActionButton@@UAEPAXI@Z 004037b0 f i actionbuttonhandler.obj
 0001:000027d0       ??1WrenchIcon@ActionButton@@UAE@XZ 004037d0 f   actionbuttonhandler.obj
 0001:00002860       ?Create@WrenchIcon@ActionButton@@UAE_NPAVtEntityStore@@@Z 00403860 f   actionbuttonhandler.obj
 0001:00002990       ?OnEnter@WrenchIcon@ActionButton@@MAEXPAVCharacter@@@Z 00403990 f   actionbuttonhandler.obj
 0001:00002a60       ?UpdateThing@WrenchIcon@ActionButton@@SAXI@Z 00403a60 f   actionbuttonhandler.obj
 0001:00002a70       ??0NitroIcon@ActionButton@@QAE@PAVActionEventLocator@@@Z 00403a70 f   actionbuttonhandler.obj
 0001:00002aa0       ??_ENitroIcon@ActionButton@@UAEPAXI@Z 00403aa0 f i actionbuttonhandler.obj
 0001:00002aa0       ??_GNitroIcon@ActionButton@@UAEPAXI@Z 00403aa0 f i actionbuttonhandler.obj
 0001:00002ac0       ??1NitroIcon@ActionButton@@UAE@XZ 00403ac0 f   actionbuttonhandler.obj
 0001:00002b50       ?Create@NitroIcon@ActionButton@@UAE_NPAVtEntityStore@@@Z 00403b50 f   actionbuttonhandler.obj
 0001:00002c80       ?OnEnter@NitroIcon@ActionButton@@MAEXPAVCharacter@@@Z 00403c80 f   actionbuttonhandler.obj
 0001:00002d10       ?UpdateThing@NitroIcon@ActionButton@@SAXI@Z 00403d10 f   actionbuttonhandler.obj
 0001:00002d20       ?Update@NitroIcon@ActionButton@@UAEXM@Z 00403d20 f   actionbuttonhandler.obj
 0001:00002d20       ?Update@WrenchIcon@ActionButton@@UAEXM@Z 00403d20 f   actionbuttonhandler.obj
 0001:00002d80       ??0GenericEventButtonHandler@ActionButton@@QAE@PAVEventLocator@@W4EventEnum@@@Z 00403d80 f   actionbuttonhandler.obj
 0001:00002de0       ??_GGenericEventButtonHandler@ActionButton@@UAEPAXI@Z 00403de0 f i actionbuttonhandler.obj
 0001:00002de0       ??_EGenericEventButtonHandler@ActionButton@@UAEPAXI@Z 00403de0 f i actionbuttonhandler.obj
 0001:00002e00       ??1GenericEventButtonHandler@ActionButton@@UAE@XZ 00403e00 f   actionbuttonhandler.obj
 0001:00002e60       ?NewAction@GenericEventButtonHandler@ActionButton@@SAPAVButtonHandler@2@PAVEventLocator@@W4EventEnum@@W4GameMemoryAllocator@@@Z 00403e60 f   actionbuttonhandler.obj
 0001:00002e90       ?SetEventLocator@GenericEventButtonHandler@ActionButton@@QAEXPAVEventLocator@@@Z 00403e90 f   actionbuttonhandler.obj
 0001:00002e90       ?SetEventLocator@BonusMissionInfo@@QAEXPAVEventLocator@@@Z 00403e90 f   bonusmissioninfo.obj
 0001:00002e90       ?SetActionEventLocator@ActionEventHandler@ActionButton@@QAEXPAVActionEventLocator@@@Z 00403e90 f   actionbuttonhandler.obj
 0001:00002e90       ?SetProp@PropHandler@ActionButton@@QAEXPAVInstDynaPhysDSG@@@Z 00403e90 f   actionbuttonhandler.obj
 0001:00002e90       ?SetEventLocator@GetInCar@ActionButton@@QAEXPAVEventLocator@@@Z 00403e90 f   actionbuttonhandler.obj
 0001:00002eb0       ?OnButtonPressed@GenericEventButtonHandler@ActionButton@@MAE_NPAVCharacter@@PAVSequencer@@@Z 00403eb0 f   actionbuttonhandler.obj
 0001:00002ee0       ??0TeleportAction@ActionButton@@QAE@PAVActionEventLocator@@@Z 00403ee0 f   actionbuttonhandler.obj
 0001:00002f00       ??_ETeleportAction@ActionButton@@UAEPAXI@Z 00403f00 f i actionbuttonhandler.obj
 0001:00002f00       ??_GTeleportAction@ActionButton@@UAEPAXI@Z 00403f00 f i actionbuttonhandler.obj
 0001:00002f20       ??1TeleportAction@ActionButton@@UAE@XZ 00403f20 f   actionbuttonhandler.obj
 0001:00002f60       ?HandleEvent@TeleportAction@ActionButton@@UAEXW4EventEnum@@PAX@Z 00403f60 f   actionbuttonhandler.obj
 0001:000030a0       ?OnButtonPressed@TeleportAction@ActionButton@@MAE_NPAVCharacter@@PAVSequencer@@@Z 004040a0 f   actionbuttonhandler.obj
 0001:000030f0       ?OnEnter@TeleportAction@ActionButton@@MAEXPAVCharacter@@@Z 004040f0 f   actionbuttonhandler.obj
 0001:00003110       ?OnExit@TeleportAction@ActionButton@@MAEXPAVCharacter@@@Z 00404110 f   actionbuttonhandler.obj
 0001:00003130       ??0PurchaseReward@ActionButton@@QAE@PAVActionEventLocator@@@Z 00404130 f   actionbuttonhandler.obj
 0001:00003160       ??_GPurchaseReward@ActionButton@@UAEPAXI@Z 00404160 f i actionbuttonhandler.obj
 0001:00003160       ??_EPurchaseReward@ActionButton@@UAEPAXI@Z 00404160 f i actionbuttonhandler.obj
 0001:00003180       ??1PurchaseReward@ActionButton@@UAE@XZ 00404180 f   actionbuttonhandler.obj
 0001:00003200       ?OnUpdate@PurchaseReward@ActionButton@@MAEXM@Z 00404200 f   actionbuttonhandler.obj
 0001:00003300       ??0PurchaseCar@ActionButton@@QAE@PAVActionEventLocator@@@Z 00404300 f   actionbuttonhandler.obj
 0001:00003380       ??_EPurchaseCar@ActionButton@@UAEPAXI@Z 00404380 f i actionbuttonhandler.obj
 0001:00003380       ??_GPurchaseCar@ActionButton@@UAEPAXI@Z 00404380 f i actionbuttonhandler.obj
 0001:000033a0       ??1PurchaseCar@ActionButton@@UAE@XZ 004043a0 f   actionbuttonhandler.obj
 0001:000033b0       ?Create@PurchaseCar@ActionButton@@UAE_NPAVtEntityStore@@@Z 004043b0 f   actionbuttonhandler.obj
 0001:00003430       ?OnButtonPressed@PurchaseCar@ActionButton@@MAE_NPAVCharacter@@@Z 00404430 f   actionbuttonhandler.obj
 0001:000034e0       ?OnUpdate@PurchaseCar@ActionButton@@MAEXM@Z 004044e0 f   actionbuttonhandler.obj
 0001:000035f0       ??0PurchaseSkin@ActionButton@@QAE@PAVActionEventLocator@@@Z 004045f0 f   actionbuttonhandler.obj
 0001:00003670       ??_GPurchaseSkin@ActionButton@@UAEPAXI@Z 00404670 f i actionbuttonhandler.obj
 0001:00003670       ??_EPurchaseSkin@ActionButton@@UAEPAXI@Z 00404670 f i actionbuttonhandler.obj
 0001:00003690       ??1PurchaseSkin@ActionButton@@UAE@XZ 00404690 f   actionbuttonhandler.obj
 0001:000036a0       ?Create@PurchaseSkin@ActionButton@@UAE_NPAVtEntityStore@@@Z 004046a0 f   actionbuttonhandler.obj
 0001:00003710       ?OnButtonPressed@PurchaseSkin@ActionButton@@MAE_NPAVCharacter@@@Z 00404710 f   actionbuttonhandler.obj
 0001:00003740       ?OnUpdate@PurchaseSkin@ActionButton@@MAEXM@Z 00404740 f   actionbuttonhandler.obj
 0001:00003750       ??1?$tPtrDynamicArray@PAVManagedParticleSystem@ParticleManager@@@@UAE@XZ 00404750 f i actionbuttonhandler.obj
 0001:00003770       ??_E?$tPtrDynamicArray@PAVManagedParticleSystem@ParticleManager@@@@UAEPAXI@Z 00404770 f i actionbuttonhandler.obj
 0001:000037d0       ??_G?$tArray@PAVManagedParticleSystem@ParticleManager@@@@UAEPAXI@Z 004047d0 f i actionbuttonhandler.obj
 0001:000037d0       ??_E?$tArray@PAVManagedParticleSystem@ParticleManager@@@@UAEPAXI@Z 004047d0 f i actionbuttonhandler.obj
 0001:00003800       ?SetState@?$@VGetIn@CharacterAi@@@StateManager@CharacterAi@@QAEXXZ 00404800 f i actionbuttonhandler.obj
 0001:00003860       ?find@?$@VAnimCollisionEntityDSG@@@p3d@@YAPAVAnimCollisionEntityDSG@@PAVtEntityStore@@PBD@Z 00404860 f i actionbuttonhandler.obj
 0001:000038c0       ?find@?$@VStatePropDSG@@@p3d@@YAPAVStatePropDSG@@PAVtEntityStore@@PBD@Z 004048c0 f i actionbuttonhandler.obj
 0001:00003920       ?find@?$@VAnimCollisionEntityDSG@@@p3d@@YAPAVAnimCollisionEntityDSG@@PAVtEntityStore@@ABVtName@@@Z 00404920 f i actionbuttonhandler.obj
 0001:000039b0       ?find@?$@VStatePropDSG@@@p3d@@YAPAVStatePropDSG@@PAVtEntityStore@@ABVtName@@@Z 004049b0 f i actionbuttonhandler.obj
 0001:00003a40       ?find@?$@VCarStartLocator@@@p3d@@YAPAVCarStartLocator@@PAVtEntityStore@@PBD@Z 00404a40 f i actionbuttonhandler.obj
 0001:00003aa0       ?safe_cast@?$SafeCast@VAnimCollisionEntityDSG@@@radLoadInventory@@UAEPAUIRefCount@@PAU3@@Z 00404aa0 f i actionbuttonhandler.obj
 0001:00003ac0       ?safe_cast@?$SafeCast@VStatePropDSG@@@radLoadInventory@@UAEPAUIRefCount@@PAU3@@Z 00404ac0 f i actionbuttonhandler.obj
 0001:00003ae0       ?find@?$@VCarStartLocator@@@p3d@@YAPAVCarStartLocator@@PAVtEntityStore@@ABVtName@@@Z 00404ae0 f i actionbuttonhandler.obj
 0001:00003b70       ?safe_cast@?$SafeCast@VCarStartLocator@@@radLoadInventory@@UAEPAUIRefCount@@PAU3@@Z 00404b70 f i actionbuttonhandler.obj
 0001:00003b90       ??_EWrenchIcon@ActionButton@@WCA@AEPAXI@Z 00404b90 f i actionbuttonhandler.obj
 0001:00003ba0       ??_ENitroIcon@ActionButton@@WCA@AEPAXI@Z 00404ba0 f i actionbuttonhandler.obj
 0001:00003bb0       ??_ETeleportAction@ActionButton@@WBI@AEPAXI@Z 00404bb0 f i actionbuttonhandler.obj
 0001:00003bc0       ?NormalizeSafe@Vector@RadicalMathLibrary@@QAEMXZ 00404bc0 f i actionbuttonhandler.obj
 0001:00003c20       ?radMakeKey32@@YAIPBDI@Z   00404c20 f i actionbuttonhandler.obj
 0001:00003c50       ?Scale@Vector@RadicalMathLibrary@@QAEXM@Z 00404c50 f i actionbuttonhandler.obj
 0001:00003c70       ??_H@YGXPAXIHP6EPAX0@Z@Z   00404c70 f i actionbuttonhandler.obj
 0001:00003ca0       ?Mult@Matrix@RadicalMathLibrary@@QAEXABV12@@Z 00404ca0 f i actionbuttonhandler.obj
 0001:00003cd0       ?NewAction@ToggleAnim@ActionButton@@SAPAVButtonHandler@2@PAVActionEventLocator@@@Z 00404cd0 f i actionbuttonmanager.obj
 0001:00003cf0       ??0ReverseAnim@ActionButton@@QAE@PAVActionEventLocator@@@Z 00404cf0 f i actionbuttonmanager.obj
 0001:00003d00       ??1ReverseAnim@ActionButton@@UAE@XZ 00404d00 f i actionbuttonmanager.obj
 0001:00003d10       ?NewAction@ReverseAnim@ActionButton@@SAPAVButtonHandler@2@PAVActionEventLocator@@@Z 00404d10 f i actionbuttonmanager.obj
 0001:00003d40       ??_GReverseAnim@ActionButton@@UAEPAXI@Z 00404d40 f i actionbuttonmanager.obj
 0001:00003d40       ??_EReverseAnim@ActionButton@@UAEPAXI@Z 00404d40 f i actionbuttonmanager.obj
 0001:00003d60       ?NewAction@PlayAnim@ActionButton@@SAPAVButtonHandler@2@PAVActionEventLocator@@@Z 00404d60 f i actionbuttonmanager.obj
 0001:00003d80       ?NewAction@PlayAnimLoop@ActionButton@@SAPAVButtonHandler@2@PAVActionEventLocator@@@Z 00404d80 f i actionbuttonmanager.obj
 0001:00003da0       ?NewAction@AutoPlayAnim@ActionButton@@SAPAVButtonHandler@2@PAVActionEventLocator@@@Z 00404da0 f i actionbuttonmanager.obj
 0001:00003dc0       ?NewAction@AutoPlayAnimLoop@ActionButton@@SAPAVButtonHandler@2@PAVActionEventLocator@@@Z 00404dc0 f i actionbuttonmanager.obj
 0001:00003df0       ?NewAction@AutoPlayAnimInOut@ActionButton@@SAPAVButtonHandler@2@PAVActionEventLocator@@@Z 00404df0 f i actionbuttonmanager.obj
 0001:00003e20       ?NewAction@DestroyObject@ActionButton@@SAPAVButtonHandler@2@PAVActionEventLocator@@@Z 00404e20 f i actionbuttonmanager.obj
 0001:00003e40       ?NewAction@UseVendingMachine@ActionButton@@SAPAVButtonHandler@2@PAVActionEventLocator@@@Z 00404e40 f i actionbuttonmanager.obj
 0001:00003e70       ?NewAction@PrankPhone@ActionButton@@SAPAVButtonHandler@2@PAVActionEventLocator@@@Z 00404e70 f i actionbuttonmanager.obj
 0001:00003ea0       ?NewAction@SummonVehiclePhone@ActionButton@@SAPAVButtonHandler@2@PAVActionEventLocator@@@Z 00404ea0 f i actionbuttonmanager.obj
 0001:00003ec0       ??0Doorbell@ActionButton@@QAE@PAVActionEventLocator@@@Z 00404ec0 f i actionbuttonmanager.obj
 0001:00003ed0       ??1Doorbell@ActionButton@@UAE@XZ 00404ed0 f i actionbuttonmanager.obj
 0001:00003ee0       ?NewAction@Doorbell@ActionButton@@SAPAVButtonHandler@2@PAVActionEventLocator@@@Z 00404ee0 f i actionbuttonmanager.obj
 0001:00003f10       ??_EDoorbell@ActionButton@@UAEPAXI@Z 00404f10 f i actionbuttonmanager.obj
 0001:00003f10       ??_GDoorbell@ActionButton@@UAEPAXI@Z 00404f10 f i actionbuttonmanager.obj
 0001:00003f30       ??0OpenDoor@ActionButton@@QAE@PAVActionEventLocator@@@Z 00404f30 f i actionbuttonmanager.obj
 0001:00003f40       ??1OpenDoor@ActionButton@@UAE@XZ 00404f40 f i actionbuttonmanager.obj
 0001:00003f50       ?NewAction@OpenDoor@ActionButton@@SAPAVButtonHandler@2@PAVActionEventLocator@@@Z 00404f50 f i actionbuttonmanager.obj
 0001:00003f80       ??_GOpenDoor@ActionButton@@UAEPAXI@Z 00404f80 f i actionbuttonmanager.obj
 0001:00003f80       ??_EOpenDoor@ActionButton@@UAEPAXI@Z 00404f80 f i actionbuttonmanager.obj
 0001:00003fa0       ??0TalkFood@ActionButton@@QAE@PAVActionEventLocator@@@Z 00404fa0 f i actionbuttonmanager.obj
 0001:00003fb0       ??1TalkFood@ActionButton@@UAE@XZ 00404fb0 f i actionbuttonmanager.obj
 0001:00003fc0       ?NewAction@TalkFood@ActionButton@@SAPAVButtonHandler@2@PAVActionEventLocator@@@Z 00404fc0 f i actionbuttonmanager.obj
 0001:00003ff0       ??_ETalkFood@ActionButton@@UAEPAXI@Z 00404ff0 f i actionbuttonmanager.obj
 0001:00003ff0       ??_GTalkFood@ActionButton@@UAEPAXI@Z 00404ff0 f i actionbuttonmanager.obj
 0001:00004010       ??0TalkDialog@ActionButton@@QAE@PAVActionEventLocator@@@Z 00405010 f i actionbuttonmanager.obj
 0001:00004020       ??1TalkDialog@ActionButton@@UAE@XZ 00405020 f i actionbuttonmanager.obj
 0001:00004030       ?NewAction@TalkDialog@ActionButton@@SAPAVButtonHandler@2@PAVActionEventLocator@@@Z 00405030 f i actionbuttonmanager.obj
 0001:00004060       ??_ETalkDialog@ActionButton@@UAEPAXI@Z 00405060 f i actionbuttonmanager.obj
 0001:00004060       ??_GTalkDialog@ActionButton@@UAEPAXI@Z 00405060 f i actionbuttonmanager.obj
 0001:00004080       ??0TalkMission@ActionButton@@QAE@PAVActionEventLocator@@@Z 00405080 f i actionbuttonmanager.obj
 0001:00004090       ??1TalkMission@ActionButton@@UAE@XZ 00405090 f i actionbuttonmanager.obj
 0001:000040a0       ?NewAction@TalkMission@ActionButton@@SAPAVButtonHandler@2@PAVActionEventLocator@@@Z 004050a0 f i actionbuttonmanager.obj
 0001:000040d0       ??_ETalkMission@ActionButton@@UAEPAXI@Z 004050d0 f i actionbuttonmanager.obj
 0001:000040d0       ??_GTalkMission@ActionButton@@UAEPAXI@Z 004050d0 f i actionbuttonmanager.obj
 0001:000040f0       ?NewFoodSmallAction@CollectibleFood@ActionButton@@SAPAVButtonHandler@2@PAVActionEventLocator@@@Z 004050f0 f i actionbuttonmanager.obj
 0001:00004120       ?NewFoodLargeAction@CollectibleFood@ActionButton@@SAPAVButtonHandler@2@PAVActionEventLocator@@@Z 00405120 f i actionbuttonmanager.obj
 0001:00004150       ?NewAction@CollectibleCard@ActionButton@@SAPAVButtonHandler@2@PAVActionEventLocator@@@Z 00405150 f i actionbuttonmanager.obj
 0001:00004170       ?NewAction@WrenchIcon@ActionButton@@SAPAVButtonHandler@2@PAVActionEventLocator@@@Z 00405170 f i actionbuttonmanager.obj
 0001:000041a0       ?NewAction@NitroIcon@ActionButton@@SAPAVButtonHandler@2@PAVActionEventLocator@@@Z 004051a0 f i actionbuttonmanager.obj
 0001:000041d0       ?NewAction@TeleportAction@ActionButton@@SAPAVButtonHandler@2@PAVActionEventLocator@@@Z 004051d0 f i actionbuttonmanager.obj
 0001:00004250       ?NewAction@PurchaseCar@ActionButton@@SAPAVButtonHandler@2@PAVActionEventLocator@@@Z 00405250 f i actionbuttonmanager.obj
 0001:000042d0       ?NewAction@PurchaseSkin@ActionButton@@SAPAVButtonHandler@2@PAVActionEventLocator@@@Z 004052d0 f i actionbuttonmanager.obj
 0001:00004350       ?NewAction@PlayAnimOnce@ActionButton@@SAPAVButtonHandler@2@PAVActionEventLocator@@@Z 00405350 f i actionbuttonmanager.obj
 0001:000043a0       ?NewAction@AutomaticDoor@ActionButton@@SAPAVButtonHandler@2@PAVActionEventLocator@@@Z 004053a0 f i actionbuttonmanager.obj
 0001:000043f0       ?CompareActionType@ActionButton@@YA_NPBD_K@Z 004053f0 f   actionbuttonmanager.obj
 0001:00004420       ??_GISpatialProxyAA@@UAEPAXI@Z 00405420 f i actionbuttonmanager.obj
 0001:00004420       ??_EISpatialProxyAA@@UAEPAXI@Z 00405420 f i actionbuttonmanager.obj
 0001:00004440       ??1BoxPts@@UAE@XZ          00405440 f i actionbuttonmanager.obj
 0001:00004440       ??1SphereSP@@UAE@XZ        00405440 f i SphereSP.obj
 0001:00004450       ??_EBoxPts@@UAEPAXI@Z      00405450 f i actionbuttonmanager.obj
 0001:00004450       ??_GSphereSP@@UAEPAXI@Z    00405450 f i SphereSP.obj
 0001:00004450       ??_GBoxPts@@UAEPAXI@Z      00405450 f i actionbuttonmanager.obj
 0001:00004450       ??_ESphereSP@@UAEPAXI@Z    00405450 f i SphereSP.obj
 0001:00004470       ??1SpatialNode@@QAE@XZ     00405470 f i actionbuttonmanager.obj
 0001:00004580       ??0ActionButtonManager@@QAE@XZ 00405580 f   actionbuttonmanager.obj
 0001:00004670       ??_GActionButtonManager@@UAEPAXI@Z 00405670 f i actionbuttonmanager.obj
 0001:00004670       ??_EActionButtonManager@@UAEPAXI@Z 00405670 f i actionbuttonmanager.obj
 0001:000046a0       ?FindHandler@ActionButtonManager@@QBEPAVActionEventHandler@ActionButton@@PBVActionEventLocator@@@Z 004056a0 f   actionbuttonmanager.obj
 0001:000046f0       ?OnProcessRequestsComplete@ActionButtonManager@@UAEXPAX@Z 004056f0 f   actionbuttonmanager.obj
 0001:00004710       ??1ActionButtonManager@@UAE@XZ 00405710 f   actionbuttonmanager.obj
 0001:00004780       ?Destroy@ActionButtonManager@@QAEXXZ 00405780 f   actionbuttonmanager.obj
 0001:000047b0       ?CreateInstance@ActionButtonManager@@SAPAV1@XZ 004057b0 f   actionbuttonmanager.obj
 0001:00004830       ?GetInstance@ActionButtonManager@@SAPAV1@XZ 00405830 f   actionbuttonmanager.obj
 0001:00004840       ?DestroyInstance@ActionButtonManager@@SAXXZ 00405840 f   actionbuttonmanager.obj
 0001:00004860       ?Update@ActionButtonManager@@QAEXM@Z 00405860 f   actionbuttonmanager.obj
 0001:000048c0       ?AddActionEventLocator@ActionButtonManager@@QAE_NPAVActionEventLocator@@PAVtEntityStore@@@Z 004058c0 f   actionbuttonmanager.obj
 0001:000048d0       ?GetActionByIndex@ActionButtonManager@@QBEPAVButtonHandler@ActionButton@@H@Z 004058d0 f   actionbuttonmanager.obj
 0001:000048f0       ?AddAction@ActionButtonManager@@QAE_NPAVButtonHandler@ActionButton@@AAH_K@Z 004058f0 f   actionbuttonmanager.obj
 0001:000049c0       ?RemoveActionByIndex@ActionButtonManager@@QAE_NH@Z 004059c0 f   actionbuttonmanager.obj
 0001:000049d0       ?LinkActionToLocator@ActionButtonManager@@QAE_NPAVActionEventLocator@@PAVtEntityStore@@@Z 004059d0 f   actionbuttonmanager.obj
 0001:00004a90       ?EnterActionTrigger@ActionButtonManager@@QAEXPAVCharacter@@H@Z 00405a90 f   actionbuttonmanager.obj
 0001:00004ac0       ?ExitActionTrigger@ActionButtonManager@@QAEXPAVCharacter@@H@Z 00405ac0 f   actionbuttonmanager.obj
 0001:00004af0       ?NewActionButtonHandler@ActionButtonManager@@QAEPAVButtonHandler@ActionButton@@PBDPAVActionEventLocator@@@Z 00405af0 f   actionbuttonmanager.obj
 0001:00004b50       ?HandleEvent@ActionButtonManager@@UAEXW4EventEnum@@PAX@Z 00405b50 f   actionbuttonmanager.obj
 0001:00004ba0       ?Find@ActionButtonManager@@ABEHH@Z 00405ba0 f   actionbuttonmanager.obj
 0001:00004bd0       ?RemoveActionByArrayPos@ActionButtonManager@@AAE_NH@Z 00405bd0 f   actionbuttonmanager.obj
 0001:00004c00       ??1?$ContiguousBinNode@VSpatialNode@@@@QAE@XZ 00405c00 f i actionbuttonmanager.obj
 0001:00004c10       ?radMakeCaseInsensitiveKey@@YA_KPBD_K@Z 00405c10 f i actionbuttonmanager.obj
 0001:00004c70       ??0AutomaticDoor@ActionButton@@QAE@PAVActionEventLocator@@@Z 00405c70 f   automaticdoor.obj
 0001:00004c90       ??_EAutomaticDoor@ActionButton@@UAEPAXI@Z 00405c90 f i automaticdoor.obj
 0001:00004c90       ??_GAutomaticDoor@ActionButton@@UAEPAXI@Z 00405c90 f i automaticdoor.obj
 0001:00004cb0       ??1AutomaticDoor@ActionButton@@UAE@XZ 00405cb0 f   automaticdoor.obj
 0001:00004cc0       ?OnEnter@AutomaticDoor@ActionButton@@MAEXPAVCharacter@@@Z 00405cc0 f   automaticdoor.obj
 0001:00004d10       ?OnExit@AutomaticDoor@ActionButton@@MAEXPAVCharacter@@@Z 00405d10 f   automaticdoor.obj
 0001:00004d30       ??0PlayAnimOnce@ActionButton@@QAE@PAVActionEventLocator@@@Z 00405d30 f   playanimonce.obj
 0001:00004d50       ??_EPlayAnimOnce@ActionButton@@UAEPAXI@Z 00405d50 f i playanimonce.obj
 0001:00004d50       ??_GPlayAnimOnce@ActionButton@@UAEPAXI@Z 00405d50 f i playanimonce.obj
 0001:00004d70       ??1PlayAnimOnce@ActionButton@@UAE@XZ 00405d70 f   playanimonce.obj
 0001:00004d80       ?OnButtonPressed@PlayAnimOnce@ActionButton@@UAE_NPAVCharacter@@PAVSequencer@@@Z 00405d80 f   playanimonce.obj
 0001:00004e80       ?PositionCharacter@PlayAnimOnce@ActionButton@@UAEXPAVCharacter@@PAVSequencer@@@Z 00405e80 f   playanimonce.obj
 0001:00004e90       ?SetFacingDir@Character@@QAEXM@Z 00405e90 f i state.obj
 0001:00004ef0       ?Update@DelayAction@@UAEXM@Z 00405ef0 f i state.obj
 0001:00004f20       ??_EDelayAction@@UAEPAXI@Z 00405f20 f i state.obj
 0001:00004f20       ??_E?$ChangeState@VInCar@CharacterAi@@@@UAEPAXI@Z 00405f20 f i state.obj
 0001:00004f20       ??_E?$ChangeState@VLoco@CharacterAi@@@@UAEPAXI@Z 00405f20 f i state.obj
 0001:00004f20       ??_G?$ChangeState@VInCar@CharacterAi@@@@UAEPAXI@Z 00405f20 f i state.obj
 0001:00004f20       ??_GDelayAction@@UAEPAXI@Z 00405f20 f i state.obj
 0001:00004f20       ??_G?$ChangeState@VLoco@CharacterAi@@@@UAEPAXI@Z 00405f20 f i state.obj
 0001:00004f50       ??1AssignValueToFloat@@UAE@XZ 00405f50 f i actionbuttonhandler.obj
 0001:00004f50       ??1PlayAnimationAction@@UAE@XZ 00405f50 f i action.obj
 0001:00004f50       ??1CarDoorAction@@UAE@XZ   00405f50 f i action.obj
 0001:00004f50       ??1SurfAction@@UAE@XZ      00405f50 f i action.obj
 0001:00004f50       ??1FlailAction@@UAE@XZ     00405f50 f i action.obj
 0001:00004f50       ??1CringeAction@@UAE@XZ    00405f50 f i action.obj
 0001:00004f50       ??1ChangeLocomotion@@UAE@XZ 00405f50 f i state.obj
 0001:00004f50       ??1?$ChangeState@VLoco@CharacterAi@@@@UAE@XZ 00405f50 f i state.obj
 0001:00004f50       ??1KickAction@@UAE@XZ      00405f50 f i state.obj
 0001:00004f50       ??1SlaveAction@@UAE@XZ     00405f50 f i state.obj
 0001:00004f50       ??1DodgeAction@@UAE@XZ     00405f50 f i action.obj
 0001:00004f50       ??1DelayAction@@UAE@XZ     00405f50 f i state.obj
 0001:00004f50       ??1ChangePCControllerState@@UAE@XZ 00405f50 f i state.obj
 0001:00004f50       ??1GetUpAction@@UAE@XZ     00405f50 f i action.obj
 0001:00004f50       ??1TriggerEventAction@@UAE@XZ 00405f50 f i actionbuttonhandler.obj
 0001:00004f50       ??1?$ChangeState@VInCar@CharacterAi@@@@UAE@XZ 00405f50 f i state.obj
 0001:00004f50       ??1ChangeNPCControllerState@@UAE@XZ 00405f50 f i state.obj
 0001:00004f60       ??1GroundSnap@@UAE@XZ      00405f60 f i state.obj
 0001:00004f70       ??_GGroundSnap@@UAEPAXI@Z  00405f70 f i state.obj
 0001:00004f70       ??_EGroundSnap@@UAEPAXI@Z  00405f70 f i state.obj
 0001:00004fa0       ??0ChangeNPCControllerState@@QAE@PAVCharacter@@W4State@NPCController@@@Z 00405fa0 f i state.obj
 0001:00004fd0       ??0ChangePCControllerState@@QAE@PAVCharacter@@W4State@CameraRelativeCharacterController@@@Z 00405fd0 f i state.obj
 0001:00005000       ??0KickAction@@QAE@PAVCharacter@@M@Z 00406000 f i state.obj
 0001:00005030       ??_GKickAction@@UAEPAXI@Z  00406030 f i state.obj
 0001:00005030       ??_EKickAction@@UAEPAXI@Z  00406030 f i state.obj
 0001:00005060       ??0State@CharacterAi@@QAE@PAVCharacter@@@Z 00406060 f   state.obj
 0001:00005070       ??_GState@CharacterAi@@UAEPAXI@Z 00406070 f i state.obj
 0001:00005070       ??_EState@CharacterAi@@UAEPAXI@Z 00406070 f i state.obj
 0001:000050a0       ??1State@CharacterAi@@UAE@XZ 004060a0 f   state.obj
 0001:000050b0       ??0InCar@CharacterAi@@QAE@PAVCharacter@@@Z 004060b0 f   state.obj
 0001:00005130       ??_EInCar@CharacterAi@@UAEPAXI@Z 00406130 f i state.obj
 0001:00005130       ??_GInCar@CharacterAi@@UAEPAXI@Z 00406130 f i state.obj
 0001:00005160       ??1InCar@CharacterAi@@UAE@XZ 00406160 f   state.obj
 0001:000051b0       ?Enter@InCar@CharacterAi@@MAEXXZ 004061b0 f   state.obj
 0001:00005330       ?Exit@InCar@CharacterAi@@MAEXXZ 00406330 f   state.obj
 0001:00005380       ?SequenceAction@InCar@CharacterAi@@MAEXXZ 00406380 f   state.obj
 0001:00005450       ?Update@InCar@CharacterAi@@MAEXM@Z 00406450 f   state.obj
 0001:00005c10       ??0Loco@CharacterAi@@QAE@PAVCharacter@@@Z 00406c10 f   state.obj
 0001:00005c20       ??_ELoco@CharacterAi@@UAEPAXI@Z 00406c20 f i state.obj
 0001:00005c20       ??_GLoco@CharacterAi@@UAEPAXI@Z 00406c20 f i state.obj
 0001:00005c50       ??1Loco@CharacterAi@@UAE@XZ 00406c50 f   state.obj
 0001:00005c60       ?Enter@Loco@CharacterAi@@MAEXXZ 00406c60 f   state.obj
 0001:00005cd0       ?Exit@Loco@CharacterAi@@MAEXXZ 00406cd0 f   state.obj
 0001:00005d00       ?SequenceAction@Loco@CharacterAi@@MAEXXZ 00406d00 f   state.obj
 0001:00006470       ??0GetIn@CharacterAi@@QAE@PAVCharacter@@@Z 00407470 f   state.obj
 0001:000064a0       ??_EGetIn@CharacterAi@@UAEPAXI@Z 004074a0 f i state.obj
 0001:000064a0       ??_GGetIn@CharacterAi@@UAEPAXI@Z 004074a0 f i state.obj
 0001:000064d0       ??1GetIn@CharacterAi@@UAE@XZ 004074d0 f   state.obj
 0001:000064f0       ?Enter@GetIn@CharacterAi@@MAEXXZ 004074f0 f   state.obj
 0001:00006db0       ?HandleEvent@GetIn@CharacterAi@@MAEXW4EventEnum@@PAX@Z 00407db0 f   state.obj
 0001:00006e90       ?CalcGetInPath@GetIn@CharacterAi@@AAEXPAHPAVVector@RadicalMathLibrary@@PA_N@Z 00407e90 f   state.obj
 0001:00007280       ?ReleaseVerified@radLoadObject@@QAEXXZ 00408280 f   radcontentwr:object.obj
 0001:00007280       ?SequenceAction@GetIn@CharacterAi@@MAEXXZ 00408280 f   state.obj
 0001:00007280       ?SequenceAction@GetOut@CharacterAi@@MAEXXZ 00408280 f   state.obj
 0001:00007290       ?Update@GetOut@CharacterAi@@MAEXM@Z 00408290 f   state.obj
 0001:00007290       ?Update@GetIn@CharacterAi@@MAEXM@Z 00408290 f   state.obj
 0001:000072c0       ?Exit@GetIn@CharacterAi@@MAEXXZ 004082c0 f   state.obj
 0001:00007300       ??0GetOut@CharacterAi@@QAE@PAVCharacter@@@Z 00408300 f   state.obj
 0001:00007330       ??_EGetOut@CharacterAi@@UAEPAXI@Z 00408330 f i state.obj
 0001:00007330       ??_GGetOut@CharacterAi@@UAEPAXI@Z 00408330 f i state.obj
 0001:00007360       ??1GetOut@CharacterAi@@UAE@XZ 00408360 f   state.obj
 0001:00007380       ?Enter@GetOut@CharacterAi@@MAEXXZ 00408380 f   state.obj
 0001:00007440       ?HandleEvent@GetOut@CharacterAi@@MAEXW4EventEnum@@PAX@Z 00408440 f   state.obj
 0001:00007630       ?Exit@GetOut@CharacterAi@@MAEXXZ 00408630 f   state.obj
 0001:00007650       ?DoGetOut@GetOut@CharacterAi@@IAEXXZ 00408650 f   state.obj
 0001:00007cd0       ?Update@?$ChangeState@VInCar@CharacterAi@@@@UAEXM@Z 00408cd0 f i state.obj
 0001:00007cf0       ?Update@?$ChangeState@VLoco@CharacterAi@@@@UAEXM@Z 00408cf0 f i state.obj
 0001:00007d10       ?SetState@?$@VGetOut@CharacterAi@@@StateManager@CharacterAi@@QAEXXZ 00408d10 f i state.obj
 0001:00007d70       ?SetState@?$@VInCar@CharacterAi@@@CharacterAi@@YAXPAVStateManager@1@@Z 00408d70 f i state.obj
 0001:00007e00       ?SetState@?$@VLoco@CharacterAi@@@CharacterAi@@YAXPAVStateManager@1@@Z 00408e00 f i state.obj
 0001:00007e60       ??_EGetIn@CharacterAi@@W7AEPAXI@Z 00408e60 f i state.obj
 0001:00007e70       ??_EGetOut@CharacterAi@@W7AEPAXI@Z 00408e70 f i state.obj
 0001:00007e80       ?Sub@Vector@RadicalMathLibrary@@QAEXABV12@0@Z 00408e80 f i state.obj
 0001:00007eb0       ?MagnitudeSqr@Vector@RadicalMathLibrary@@QBEMXZ 00408eb0 f i state.obj
 0001:00007ed0       ??GVector@RadicalMathLibrary@@QBE?AV01@ABV01@@Z 00408ed0 f i state.obj
 0001:00007f00       ?Abs@RadicalMathLibrary@@YAMM@Z 00408f00 f i state.obj
 0001:00007f20       ?Add@Vector@RadicalMathLibrary@@QAEXABV12@@Z 00408f20 f i state.obj
 0001:00007f40       ??1NoState@CharacterAi@@UAE@XZ 00408f40 f i statemanager.obj
 0001:00007f50       ??_GNoState@CharacterAi@@UAEPAXI@Z 00408f50 f i statemanager.obj
 0001:00007f50       ??_ENoState@CharacterAi@@UAEPAXI@Z 00408f50 f i statemanager.obj
 0001:00007f80       ??0StateManager@CharacterAi@@QAE@PAVCharacter@@@Z 00408f80 f   statemanager.obj
 0001:00007fc0       ??1StateManager@CharacterAi@@QAE@XZ 00408fc0 f   statemanager.obj
 0001:00007fe0       ?GetCharacter@StateManager@CharacterAi@@QAEPAVCharacter@@XZ 00408fe0 f   statemanager.obj
 0001:00007fe0       ?GetWrenchRespawnTime@RespawnManager@@QAEHXZ 00408fe0 f   respawnmanager.obj
 0001:00007ff0       ?GetState@StateManager@CharacterAi@@QBE?AW4CharacterState@2@XZ 00408ff0 f   statemanager.obj
 0001:00008000       ?SetState@StateManager@CharacterAi@@QAEXPAVState@2@@Z 00409000 f   statemanager.obj
 0001:00008020       ?ResetState@StateManager@CharacterAi@@QAEXXZ 00409020 f   statemanager.obj
 0001:00008030       ?Update@StateManager@CharacterAi@@QAEXM@Z 00409030 f   statemanager.obj
 0001:000080a0       ?GetPlatform@Game@@QAEPAVPlatform@@XZ 004090a0 f   game.obj
 0001:000080a0       ?GetWaspRespawnTime@RespawnManager@@QAEHXZ 004090a0 f   respawnmanager.obj
 0001:000080a0       ?GetCharacter@PresentationAnimator@@QAEPAVCharacter@@XZ 004090a0 f   presentationanimator.obj
 0001:000080a0       ?GetCurrentState@StateManager@CharacterAi@@QBEPBVState@2@XZ 004090a0 f   statemanager.obj
 0001:000080b0       ?GetFacing@Character@@QBEXAAVVector@RadicalMathLibrary@@@Z 004090b0 f i action.obj
 0001:00008100       ?GetFacingDir@Character@@QBEMXZ 00409100 f i action.obj
 0001:00008160       ?GetDesiredDir@Character@@QBEMXZ 00409160 f i action.obj
 0001:000081b0       ?SetPosition@Character@@QAEXABVVector@RadicalMathLibrary@@@Z 004091b0 f i action.obj
 0001:00008220       ?SetSpeed@Character@@QAEXM@Z 00409220 f i action.obj
 0001:000082d0       ?WorldToLocal@Character@@QBE?AVVector@RadicalMathLibrary@@ABV23@@Z 004092d0 f i action.obj
 0001:00008320       ?LocalToWorld@Character@@QBE?AVVector@RadicalMathLibrary@@ABV23@@Z 00409320 f i action.obj
 0001:00008370       ?AnyStickMovement@@YA_NPAVCharacter@@M@Z 00409370 f i action.obj
 0001:00008440       ??1Action@@UAE@XZ          00409440 f   action.obj
 0001:00008450       ??0WalkerLocomotionAction@@QAE@PAVCharacter@@@Z 00409450 f   action.obj
 0001:000084f0       ??_GWalkerLocomotionAction@@UAEPAXI@Z 004094f0 f i action.obj
 0001:000084f0       ??_EWalkerLocomotionAction@@UAEPAXI@Z 004094f0 f i action.obj
 0001:00008520       ??1WalkerLocomotionAction@@UAE@XZ 00409520 f   action.obj
 0001:00008590       ?PlayDriver@WalkerLocomotionAction@@QAEXXZ 00409590 f   action.obj
 0001:000085b0       ?StopDriver@WalkerLocomotionAction@@QAEXXZ 004095b0 f   action.obj
 0001:000085d0       ?SwitchLocomotion@WalkerLocomotionAction@@QAEXXZ 004095d0 f   action.obj
 0001:00008640       ?SolveActualDir@WalkerLocomotionAction@@IAEMMM@Z 00409640 f   action.obj
 0001:000086b0       ?SolveActualSpeed@WalkerLocomotionAction@@IAEMMM@Z 004096b0 f   action.obj
 0001:00008720       ?DoSimulation@WalkerLocomotionAction@@UAEXM@Z 00409720 f   action.obj
 0001:000088b0       ?Update@WalkerLocomotionAction@@UAEXM@Z 004098b0 f   action.obj
 0001:00008c50       ??0InCarAction@@QAE@PAVCharacter@@@Z 00409c50 f   action.obj
 0001:00008c80       ??_EInCarAction@@UAEPAXI@Z 00409c80 f i action.obj
 0001:00008c80       ??_GInCarAction@@UAEPAXI@Z 00409c80 f i action.obj
 0001:00008cb0       ??1InCarAction@@UAE@XZ     00409cb0 f   action.obj
 0001:00008d10       ?WakeUp@InCarAction@@UAEXM@Z 00409d10 f   action.obj
 0001:00008d50       ?IWannaRock@InCarAction@@IAEX_N@Z 00409d50 f   action.obj
 0001:00008e90       ?DoSimulation@HoldAnimationAction@@UAEXM@Z 00409e90 f   action.obj
 0001:00008e90       ?DoSimulation@InCarAction@@UAEXM@Z 00409e90 f   action.obj
 0001:00008ef0       ?Update@InCarAction@@UAEXM@Z 00409ef0 f   action.obj
 0001:00008fb0       ?Clear@InCarAction@@UAEXXZ 00409fb0 f   action.obj
 0001:00008fe0       ??0HoldAnimationAction@@QAE@PAVCharacter@@PBDM@Z 00409fe0 f   action.obj
 0001:00009050       ??_EHoldAnimationAction@@UAEPAXI@Z 0040a050 f i action.obj
 0001:00009050       ??_GHoldAnimationAction@@UAEPAXI@Z 0040a050 f i action.obj
 0001:00009080       ??1HoldAnimationAction@@UAE@XZ 0040a080 f   action.obj
 0001:000090e0       ?WakeUp@HoldAnimationAction@@UAEXM@Z 0040a0e0 f   action.obj
 0001:00009180       ?Update@HoldAnimationAction@@UAEXM@Z 0040a180 f   action.obj
 0001:000091c0       ?Clear@HoldAnimationAction@@UAEXXZ 0040a1c0 f   action.obj
 0001:000091f0       ??0SteerAction@@QAE@PAVCharacter@@PBDM@Z 0040a1f0 f   action.obj
 0001:00009210       ??1AccelAction@@UAE@XZ     0040a210 f i action.obj
 0001:00009210       ??1SteerAction@@UAE@XZ     0040a210 f i action.obj
 0001:00009210       ??1ReverseAction@@UAE@XZ   0040a210 f i action.obj
 0001:00009210       ??1DecelAction@@UAE@XZ     0040a210 f i action.obj
 0001:00009220       ?ShouldRelease@SteerAction@@MAE_NXZ 0040a220 f   action.obj
 0001:00009290       ??0ReverseAction@@QAE@PAVCharacter@@PBDM@Z 0040a290 f   action.obj
 0001:000092b0       ?ShouldRelease@ReverseAction@@MAE_NXZ 0040a2b0 f   action.obj
 0001:000092d0       ??0AccelAction@@QAE@PAVCharacter@@PBDM@Z 0040a2d0 f   action.obj
 0001:000092f0       ?ShouldRelease@AccelAction@@MAE_NXZ 0040a2f0 f   action.obj
 0001:00009320       ??0DecelAction@@QAE@PAVCharacter@@PBDM@Z 0040a320 f   action.obj
 0001:00009340       ??_EReverseAction@@UAEPAXI@Z 0040a340 f i action.obj
 0001:00009340       ??_GAccelAction@@UAEPAXI@Z 0040a340 f i action.obj
 0001:00009340       ??_EDecelAction@@UAEPAXI@Z 0040a340 f i action.obj
 0001:00009340       ??_GReverseAction@@UAEPAXI@Z 0040a340 f i action.obj
 0001:00009340       ??_GDecelAction@@UAEPAXI@Z 0040a340 f i action.obj
 0001:00009340       ??_EAccelAction@@UAEPAXI@Z 0040a340 f i action.obj
 0001:00009340       ??_ESteerAction@@UAEPAXI@Z 0040a340 f i action.obj
 0001:00009340       ??_GSteerAction@@UAEPAXI@Z 0040a340 f i action.obj
 0001:00009370       ?ShouldRelease@DecelAction@@MAE_NXZ 0040a370 f   action.obj
 0001:000093c0       ??0Arrive@@QAE@PAVCharacter@@AAVVector@RadicalMathLibrary@@@Z 0040a3c0 f   action.obj
 0001:00009410       ??_GArrive@@UAEPAXI@Z      0040a410 f i action.obj
 0001:00009410       ??_EArrive@@UAEPAXI@Z      0040a410 f i action.obj
 0001:00009440       ??1Arrive@@UAE@XZ          0040a440 f   action.obj
 0001:00009450       ?WakeUp@Arrive@@UAEXM@Z    0040a450 f   action.obj
 0001:00009510       ?DoSimulation@Arrive@@UAEXM@Z 0040a510 f   action.obj
 0001:00009770       ?Clear@Arrive@@UAEXXZ      0040a770 f   action.obj
 0001:00009790       ??0Orient@@QAE@PAVCharacter@@AAVVector@RadicalMathLibrary@@@Z 0040a790 f   action.obj
 0001:00009820       ??_EOrient@@UAEPAXI@Z      0040a820 f i action.obj
 0001:00009820       ??_GOrient@@UAEPAXI@Z      0040a820 f i action.obj
 0001:00009850       ??1Orient@@UAE@XZ          0040a850 f   action.obj
 0001:00009860       ?WakeUp@Orient@@UAEXM@Z    0040a860 f   action.obj
 0001:00009870       ?DoSimulation@Orient@@UAEXM@Z 0040a870 f   action.obj
 0001:00009890       ?Update@Orient@@UAEXM@Z    0040a890 f   action.obj
 0001:00009940       ??0Position@@QAE@PAVCharacter@@AAVVector@RadicalMathLibrary@@M_N@Z 0040a940 f   action.obj
 0001:00009990       ??_GPosition@@UAEPAXI@Z    0040a990 f i action.obj
 0001:00009990       ??_EPosition@@UAEPAXI@Z    0040a990 f i action.obj
 0001:000099c0       ??1Position@@UAE@XZ        0040a9c0 f   action.obj
 0001:000099d0       ?DoSimulation@Position@@UAEXM@Z 0040a9d0 f   action.obj
 0001:00009b20       ?Update@GroundSnap@@UAEXM@Z 0040ab20 f   action.obj
 0001:00009bc0       ??0PlayAnimationAction@@QAE@PAVCharacter@@PBDM@Z 0040abc0 f   action.obj
 0001:00009c30       ??0PlayAnimationAction@@QAE@PAVCharacter@@ABVtName@@M@Z 0040ac30 f   action.obj
 0001:00009c70       ?AbortWhenMovementOccurs@PlayAnimationAction@@QAEX_N@Z 0040ac70 f   action.obj
 0001:00009c80       ?WakeUp@PlayAnimationAction@@UAEXM@Z 0040ac80 f   action.obj
 0001:00009d40       ?Update@PlayAnimationAction@@UAEXM@Z 0040ad40 f   action.obj
 0001:00009d70       ?ShouldAbort@PlayAnimationAction@@MAE_NXZ 0040ad70 f   action.obj
 0001:00009da0       ?Clear@PlayAnimationAction@@UAEXXZ 0040ada0 f   action.obj
 0001:00009dd0       ??0CarDoorAction@@QAE@PAVVehicle@@W4DoorAction@1@W4Door@1@MMPAVCharacter@@PAVSequencer@@@Z 0040add0 f   action.obj
 0001:00009e20       ??_GPlayAnimationAction@@UAEPAXI@Z 0040ae20 f i action.obj
 0001:00009e20       ??_ECarDoorAction@@UAEPAXI@Z 0040ae20 f i action.obj
 0001:00009e20       ??_GCarDoorAction@@UAEPAXI@Z 0040ae20 f i action.obj
 0001:00009e20       ??_EPlayAnimationAction@@UAEPAXI@Z 0040ae20 f i action.obj
 0001:00009e50       ?WakeUp@CarDoorAction@@UAEXM@Z 0040ae50 f   action.obj
 0001:00009e80       ?Update@CarDoorAction@@UAEXM@Z 0040ae80 f   action.obj
 0001:00009ef0       ??0JumpAction@@QAE@PAVCharacter@@PBDM@Z 0040aef0 f   action.obj
 0001:0000a000       ??_EJumpAction@@UAEPAXI@Z  0040b000 f i action.obj
 0001:0000a000       ??_GJumpAction@@UAEPAXI@Z  0040b000 f i action.obj
 0001:0000a030       ??1JumpAction@@UAE@XZ      0040b030 f   action.obj
 0001:0000a0b0       ?SetRootTransform@JumpAction@@QAEXXZ 0040b0b0 f   action.obj
 0001:0000a0e0       ?SetRootPosition@JumpAction@@QAEXABVVector@RadicalMathLibrary@@@Z 0040b0e0 f   action.obj
 0001:0000a0f0       ?Reset@JumpAction@@QAEXABVVector@RadicalMathLibrary@@_N@Z 0040b0f0 f   action.obj
 0001:0000a190       ?Reset@JumpAction@@QAEMM_N@Z 0040b190 f   action.obj
 0001:0000a440       ?DoSimulation@JumpAction@@UAEXM@Z 0040b440 f   action.obj
 0001:0000a6e0       ?SolveActualDir@JumpAction@@IAEMMM@Z 0040b6e0 f   action.obj
 0001:0000a740       ?Update@JumpAction@@UAEXM@Z 0040b740 f   action.obj
 0001:0000acf0       ?TestForJumpAgain@JumpAction@@QAEXABVVector@RadicalMathLibrary@@MAAV23@@Z 0040bcf0 f   action.obj
 0001:0000aed0       ?End@JumpAction@@QAEXXZ    0040bed0 f   action.obj
 0001:0000af70       ??0DodgeAction@@QAE@PAVCharacter@@@Z 0040bf70 f   action.obj
 0001:0000afa0       ?WakeUp@DodgeAction@@UAEXM@Z 0040bfa0 f   action.obj
 0001:0000b000       ?DoSimulation@DodgeAction@@UAEXM@Z 0040c000 f   action.obj
 0001:0000b080       ?Update@GetUpAction@@UAEXM@Z 0040c080 f   action.obj
 0001:0000b080       ?Update@CringeAction@@UAEXM@Z 0040c080 f   action.obj
 0001:0000b080       ?Update@DodgeAction@@UAEXM@Z 0040c080 f   action.obj
 0001:0000b0b0       ?Clear@DodgeAction@@UAEXXZ 0040c0b0 f   action.obj
 0001:0000b0e0       ?SolveActualDir@DodgeAction@@IAEMMM@Z 0040c0e0 f   action.obj
 0001:0000b110       ??0CringeAction@@QAE@PAVCharacter@@@Z 0040c110 f   action.obj
 0001:0000b140       ?WakeUp@CringeAction@@UAEXM@Z 0040c140 f   action.obj
 0001:0000b190       ??0FlailAction@@QAE@PAVCharacter@@@Z 0040c190 f   action.obj
 0001:0000b1c0       ??_EChangeLocomotion@@UAEPAXI@Z 0040c1c0 f i state.obj
 0001:0000b1c0       ??_EDodgeAction@@UAEPAXI@Z 0040c1c0 f i action.obj
 0001:0000b1c0       ??_EChangeNPCControllerState@@UAEPAXI@Z 0040c1c0 f i state.obj
 0001:0000b1c0       ??_GGetUpAction@@UAEPAXI@Z 0040c1c0 f i action.obj
 0001:0000b1c0       ??_EChangePCControllerState@@UAEPAXI@Z 0040c1c0 f i state.obj
 0001:0000b1c0       ??_GChangeNPCControllerState@@UAEPAXI@Z 0040c1c0 f i state.obj
 0001:0000b1c0       ??_GFlailAction@@UAEPAXI@Z 0040c1c0 f i action.obj
 0001:0000b1c0       ??_EGetUpAction@@UAEPAXI@Z 0040c1c0 f i action.obj
 0001:0000b1c0       ??_ECringeAction@@UAEPAXI@Z 0040c1c0 f i action.obj
 0001:0000b1c0       ??_EFlailAction@@UAEPAXI@Z 0040c1c0 f i action.obj
 0001:0000b1c0       ??_ETriggerEventAction@@UAEPAXI@Z 0040c1c0 f i actionbuttonhandler.obj
 0001:0000b1c0       ??_GCringeAction@@UAEPAXI@Z 0040c1c0 f i action.obj
 0001:0000b1c0       ??_GTriggerEventAction@@UAEPAXI@Z 0040c1c0 f i actionbuttonhandler.obj
 0001:0000b1c0       ??_GChangeLocomotion@@UAEPAXI@Z 0040c1c0 f i state.obj
 0001:0000b1c0       ??_GAssignValueToFloat@@UAEPAXI@Z 0040c1c0 f i actionbuttonhandler.obj
 0001:0000b1c0       ??_GDodgeAction@@UAEPAXI@Z 0040c1c0 f i action.obj
 0001:0000b1c0       ??_EAssignValueToFloat@@UAEPAXI@Z 0040c1c0 f i actionbuttonhandler.obj
 0001:0000b1c0       ??_GChangePCControllerState@@UAEPAXI@Z 0040c1c0 f i state.obj
 0001:0000b1f0       ?WakeUp@FlailAction@@UAEXM@Z 0040c1f0 f   action.obj
 0001:0000b250       ?Update@FlailAction@@UAEXM@Z 0040c250 f   action.obj
 0001:0000b270       ?Clear@FlailAction@@UAEXXZ 0040c270 f   action.obj
 0001:0000b2a0       ??0GetUpAction@@QAE@PAVCharacter@@@Z 0040c2a0 f   action.obj
 0001:0000b2d0       ?WakeUp@GetUpAction@@UAEXM@Z 0040c2d0 f   action.obj
 0001:0000b360       ?Clear@GetUpAction@@UAEXXZ 0040c360 f   action.obj
 0001:0000b360       ?Clear@CringeAction@@UAEXXZ 0040c360 f   action.obj
 0001:0000b380       ?Update@ChangeLocomotion@@UAEXM@Z 0040c380 f   action.obj
 0001:0000b3d0       ?Update@ChangeNPCControllerState@@UAEXM@Z 0040c3d0 f   action.obj
 0001:0000b400       ?Update@ChangePCControllerState@@UAEXM@Z 0040c400 f   action.obj
 0001:0000b420       ?Update@KickAction@@UAEXM@Z 0040c420 f   action.obj
 0001:0000b450       ??0SurfAction@@QAE@PAVCharacter@@@Z 0040c450 f   action.obj
 0001:0000b480       ??_GSurfAction@@UAEPAXI@Z  0040c480 f i action.obj
 0001:0000b480       ??_ESurfAction@@UAEPAXI@Z  0040c480 f i action.obj
 0001:0000b4b0       ?ShouldAbort@SurfAction@@MAE_NXZ 0040c4b0 f   action.obj
 0001:0000b4d0       ?Update@SurfAction@@MAEXM@Z 0040c4d0 f   action.obj
 0001:0000b5b0       ?find@?$@VAnimation@choreo@@@choreo@@YAPAVAnimation@1@PBVBaseBank@1@_K@Z 0040c5b0 f i action.obj
 0001:0000b600       ?find@?$@VAnimation@choreo@@@choreo@@YAPAVAnimation@1@PBVBaseBank@1@PBD@Z 0040c600 f i action.obj
 0001:0000b660       ?find@?$@VLocomotion@choreo@@@choreo@@YAPAVLocomotion@1@PBVBaseBank@1@_K@Z 0040c660 f i action.obj
 0001:0000b6b0       ?SequenceSingleAction@ActionController@@QAEPAVSurfAction@@PAV2@@Z 0040c6b0 f i action.obj
 0001:0000b6b0       ?SequenceSingleAction@ActionController@@QAEPAVPlayAnimationAction@@PAV2@@Z 0040c6b0 f i state.obj
 0001:0000b6e0       ?Release@radLoadObject@@SAXAAPAVAnimationDriver@choreo@@@Z 0040c6e0 f i action.obj
 0001:0000b700       ?Assign@radLoadObject@@SAXAAPAVAnimationDriver@choreo@@PAV23@@Z 0040c700 f i action.obj
 0001:0000b700       ?Assign@radLoadObject@@SAXAAPAVLocomotionSlot@choreo@@PAV23@@Z 0040c700 f i choreowr:locomotion.obj
 0001:0000b730       ?safe_cast@?$SafeCast@VAnimation@choreo@@@radLoadInventory@@UAEPAUIRefCount@@PAU3@@Z 0040c730 f i action.obj
 0001:0000b750       ?safe_cast@?$SafeCast@VLocomotion@choreo@@@radLoadInventory@@UAEPAUIRefCount@@PAU3@@Z 0040c750 f i action.obj
 0001:0000b770       ?Max@RadicalMathLibrary@@YAMMM@Z 0040c770 f i action.obj
 0001:0000b790       ?Min@RadicalMathLibrary@@YAMMM@Z 0040c790 f i action.obj
 0001:0000b7b0       ?Epsilon@RadicalMathLibrary@@YA_NMMM@Z 0040c7b0 f i action.obj
 0001:0000b7e0       ??0pddiColour@@QAE@HHHH@Z  0040c7e0 f i action.obj
 0001:0000b810       ??0ActionController@@QAE@XZ 0040c810 f   actioncontroller.obj
 0001:0000b840       ??_EActionController@@UAEPAXI@Z 0040c840 f i actioncontroller.obj
 0001:0000b840       ??_GActionController@@UAEPAXI@Z 0040c840 f i actioncontroller.obj
 0001:0000b860       ??1ActionController@@UAE@XZ 0040c860 f   actioncontroller.obj
 0001:0000b880       ?Clear@ActionController@@QAEXXZ 0040c880 f   actioncontroller.obj
 0001:0000b8a0       ?WakeUp@ActionController@@QAEXM@Z 0040c8a0 f   actioncontroller.obj
 0001:0000b8f0       ?DoSimulation@ActionController@@QAEXM@Z 0040c8f0 f   actioncontroller.obj
 0001:0000b910       ?Update@ActionController@@QAEXM@Z 0040c910 f   actioncontroller.obj
 0001:0000b930       ??0Sequencer@@QAE@XZ       0040c930 f   sequencer.obj
 0001:0000b950       ??_ESequencer@@UAEPAXI@Z   0040c950 f i sequencer.obj
 0001:0000b950       ??_GSequencer@@UAEPAXI@Z   0040c950 f i sequencer.obj
 0001:0000b970       ??1Sequencer@@UAE@XZ       0040c970 f   sequencer.obj
 0001:0000b980       ?ClearSequence@Sequencer@@AAEXPAUsSequence@1@@Z 0040c980 f   sequencer.obj
 0001:0000b9d0       ?Clear@Sequencer@@QAEXXZ   0040c9d0 f   sequencer.obj
 0001:0000ba10       ?BeginSequence@Sequencer@@QAEXXZ 0040ca10 f   sequencer.obj
 0001:0000ba40       ?EndSequence@Sequencer@@QAEXXZ 0040ca40 f   sequencer.obj
 0001:0000ba50       ?AddAction@Sequencer@@QAEXMMPAVAction@@@Z 0040ca50 f   sequencer.obj
 0001:0000ba80       ?AddActionToSequence@Sequencer@@QAEXMMPAVAction@@@Z 0040ca80 f   sequencer.obj
 0001:0000bac0       ?IsBusy@Sequencer@@QBE_NXZ 0040cac0 f   sequencer.obj
 0001:0000baf0       ?WakeUp@Sequencer@@QAEXM@Z 0040caf0 f   sequencer.obj
 0001:0000bb70       ?DoSimulation@Sequencer@@QAEXM@Z 0040cb70 f   sequencer.obj
 0001:0000bc00       ?Update@Sequencer@@QAEXM@Z 0040cc00 f   sequencer.obj
 0001:0000bcf0       ??0Task@@QAE@XZ            0040ccf0 f   task.obj
 0001:0000bd10       ??_ETask@@UAEPAXI@Z        0040cd10 f i task.obj
 0001:0000bd10       ??_GTask@@UAEPAXI@Z        0040cd10 f i task.obj
 0001:0000bd30       ??1Task@@UAE@XZ            0040cd30 f   task.obj
 0001:0000bd40       ?GetCharacter@CharacterController@@QBEPAVCharacter@@XZ 0040cd40 f   charactercontroller.obj
 0001:0000bd40       ?GetStatus@Task@@QAE?AW4Status@@XZ 0040cd40 f   task.obj
 0001:0000bd40       ?GetMaxTraffic@TrafficManager@@QAEHXZ 0040cd40 f   trafficmanager.obj
 0001:0000bd40       ?GetVehicle@VehicleController@@QBEPAVVehicle@@XZ 0040cd40 f   vehiclecontroller.obj
 0001:0000bd50       ?SetStatus@Task@@QAEXW4Status@@@Z 0040cd50 f   task.obj
 0001:0000bd50       ?SetPositionCarrier@PositionalSoundPlayer@@QAEXAAVPositionCarrier@@@Z 0040cd50 f   positionalsoundplayer.obj
 0001:0000bd60       ?Run@Task@@QAEXXZ          0040cd60 f   task.obj
 0001:0000bd70       ?IsRunning@Task@@QAE_NXZ   0040cd70 f   task.obj
 0001:0000bd80       ?Done@Task@@QAEXXZ         0040cd80 f   task.obj
 0001:0000bd90       ?IsDone@Task@@QAE_NXZ      0040cd90 f   task.obj
 0001:0000bda0       ??0ChaseAI@@QAE@PAVVehicle@@M@Z 0040cda0 f   chaseai.obj
 0001:0000be00       ??_EChaseAI@@UAEPAXI@Z     0040ce00 f i chaseai.obj
 0001:0000be00       ??_GChaseAI@@UAEPAXI@Z     0040ce00 f i chaseai.obj
 0001:0000be20       ??1ChaseAI@@UAE@XZ         0040ce20 f   chaseai.obj
 0001:0000be40       ?Initialize@ChaseAI@@UAEXXZ 0040ce40 f   chaseai.obj
 0001:0000be50       ?Reset@ChaseAI@@UAEXXZ     0040ce50 f   chaseai.obj
 0001:0000be80       ?Update@ChaseAI@@UAEXM@Z   0040ce80 f   chaseai.obj
 0001:0000bfe0       ?DoCatchUp@ChaseAI@@MAEXM@Z 0040cfe0 f   chaseai.obj
 0001:0000c000       ?MustRepopulateSegments@ChaseAI@@MAE_NXZ 0040d000 f   chaseai.obj
 0001:0000c020       ?TestReachedTarget@ChaseAI@@MAE_NABVVector@RadicalMathLibrary@@0@Z 0040d020 f   chaseai.obj
 0001:0000c0b0       ?GetClosestPathElementToTarget@ChaseAI@@MAEXAAVVector@RadicalMathLibrary@@AAUPathElement@RoadManager@@AAPAVRoadSegment@@AAM3@Z 0040d0b0 f   chaseai.obj
 0001:0000c130       ?UpdateTarget@ChaseAI@@IAEXXZ 0040d130 f   chaseai.obj
 0001:0000c200       ?Beeline@ChaseAI@@IAEXM@Z  0040d200 f   chaseai.obj
 0001:0000c2f0       ?RegisterHudMapIcon@ChaseAI@@EAEHXZ 0040d2f0 f   chaseai.obj
 0001:0000c3d0       ??K@YA?AVVector@RadicalMathLibrary@@ABV01@M@Z 0040d3d0 f i chaseai.obj
 0001:0000c400       ?Add@Vector@RadicalMathLibrary@@QAEXABV12@0@Z 0040d400 f i chaseai.obj
 0001:0000c430       ??0PotentialField@@QAE@XZ  0040d430 f   potentialfield.obj
 0001:0000c450       ??_EPotentialField@@UAEPAXI@Z 0040d450 f i potentialfield.obj
 0001:0000c450       ??_GPotentialField@@UAEPAXI@Z 0040d450 f i potentialfield.obj
 0001:0000c470       ??1PotentialField@@UAE@XZ  0040d470 f   potentialfield.obj
 0001:0000c490       ??0Potentials@@QAE@XZ      0040d490 f   potentials.obj
 0001:0000c4a0       ??_GPotentials@@UAEPAXI@Z  0040d4a0 f i potentials.obj
 0001:0000c4a0       ??_EPotentials@@UAEPAXI@Z  0040d4a0 f i potentials.obj
 0001:0000c4c0       ??1Potentials@@UAE@XZ      0040d4c0 f   potentials.obj
 0001:0000c4d0       ??0TrafficAI@@QAE@PAVVehicle@@@Z 0040d4d0 f   trafficai.obj
 0001:0000c4f0       ??_ETrafficAI@@UAEPAXI@Z   0040d4f0 f i trafficai.obj
 0001:0000c4f0       ??_GTrafficAI@@UAEPAXI@Z   0040d4f0 f i trafficai.obj
 0001:0000c510       ??1TrafficAI@@UAE@XZ       0040d510 f   trafficai.obj
 0001:0000c520       ?Init@TrafficAI@@UAEXXZ    0040d520 f   trafficai.obj
 0001:0000c5e0       ?Update@TrafficAI@@UAEXM@Z 0040d5e0 f   trafficai.obj
 0001:0000cb30       ?StartSwerving@TrafficAI@@QAEX_N@Z 0040db30 f   trafficai.obj
 0001:0000cba0       ?StopSwerving@TrafficAI@@AAEXXZ 0040dba0 f   trafficai.obj
 0001:0000cc00       ?Swerve@TrafficAI@@AAEXXZ  0040dc00 f   trafficai.obj
 0001:0000cc40       ?PerhapsTriggerImpedence@TrafficAI@@AAEXW4ObstacleType@1@MPAX@Z 0040dc40 f   trafficai.obj
 0001:0000ccb0       ?DecideTurn@TrafficAI@@QAE?AW4Direction@1@XZ 0040dcb0 f   trafficai.obj
 0001:0000cd10       ?SetSegmentIndex@TrafficAI@@QAEXI@Z 0040dd10 f   trafficai.obj
 0001:0000cd40       ?GetGoSpeedMps@TrafficAI@@AAEMXZ 0040dd40 f   trafficai.obj
 0001:0000cd90       ?AttemptLaneChange@TrafficAI@@AAE_NW4ObstacleType@1@MPAX@Z 0040dd90 f   trafficai.obj
 0001:0000d0a0       ?SetAISpeed@TrafficAI@@QAEXM@Z 0040e0a0 f   trafficai.obj
 0001:0000d0d0       ?GetAISpeed@TrafficAI@@QBEMXZ 0040e0d0 f   trafficai.obj
 0001:0000d0e0       ?MaintainSpeed@TrafficAI@@AAEXM@Z 0040e0e0 f   trafficai.obj
 0001:0000d180       ?StopForSomething@TrafficAI@@AAEXMW4ObstacleType@1@MPAX@Z 0040e180 f   trafficai.obj
 0001:0000d260       ?GetLookAheadDistance@TrafficAI@@AAEMXZ 0040e260 f   trafficai.obj
 0001:0000d280       ?CheckForObstacles@TrafficAI@@AAEXAAW4ObstacleType@1@AAMAAPAXAA_N@Z 0040e280 f   trafficai.obj
 0001:0000d9a0       ??0VehicleAI@@QAE@PAVVehicle@@W4VehicleAITypeEnum@0@_NHH2@Z 0040e9a0 f   vehicleai.obj
 0001:0000dc00       ??_EVehicleAI@@UAEPAXI@Z   0040ec00 f i vehicleai.obj
 0001:0000dc00       ??_GVehicleAI@@UAEPAXI@Z   0040ec00 f i vehicleai.obj
 0001:0000dc20       ??1VehicleAI@@UAE@XZ       0040ec20 f   vehicleai.obj
 0001:0000dcd0       ?SetRaceCatchupParams@VehicleAI@@QAEXABURaceCatchupParams@1@@Z 0040ecd0 f   vehicleai.obj
 0001:0000dcf0       ?SetEvadeCatchupParams@VehicleAI@@QAEXABUEvadeCatchupParams@1@@Z 0040ecf0 f   vehicleai.obj
 0001:0000dd10       ?SetTargetCatchupParams@VehicleAI@@QAEXABUTargetCatchupParams@1@@Z 0040ed10 f   vehicleai.obj
 0001:0000dd30       ?ResetControllerValues@VehicleAI@@QAEXXZ 0040ed30 f   vehicleai.obj
 0001:0000dd60       ?Reset@VehicleAI@@UAEXXZ   0040ed60 f   vehicleai.obj
 0001:0000de10       ?Initialize@VehicleAI@@UAEXXZ 0040ee10 f   vehicleai.obj
 0001:0000de40       ?Finalize@VehicleAI@@UAEXXZ 0040ee40 f   vehicleai.obj
 0001:0000de50       ?Update@VehicleAI@@UAEXM@Z 0040ee50 f   vehicleai.obj
 0001:0000de90       ?SetActive@VehicleAI@@QAEX_N@Z 0040ee90 f   vehicleai.obj
 0001:0000def0       ?GetPosition@VehicleAI@@UAEXPAVVector@RadicalMathLibrary@@@Z 0040eef0 f   vehicleai.obj
 0001:0000df00       ?GetHeading@VehicleAI@@UAEXPAVVector@RadicalMathLibrary@@@Z 0040ef00 f   vehicleai.obj
 0001:0000df20       ?SetMaxShortcutSkill@VehicleAI@@QAEXH@Z 0040ef20 f   vehicleai.obj
 0001:0000df30       ?SetMinShortcutSkill@VehicleAI@@QAEXH@Z 0040ef30 f   vehicleai.obj
 0001:0000df40       ?EnterLimbo@VehicleAI@@UAEXXZ 0040ef40 f   vehicleai.obj
 0001:0000df70       ?ExitLimbo@VehicleAI@@UAEXXZ 0040ef70 f   vehicleai.obj
 0001:0000df90       ?DetermineShortcutSkill@VehicleAI@@IAEHXZ 0040ef90 f   vehicleai.obj
 0001:0000dfe0       ?ResetCatchUpParams@VehicleAI@@IAEXXZ 0040efe0 f   vehicleai.obj
 0001:0000e010       ?FillPathElements@VehicleAI@@IAEXXZ 0040f010 f   vehicleai.obj
 0001:0000e0c0       ?UpdateSelf@VehicleAI@@MAEXXZ 0040f0c0 f   vehicleai.obj
 0001:0000e1d0       ?FollowRoad@VehicleAI@@IAEXXZ 0040f1d0 f   vehicleai.obj
 0001:0000e3d0       ?FindClosestSegment@VehicleAI@@IAEXABVVector@RadicalMathLibrary@@AAHAAMAAV23@@Z 0040f3d0 f   vehicleai.obj
 0001:0000e490       ?ResetSegments@VehicleAI@@IAEXXZ 0040f490 f   vehicleai.obj
 0001:0000e4a0       ?ShiftSegments@VehicleAI@@IAEXHH@Z 0040f4a0 f   vehicleai.obj
 0001:0000e520       ?FillSegments@VehicleAI@@IAEXXZ 0040f520 f   vehicleai.obj
 0001:0000f550       ?GetPosAheadAlongRoad@VehicleAI@@IAEXMMHPAVVector@RadicalMathLibrary@@@Z 00410550 f   vehicleai.obj
 0001:0000f650       ?UpdateSegments@VehicleAI@@IAEXXZ 00410650 f   vehicleai.obj
 0001:0000fa00       ?EvadeTraffic@VehicleAI@@IAEXPAVVehicle@@@Z 00410a00 f   vehicleai.obj
 0001:0000fcf0       ?DoSteering@VehicleAI@@IAEXXZ 00410cf0 f   vehicleai.obj
 0001:0000fde0       ?CheckState@VehicleAI@@IAEXM@Z 00410de0 f   vehicleai.obj
 0001:000103c0       ?DriveTowards@VehicleAI@@IAEXPAVVector@RadicalMathLibrary@@AAM1@Z 004113c0 f   vehicleai.obj
 0001:00010580       ?SetDestination@VehicleAI@@IAEXAAVVector@RadicalMathLibrary@@@Z 00411580 f   vehicleai.obj
 0001:000105a0       ?SetNextDestination@VehicleAI@@IAEXAAVVector@RadicalMathLibrary@@@Z 004115a0 f   vehicleai.obj
 0001:000105c0       ?FindClosestPathElement@VehicleAI@@SA_NAAVVector@RadicalMathLibrary@@AAUPathElement@RoadManager@@AAPAVRoadSegment@@AAM3@Z 004115c0 f   vehicleai.obj
 0001:000106a0       ?GetLastPathInfo@VehicleAI@@QAEXAAUPathElement@RoadManager@@AAPAVRoadSegment@@AAM2@Z 004116a0 f   vehicleai.obj
 0001:000106e0       ?Allocate@?$SwapArray@UPathElement@RoadManager@@@@QAEXH@Z 004116e0 f i vehicleai.obj
 0001:00010720       ?Clamp@RadicalMathLibrary@@YAMMMM@Z 00411720 f i vehicleai.obj
 0001:00010750       ?Sign@RadicalMathLibrary@@YAMM@Z 00411750 f i vehicleai.obj
 0001:00010790       ?Magnitude@Vector@RadicalMathLibrary@@QBEMXZ 00411790 f i state.obj
 0001:00010790       ?Length@Vector@RadicalMathLibrary@@QBEMXZ 00411790 f i vehicleai.obj
 0001:000107c0       ?Set@pddiColour@@QAEXHHHH@Z 004117c0 f i vehicleairender.obj
 0001:000107f0       ??0WaypointAI@@QAE@PAVVehicle@@_NM1@Z 004117f0 f   waypointai.obj
 0001:00010870       ??_GWaypointAI@@UAEPAXI@Z  00411870 f i waypointai.obj
 0001:00010870       ??_EWaypointAI@@UAEPAXI@Z  00411870 f i waypointai.obj
 0001:00010890       ??1WaypointAI@@UAE@XZ      00411890 f   waypointai.obj
 0001:000108b0       ?Update@WaypointAI@@UAEXM@Z 004118b0 f   waypointai.obj
 0001:00010910       ?Initialize@WaypointAI@@UAEXXZ 00411910 f   waypointai.obj
 0001:00010950       ?Reset@WaypointAI@@UAEXXZ  00411950 f   waypointai.obj
 0001:00010970       ?PossiblyUseTurbo@WaypointAI@@IAEXXZ 00411970 f   waypointai.obj
 0001:00010a50       ?DoCatchUp@WaypointAI@@MAEXM@Z 00411a50 f   waypointai.obj
 0001:00010d80       ?UpdateNeedsResetOnSpot@WaypointAI@@IAEXM@Z 00411d80 f   waypointai.obj
 0001:00010ec0       ?ClearWaypoints@WaypointAI@@QAEXXZ 00411ec0 f   waypointai.obj
 0001:00010ee0       ?AddWaypoint@WaypointAI@@QAEXPAVLocator@@@Z 00411ee0 f   waypointai.obj
 0001:00010fc0       ?MustRepopulateSegments@WaypointAI@@MAE_NXZ 00411fc0 f   waypointai.obj
 0001:00010fd0       ?SetCurrentWayPoint@WaypointAI@@IAEXH@Z 00411fd0 f   waypointai.obj
 0001:00011000       ?FollowWaypoints@WaypointAI@@IAEXXZ 00412000 f   waypointai.obj
 0001:000110a0       ?TestReachedTarget@WaypointAI@@MAE_NABVVector@RadicalMathLibrary@@0@Z 004120a0 f   waypointai.obj
 0001:00011160       ?GetClosestPathElementToTarget@WaypointAI@@MAEXAAVVector@RadicalMathLibrary@@AAUPathElement@RoadManager@@AAPAVRoadSegment@@AAM3@Z 00412160 f   waypointai.obj
 0001:00011210       ?RegisterHudMapIcon@WaypointAI@@EAEHXZ 00412210 f   waypointai.obj
 0001:00011310       ?TestWaypoint@WaypointAI@@AAE_NH@Z 00412310 f   waypointai.obj
 0001:000113a0       ??_EActorAnimation@@UAEPAXI@Z 004123a0 f i ActorAnimationUFO.obj
 0001:000113a0       ??_GActorAnimation@@UAEPAXI@Z 004123a0 f i ActorAnimationUFO.obj
 0001:000113c0       ??0ActorAnimationUFO@@QAE@XZ 004123c0 f   ActorAnimationUFO.obj
 0001:000113d0       ??_GActorAnimationWasp@@UAEPAXI@Z 004123d0 f i actoranimationwasp.obj
 0001:000113d0       ??_GActorAnimationUFO@@UAEPAXI@Z 004123d0 f i ActorAnimationUFO.obj
 0001:000113d0       ??_EActorAnimationUFO@@UAEPAXI@Z 004123d0 f i ActorAnimationUFO.obj
 0001:000113d0       ??_EActorAnimationWasp@@UAEPAXI@Z 004123d0 f i actoranimationwasp.obj
 0001:000113f0       ??1ActorAnimationWasp@@UAE@XZ 004123f0 f   actoranimationwasp.obj
 0001:000113f0       ??1ActorAnimationUFO@@UAE@XZ 004123f0 f   ActorAnimationUFO.obj
 0001:00011400       ?Update@ActorAnimationUFO@@UAE_NABVMatrix@RadicalMathLibrary@@PAV23@MPAVtCompositeDrawable@@@Z 00412400 f   ActorAnimationUFO.obj
 0001:00011470       ??0Actor@@QAE@XZ           00412470 f   actor.obj
 0001:00011500       ??_EActor@@UAEPAXI@Z       00412500 f i actor.obj
 0001:00011500       ??_GActor@@UAEPAXI@Z       00412500 f i actor.obj
 0001:00011520       ??1Actor@@UAE@XZ           00412520 f   actor.obj
 0001:00011590       ?SetPosition@Actor@@UAEXABVVector@RadicalMathLibrary@@@Z 00412590 f   actor.obj
 0001:000115c0       ?GetPosition@Actor@@UBEXPAVVector@RadicalMathLibrary@@@Z 004125c0 f   actor.obj
 0001:000115d0       ?GetTransform@Actor@@UBEXPAVMatrix@RadicalMathLibrary@@@Z 004125d0 f   actor.obj
 0001:000115e0       ?GetChunkID@tSimpleChunkHandler@@UAEIXZ 004125e0 f   atcloader.obj
 0001:000115e0       ?GetEvent@SelectableDialog@@UBE?AW4EventEnum@@XZ 004125e0 f   selectabledialog.obj
 0001:000115e0       ?GetLoadType@tImageHandler@@UAE?AW4LoadType@1@XZ 004125e0 f   win32platform.obj
 0001:000115e0       ?GetID@CharacterTarget@@UAEIXZ 004125e0 f   charactertarget.obj
 0001:000115e0       ?GetDSG@Actor@@UBEPBVActorDSG@@XZ 004125e0 f   actor.obj
 0001:000115e0       ?offset@pointer@ods@@QBEIXZ 004125e0 f   radmusicwr:ods_memory.obj
 0001:000115f0       ?SetTransform@Actor@@UAEXABVMatrix@RadicalMathLibrary@@@Z 004125f0 f   actor.obj
 0001:00011620       ?SetState@Actor@@UAEXH@Z   00412620 f   actor.obj
 0001:00011640       ?GetState@Actor@@UBEIXZ    00412640 f   actor.obj
 0001:00011650       ?GetName@LocomotionSlot@choreo@@UBEPBDXZ 00412650 f   choreowr:locomotion.obj
 0001:00011650       ?GetName@Actor@@UBEPBDXZ   00412650 f   actor.obj
 0001:00011660       ?GetUID@Actor@@UBE_KXZ     00412660 f   actor.obj
 0001:00011670       ?GetStatePropUID@Actor@@UBE_KXZ 00412670 f   actor.obj
 0001:00011680       ?SetUID@Actor@@UAEX_K@Z    00412680 f   actor.obj
 0001:000116a0       ?SetStatePropID@Actor@@UAEXI@Z 004126a0 f   actor.obj
 0001:000116b0       ?AddToDSG@Actor@@UAEXXZ    004126b0 f   actor.obj
 0001:000116d0       ?RemoveFromDSG@Actor@@UAEXXZ 004126d0 f   actor.obj
 0001:00011700       ?LoadShield@Actor@@UAEXPBD@Z 00412700 f   actor.obj
 0001:00011710       ?LoadTractorBeam@Actor@@UAEXPBD@Z 00412710 f   actor.obj
 0001:00011730       ?ActivateTractorBeam@Actor@@QAEXXZ 00412730 f   actor.obj
 0001:00011740       ?DeactivateTractorBeam@Actor@@QAEXXZ 00412740 f   actor.obj
 0001:00011750       ?IsTractorBeamOn@Actor@@QBE_NXZ 00412750 f   actor.obj
 0001:00011760       ?FillIntersectionList@Actor@@QAEXABVVector@RadicalMathLibrary@@M@Z 00412760 f   actor.obj
 0001:000117a0       ?FillIntersectionListDynamics@Actor@@QAEXABVVector@RadicalMathLibrary@@M@Z 004127a0 f   actor.obj
 0001:00011890       ?FillIntersectionListStatics@Actor@@QAEXABVVector@RadicalMathLibrary@@M@Z 00412890 f   actor.obj
 0001:00011970       ?FillIntersectionListFence@Actor@@QAEXABVVector@RadicalMathLibrary@@M@Z 00412970 f   actor.obj
 0001:00011a20       ??0?$ReserveArray@PAVDynaPhysDSG@@@@QAE@H@Z 00412a20 f i actor.obj
 0001:00011a40       ??1StatePropDSGProcAnimator@@UAE@XZ 00412a40 f i actoranimationwasp.obj
 0001:00011a50       ??_GStatePropDSGProcAnimator@@UAEPAXI@Z 00412a50 f i actoranimationwasp.obj
 0001:00011a50       ??_EStatePropDSGProcAnimator@@UAEPAXI@Z 00412a50 f i actoranimationwasp.obj
 0001:00011a70       ??0ActorAnimationWasp@@QAE@XZ 00412a70 f   actoranimationwasp.obj
 0001:00011aa0       ?Update@ActorAnimationWasp@@UAE_NABVMatrix@RadicalMathLibrary@@PAV23@MPAVtCompositeDrawable@@@Z 00412aa0 f   actoranimationwasp.obj
 0001:00011b80       ??0WingAnimator@@QAE@M@Z   00412b80 f   actoranimationwasp.obj
 0001:00011c80       ??_EWingAnimator@@UAEPAXI@Z 00412c80 f i actoranimationwasp.obj
 0001:00011c80       ??_GWingAnimator@@UAEPAXI@Z 00412c80 f i actoranimationwasp.obj
 0001:00011ca0       ??1WingAnimator@@UAE@XZ    00412ca0 f   actoranimationwasp.obj
 0001:00011cd0       ?Advance@WingAnimator@@UAEXM@Z 00412cd0 f   actoranimationwasp.obj
 0001:00011d70       ?UpdateForRender@WingAnimator@@UAEXPAVtCompositeDrawable@@@Z 00412d70 f   actoranimationwasp.obj
 0001:00011ed0       ?ScaleAdd@Vector@RadicalMathLibrary@@QAEXMABV12@@Z 00412ed0 f i actoranimationwasp.obj
 0001:00011f00       ?Scale@Vector@RadicalMathLibrary@@QAEXMABV12@@Z 00412f00 f i actoranimationwasp.obj
 0001:00011f30       ?CastsShadow@StaticPhysDSG@@UAEHXZ 00412f30 f i actordsg.obj
 0001:00011f40       ?GetAIRef@ActorDSG@@UAEHXZ 00412f40 f i actordsg.obj
 0001:00011f50       ?DisplaySimpleShadow@ActorDSG@@UAEXXZ 00412f50 f i actordsg.obj
 0001:00011f60       ??0ActorDSG@@QAE@XZ        00412f60 f   actordsg.obj
 0001:00011fb0       ??_EActorDSG@@UAEPAXI@Z    00412fb0 f i actordsg.obj
 0001:00011fb0       ??_GActorDSG@@UAEPAXI@Z    00412fb0 f i actordsg.obj
 0001:00011fd0       ??1ActorDSG@@UAE@XZ        00412fd0 f   actordsg.obj
 0001:00012070       ?PreReactToCollision@ActorDSG@@UAE?AW4Solving_Answer@sim@@PAVSimState@3@AAVCollision@3@@Z 00413070 f   actordsg.obj
 0001:000120b0       ?PostReactToCollision@ActorDSG@@UAE?AW4Solving_Answer@sim@@AAVVector@RadicalMathLibrary@@AAVCollision@3@@Z 004130b0 f   actordsg.obj
 0001:00012140       ?ApplyForce@ActorDSG@@UAEXABVVector@RadicalMathLibrary@@M@Z 00413140 f   actordsg.obj
 0001:000121a0       ?RecieveEvent@ActorDSG@@UAEXHPAVCStateProp@@@Z 004131a0 f   actordsg.obj
 0001:00012290       ?HandleEvent@ActorDSG@@QAEXW4Event@StatePropDSG@@@Z 00413290 f   actordsg.obj
 0001:000122a0       ?LoadShield@ActorDSG@@QAE_NPBD@Z 004132a0 f   actordsg.obj
 0001:00012330       ?LoadTractorBeam@ActorDSG@@QAE_NPBD@Z 00413330 f   actordsg.obj
 0001:000123a0       ?ActivateTractorBeam@ActorDSG@@QAEXXZ 004133a0 f   actordsg.obj
 0001:000123c0       ?DeactivateTractorBeam@ActorDSG@@QAEXXZ 004133c0 f   actordsg.obj
 0001:000123f0       ?IsTractorBeamOn@ActorDSG@@QBE_NXZ 004133f0 f   actordsg.obj
 0001:00012410       ?Display@ActorDSG@@UAEXXZ  00413410 f   actordsg.obj
 0001:00012650       ?AdvanceAnimation@ActorDSG@@UAEXM@Z 00413650 f   actordsg.obj
 0001:00012690       ?DestroyShield@ActorDSG@@IAEXXZ 00413690 f   actordsg.obj
 0001:000126b0       ?PlayShieldGettingHit@ActorDSG@@IAEXXZ 004136b0 f   actordsg.obj
 0001:000126e0       ?RestoreShield@ActorDSG@@QAEXXZ 004136e0 f   actordsg.obj
 0001:00012700       ?SetPhysicsProperties@ActorDSG@@QAEXMMMM@Z 00413700 f   actordsg.obj
 0001:00012780       ?LoadSetup@ActorDSG@@UAEXPAVCStatePropData@@HABVMatrix@RadicalMathLibrary@@PAVCollisionAttributes@@_N3PAVtEntityStore@@@Z 00413780 f   actordsg.obj
 0001:00012850       ?GenerateCoins@ActorDSG@@UAEXH@Z 00413850 f   actordsg.obj
 0001:00012a80       ?CastsShadow@ActorDSG@@UAEHXZ 00413a80 f   actordsg.obj
 0001:00012ab0       ?find@?$@VCStatePropData@@@p3d@@YAPAVCStatePropData@@PAVtEntityStore@@PBD@Z 00413ab0 f i actordsg.obj
 0001:00012b10       ?find@?$@VCStatePropData@@@p3d@@YAPAVCStatePropData@@PAVtEntityStore@@ABVtName@@@Z 00413b10 f i actordsg.obj
 0001:00012ba0       ?safe_cast@?$SafeCast@VCStatePropData@@@radLoadInventory@@UAEPAUIRefCount@@PAU3@@Z 00413ba0 f i actordsg.obj
 0001:00012bc0       ?Blue@pddiColour@@QBEHXZ   00413bc0 f i actordsg.obj
 0001:00012bd0       ?Green@pddiColour@@QBEHXZ  00413bd0 f i actordsg.obj
 0001:00012be0       ?Red@pddiColour@@QBEHXZ    00413be0 f i actordsg.obj
 0001:00012bf0       ??0logic_error@std@@QAE@ABV?$basic_string@DU?$char_traits@D@std@@V?$allocator@D@2@@1@@Z 00413bf0 f i actormanager.obj
 0001:00012c50       ?what@logic_error@std@@UBEPBDXZ 00413c50 f i actormanager.obj
 0001:00012c60       ??1out_of_range@std@@UAE@XZ 00413c60 f i leakdetection.obj
 0001:00012c60       ??1logic_error@std@@UAE@XZ 00413c60 f i actormanager.obj
 0001:00012c60       ??1length_error@std@@UAE@XZ 00413c60 f i actormanager.obj
 0001:00012ca0       ??0length_error@std@@QAE@ABV01@@Z 00413ca0 f i actormanager.obj
 0001:00012cc0       ??0logic_error@std@@QAE@ABV01@@Z 00413cc0 f i actormanager.obj
 0001:00012d30       ?CreateInstance@ActorManager@@SAPAV1@XZ 00413d30 f   actormanager.obj
 0001:00012db0       ?GetInstance@ActorManager@@SAPAV1@XZ 00413db0 f   actormanager.obj
 0001:00012dc0       ?DestroyInstance@ActorManager@@SAXXZ 00413dc0 f   actormanager.obj
 0001:00012de0       ??0ActorManager@@QAE@XZ    00413de0 f   actormanager.obj
 0001:00012f60       ??_GActorManager@@UAEPAXI@Z 00413f60 f i actormanager.obj
 0001:00012f60       ??_EActorManager@@UAEPAXI@Z 00413f60 f i actormanager.obj
 0001:00012f80       ??1ActorManager@@UAE@XZ    00413f80 f   actormanager.obj
 0001:000130b0       ?AddActor@ActorManager@@QAEXPAVActor@@@Z 004140b0 f   actormanager.obj
 0001:000130d0       ?AddActorToBank@ActorManager@@QAEXPAVActor@@@Z 004140d0 f   actormanager.obj
 0001:000130f0       ?RemoveActor@ActorManager@@QAEXH_N@Z 004140f0 f   actormanager.obj
 0001:00013150       ?RemoveActorByDSGPointer@ActorManager@@QAEXPAVActorDSG@@_N@Z 00414150 f   actormanager.obj
 0001:00013190       ?RemoveAllActors@ActorManager@@QAEXXZ 00414190 f   actormanager.obj
 0001:00013220       ?AddSpawnPoint@ActorManager@@QAEXPAVSpawnPoint@@@Z 00414220 f   actormanager.obj
 0001:00013240       ?FireProjectile@ActorManager@@QAEX_KABVVector@RadicalMathLibrary@@1I@Z 00414240 f   actormanager.obj
 0001:000133c0       ?Update@ActorManager@@QAEXI@Z 004143c0 f   actormanager.obj
 0001:00013460       ?HandleEvent@ActorManager@@UAEXW4EventEnum@@PAX@Z 00414460 f   actormanager.obj
 0001:000134d0       ?GetActorByName@ActorManager@@QAEPAVActor@@PBD@Z 004144d0 f   actormanager.obj
 0001:00013520       ?GetActorByUID@ActorManager@@QAEPAVActor@@_K@Z 00414520 f   actormanager.obj
 0001:00013570       ?GetActorsByType@ActorManager@@QAE?AV?$vector@PAVActor@@V?$s2alloc@PAVActor@@@@@std@@PBD@Z 00414570 f   actormanager.obj
 0001:00013760       ?SetupConsoleFunctions@ActorManager@@AAEXXZ 00414760 f   actormanager.obj
 0001:000138c0       ?WithinAliveRange@ActorManager@@AAE_NH@Z 004148c0 f   actormanager.obj
 0001:00013940       ?AddFlyingActor@ActorManager@@CAXHPAPAD@Z 00414940 f   actormanager.obj
 0001:000139f0       ?AddFlyingActorByLocator@ActorManager@@CAXHPAPAD@Z 004149f0 f   actormanager.obj
 0001:00013ac0       ?AddSpawnPointScript@ActorManager@@CAXHPAPAD@Z 00414ac0 f   actormanager.obj
 0001:00013bc0       ?AddSpawnPointByLocatorScript@ActorManager@@CAXHPAPAD@Z 00414bc0 f   actormanager.obj
 0001:00013cd0       ?SetProjectileStats@ActorManager@@CAXHPAPAD@Z 00414cd0 f   actormanager.obj
 0001:00013da0       ?PreallocateActors@ActorManager@@CAXHPAPAD@Z 00414da0 f   actormanager.obj
 0001:00013e60       ?SetActorRotationSpeed@ActorManager@@CAXHPAPAD@Z 00414e60 f   actormanager.obj
 0001:00013ef0       ?AddShield@ActorManager@@CAXHPAPAD@Z 00414ef0 f   actormanager.obj
 0001:00013f70       ?GetSpawnPointByName@ActorManager@@QAEPAVSpawnPoint@@PBD@Z 00414f70 f   actormanager.obj
 0001:00013fe0       ?RemoveAllSpawnPoints@ActorManager@@QAEXXZ 00414fe0 f   actormanager.obj
 0001:00014010       ?CreateActor@ActorManager@@QAEPAVActor@@_K0ABVMatrix@RadicalMathLibrary@@@Z 00415010 f   actormanager.obj
 0001:000140f0       ?AddBehaviour@ActorManager@@CAXHPAPAD@Z 004150f0 f   actormanager.obj
 0001:00014440       ?SetCollisionAttributes@ActorManager@@CAXHPAPAD@Z 00415440 f   actormanager.obj
 0001:00014480       ??0?$basic_string@DU?$char_traits@D@std@@V?$allocator@D@2@@std@@QAE@PBD@Z 00415480 f i actormanager.obj
 0001:000144c0       ??1?$basic_string@DU?$char_traits@D@std@@V?$allocator@D@2@@std@@QAE@XZ 004154c0 f i actormanager.obj
 0001:000144f0       ??0?$vector@PAVActor@@V?$s2alloc@PAVActor@@@@@std@@QAE@ABV01@@Z 004154f0 f i actormanager.obj
 0001:000145b0       ?assign@?$basic_string@DU?$char_traits@D@std@@V?$allocator@D@2@@std@@QAEAAV12@ABV12@II@Z 004155b0 f i actormanager.obj
 0001:00014660       ?assign@?$basic_string@DU?$char_traits@D@std@@V?$allocator@D@2@@std@@QAEAAV12@PBDI@Z 00415660 f i actormanager.obj
 0001:00014700       ?erase@?$basic_string@DU?$char_traits@D@std@@V?$allocator@D@2@@std@@QAEAAV12@II@Z 00415700 f i actormanager.obj
 0001:000147c0       ?_Grow@?$basic_string@DU?$char_traits@D@std@@V?$allocator@D@2@@std@@AAE_NI_N@Z 004157c0 f i actormanager.obj
 0001:00014890       ?_Copy@?$basic_string@DU?$char_traits@D@std@@V?$allocator@D@2@@std@@AAEXII@Z 00415890 f i actormanager.obj
 0001:000149b0       ?find@?$@VLocator@@@p3d@@YAPAVLocator@@PBD@Z 004159b0 f i actormanager.obj
 0001:000149d0       ?find@?$@VLocator@@@p3d@@YAPAVLocator@@PAVtEntityStore@@PBD@Z 004159d0 f i actormanager.obj
 0001:00014a30       ?find@?$@VLocator@@@p3d@@YAPAVLocator@@PAVtEntityStore@@ABVtName@@@Z 00415a30 f i actormanager.obj
 0001:00014ac0       ?_Uninit_copy@std@@YAPAPAVActor@@V?$_Ptrit@PAVActor@@HPBQAV1@ABQAV1@PAPAV1@AAPAV1@@1@0PAPAV2@AAV?$s2alloc@PAVActor@@@@U_Nonscalar_ptr_iterator_tag@1@@Z 00415ac0 f i actormanager.obj
 0001:00014ac0       ?_Uninit_copy@std@@YAPAPAVActor@@V?$_Ptrit@PAVActor@@HPAPAV1@AAPAV1@PAPAV1@AAPAV1@@1@0PAPAV2@AAV?$s2alloc@PAVActor@@@@U_Nonscalar_ptr_iterator_tag@1@@Z 00415ac0 f i actormanager.obj
 0001:00014ac0       ?_Uninit_copy@std@@YAPAPAVSelectableDialog@@V?$_Ptrit@PAVSelectableDialog@@HPAPAV1@AAPAV1@PAPAV1@AAPAV1@@1@0PAPAV2@AAV?$s2alloc@PAVSelectableDialog@@@@U_Nonscalar_ptr_iterator_tag@1@@Z 00415ac0 f i dialogselectiongroup.obj
 0001:00014ac0       ?_Uninit_copy@std@@YAPAPAVCollisionObject@sim@@V?$_Ptrit@PAVCollisionObject@sim@@HPAPAV12@AAPAV12@PAPAV12@AAPAV12@@1@0PAPAV23@AAV?$s2alloc@PAVCollisionObject@sim@@@@U_Nonscalar_ptr_iterator_tag@1@@Z 00415ac0 f i intersectionlist.obj
 0001:00014ac0       ?_Uninit_copy@std@@YAPAPAVIEntityDSG@@V?$_Ptrit@PAVIEntityDSG@@HPAPAV1@AAPAV1@PAPAV1@AAPAV1@@1@0PAPAV2@AAV?$s2alloc@PAVIEntityDSG@@@@U_Nonscalar_ptr_iterator_tag@1@@Z 00415ac0 f i WorldScene.obj
 0001:00014ac0       ?_Uninit_copy@std@@YAPAW4TutorialMode@@V?$_Ptrit@W4TutorialMode@@HPAW41@AAW41@PAW41@AAW41@@1@0PAW42@AAV?$s2alloc@W4TutorialMode@@@@U_Nonscalar_ptr_iterator_tag@1@@Z 00415ac0 f i tutorialmanager.obj
 0001:00014ac0       ?_Uninit_copy@std@@YAPAPAVEventListener@@V?$_Ptrit@PAVEventListener@@HPAPAV1@AAPAV1@PAPAV1@AAPAV1@@1@0PAPAV2@AAV?$s2alloc@PAVEventListener@@@@U_Nonscalar_ptr_iterator_tag@1@@Z 00415ac0 f i eventmanager.obj
 0001:00014ac0       ?_Uninit_copy@std@@YAPAW4ContextEnum@@V?$_Ptrit@W4ContextEnum@@HPAW41@AAW41@PAW41@AAW41@@1@0PAW42@AAV?$s2alloc@W4ContextEnum@@@@U_Nonscalar_ptr_iterator_tag@1@@Z 00415ac0 f i gameflow.obj
 0001:00014af0       ?safe_cast@?$SafeCast@VLocator@@@radLoadInventory@@UAEPAUIRefCount@@PAU3@@Z 00415af0 f i actormanager.obj
 0001:00014b10       ??0Behaviour@@QAE@XZ       00415b10 f i attackbehaviour.obj
 0001:00014b30       ??1Behaviour@@UAE@XZ       00415b30 f i attackbehaviour.obj
 0001:00014b30       ??1EvasionBehaviour@@UAE@XZ 00415b30 f i evasionbehaviour.obj
 0001:00014b40       ?IsDone@Iterator@Scenegraph@@UAE_NXZ 00415b40 f i scroobywr:FePure3dObject.obj
 0001:00014b40       ?IsExclusive@Behaviour@@UBE_NXZ 00415b40 f i attackbehaviour.obj
 0001:00014b40       ?GetAutoRepack@radLoadHashedStore@@UAE_NXZ 00415b40 f i radcontentwr:inventory.obj
 0001:00014b40       ?GetEndianSwap@radLoadStream@@UAE_NXZ 00415b40 f i radcontentwr:stream.obj
 0001:00014b50       ?SetExclusive@Behaviour@@MAEX_N@Z 00415b50 f i attackbehaviour.obj
 0001:00014b60       ??_GEvasionBehaviour@@UAEPAXI@Z 00415b60 f i evasionbehaviour.obj
 0001:00014b60       ??_EEvasionBehaviour@@UAEPAXI@Z 00415b60 f i evasionbehaviour.obj
 0001:00014b60       ??_GBehaviour@@UAEPAXI@Z   00415b60 f i attackbehaviour.obj
 0001:00014b60       ??_EBehaviour@@UAEPAXI@Z   00415b60 f i attackbehaviour.obj
 0001:00014b80       ??0AttackBehaviour@@QAE@MM@Z 00415b80 f   attackbehaviour.obj
 0001:00014c30       ??_EAttackBehaviour@@UAEPAXI@Z 00415c30 f i attackbehaviour.obj
 0001:00014c30       ??_GAttackBehaviour@@UAEPAXI@Z 00415c30 f i attackbehaviour.obj
 0001:00014c50       ??1AttackBehaviour@@UAE@XZ 00415c50 f   attackbehaviour.obj
 0001:00014c80       ?Apply@AttackBehaviour@@UAEXPAVActor@@I@Z 00415c80 f   attackbehaviour.obj
 0001:00014ea0       ?SetMaxFiringRange@AttackBehaviour@@QAEXM@Z 00415ea0 f   attackbehaviour.obj
 0001:00014ec0       ?SetFiringArc@AttackBehaviour@@QAEXM@Z 00415ec0 f   attackbehaviour.obj
 0001:00014ee0       ?SetActorMoveSpeed@UFOAttackBehaviour@@QAEXM@Z 00415ee0 f   ufoattackbehaviour.obj
 0001:00014ee0       ?SetActorMoveSpeed@AttackBehaviour@@QAEXM@Z 00415ee0 f   attackbehaviour.obj
 0001:00014ef0       ?SetMovementIntervals@AttackBehaviour@@QAEXM@Z 00415ef0 f   attackbehaviour.obj
 0001:00014f00       ?IsMovementDisabled@AttackBehaviour@@QBE_NXZ 00415f00 f   attackbehaviour.obj
 0001:00014f20       ?Activate@AttackBehaviour@@UAEXXZ 00415f20 f   attackbehaviour.obj
 0001:00014fb0       ?Deactivate@AttackBehaviour@@UAEXXZ 00415fb0 f   attackbehaviour.obj
 0001:00014fe0       ?WithinFiringRange@AttackBehaviour@@IBE_NABVVector@RadicalMathLibrary@@0@Z 00415fe0 f   attackbehaviour.obj
 0001:00015020       ?WithinFiringArc@AttackBehaviour@@IBE_NABVVector@RadicalMathLibrary@@00@Z 00416020 f   attackbehaviour.obj
 0001:00015090       ?IsTooClose@AttackBehaviour@@IBE_NABVVector@RadicalMathLibrary@@0@Z 00416090 f   attackbehaviour.obj
 0001:000150d0       ?MoveIntoAttackRange@AttackBehaviour@@IAEXPAVActor@@ABVVector@RadicalMathLibrary@@@Z 004160d0 f   attackbehaviour.obj
 0001:000151f0       ?MoveAway@AttackBehaviour@@IAEXPAVActor@@ABVVector@RadicalMathLibrary@@@Z 004161f0 f   attackbehaviour.obj
 0001:00015270       ?HandleEvent@AttackBehaviour@@UAEXW4EventEnum@@PAX@Z 00416270 f   attackbehaviour.obj
 0001:00015340       ??_EAttackBehaviour@@WBA@AEPAXI@Z 00416340 f i attackbehaviour.obj
 0001:00015350       ??0AttractionBehaviour@@QAE@MMM@Z 00416350 f   attractionbehaviour.obj
 0001:00015560       ??_GAttractionBehaviour@@UAEPAXI@Z 00416560 f i attractionbehaviour.obj
 0001:00015560       ??_EAttractionBehaviour@@UAEPAXI@Z 00416560 f i attractionbehaviour.obj
 0001:00015580       ??1AttractionBehaviour@@UAE@XZ 00416580 f   attractionbehaviour.obj
 0001:000155c0       ?Apply@AttractionBehaviour@@UAEXPAVActor@@I@Z 004165c0 f   attractionbehaviour.obj
 0001:000156f0       ?HandleEvent@AttractionBehaviour@@UAEXW4EventEnum@@PAX@Z 004166f0 f   attractionbehaviour.obj
 0001:00015820       ?Activate@AttractionBehaviour@@UAEXXZ 00416820 f   attractionbehaviour.obj
 0001:00015830       ?Deactivate@AttractionBehaviour@@UAEXXZ 00416830 f   attractionbehaviour.obj
 0001:00015860       ?WithinSensoryRange@AttractionBehaviour@@ABE_NABVActor@@ABVAvatar@@@Z 00416860 f   attractionbehaviour.obj
 0001:000158d0       ?FindNewWatchPosition@AttractionBehaviour@@ABE_NABVActor@@ABVVector@RadicalMathLibrary@@PAV34@@Z 004168d0 f   attractionbehaviour.obj
 0001:000159f0       ??_EAttractionBehaviour@@WBA@AEPAXI@Z 004169f0 f i attractionbehaviour.obj
 0001:00015a00       ??0EvasionBehaviour@@QAE@MMMMM@Z 00416a00 f   evasionbehaviour.obj
 0001:00015aa0       ?Apply@EvasionBehaviour@@UAEXPAVActor@@I@Z 00416aa0 f   evasionbehaviour.obj
 0001:00015bc0       ?SetSpeed@EvasionBehaviour@@QAEXM@Z 00416bc0 f   evasionbehaviour.obj
 0001:00015bd0       ?FindEvasionDestination@EvasionBehaviour@@AAE_NABVVector@RadicalMathLibrary@@PAV23@@Z 00416bd0 f   evasionbehaviour.obj
 0001:00015cc0       ?FindGroundHeight@EvasionBehaviour@@ABE_NMMPAM@Z 00416cc0 f   evasionbehaviour.obj
 0001:00015d20       ?IsMoving@FlyingActor@@UBE_NXZ 00416d20 f i flyingactor.obj
 0001:00015d30       ??0FlyingActor@@QAE@XZ     00416d30 f   flyingactor.obj
 0001:00015e10       ??_EFlyingActor@@UAEPAXI@Z 00416e10 f i flyingactor.obj
 0001:00015e10       ??_GFlyingActor@@UAEPAXI@Z 00416e10 f i flyingactor.obj
 0001:00015e30       ??1FlyingActor@@UAE@XZ     00416e30 f   flyingactor.obj
 0001:00015f10       ?Init@FlyingActor@@UAE_NPBD0@Z 00416f10 f   flyingactor.obj
 0001:000160e0       ?Update@FlyingActor@@UAEXI@Z 004170e0 f   flyingactor.obj
 0001:00016200       ?AddBehaviour@FlyingActor@@UAEXPAVBehaviour@@@Z 00417200 f   flyingactor.obj
 0001:00016300       ?Activate@FlyingActor@@UAEXXZ 00417300 f   flyingactor.obj
 0001:00016350       ?DeactivateBehaviours@FlyingActor@@UAEXXZ 00417350 f   flyingactor.obj
 0001:00016360       ?SetRotationSpeed@FlyingActor@@UAEXM@Z 00417360 f   flyingactor.obj
 0001:00016380       ?LookAt@FlyingActor@@UAEXABVVector@RadicalMathLibrary@@I@Z 00417380 f   flyingactor.obj
 0001:00016520       ?ReleaseBehaviours@FlyingActor@@UAEXXZ 00417520 f   flyingactor.obj
 0001:00016550       ?FindWaypoint@FlyingActor@@IAEXABVVector@RadicalMathLibrary@@0H@Z 00417550 f   flyingactor.obj
 0001:00016760       ?MoveTo@FlyingActor@@UAEXABVVector@RadicalMathLibrary@@M@Z 00417760 f   flyingactor.obj
 0001:00016920       ?ChangeBehaviour@FlyingActor@@IAE_NPAVBehaviour@@@Z 00417920 f   flyingactor.obj
 0001:00016980       ?UpdateMovement@FlyingActor@@IAE_NIPAVVector@RadicalMathLibrary@@@Z 00417980 f   flyingactor.obj
 0001:00016c10       ?FindGroundIntersection@FlyingActor@@IAE_NPAM@Z 00417c10 f   flyingactor.obj
 0001:00016cd0       ?RecieveEvent@FlyingActor@@UAEXHPAVCStateProp@@@Z 00417cd0 f   flyingactor.obj
 0001:00016da0       ?reserve@?$vector@VVector@RadicalMathLibrary@@V?$s2alloc@VVector@RadicalMathLibrary@@@@@std@@QAEXI@Z 00417da0 f i flyingactor.obj
 0001:00016ec0       ?size@?$vector@VVector@RadicalMathLibrary@@V?$s2alloc@VVector@RadicalMathLibrary@@@@@std@@QBEIXZ 00417ec0 f i flyingactor.obj
 0001:00016ee0       ?push_back@?$vector@VVector@RadicalMathLibrary@@V?$s2alloc@VVector@RadicalMathLibrary@@@@@std@@QAEXABVVector@RadicalMathLibrary@@@Z 00417ee0 f i flyingactor.obj
 0001:00016f70       ?resize@?$vector@VVector@RadicalMathLibrary@@V?$s2alloc@VVector@RadicalMathLibrary@@@@@std@@QAEXIVVector@RadicalMathLibrary@@@Z 00417f70 f i flyingactor.obj
 0001:00017020       ?insert@?$vector@VVector@RadicalMathLibrary@@V?$s2alloc@VVector@RadicalMathLibrary@@@@@std@@QAE?AV?$_Ptrit@VVector@RadicalMathLibrary@@HPAV12@AAV12@PAV12@AAV12@@2@V32@ABVVector@RadicalMathLibrary@@@Z 00418020 f i flyingactor.obj
 0001:000170a0       ?_Insert_n@?$vector@VVector@RadicalMathLibrary@@V?$s2alloc@VVector@RadicalMathLibrary@@@@@std@@IAEXV?$_Ptrit@VVector@RadicalMathLibrary@@HPAV12@AAV12@PAV12@AAV12@@2@IABVVector@RadicalMathLibrary@@@Z 004180a0 f i flyingactor.obj
 0001:000173a0       ?_Ucopy@?$vector@VVector@RadicalMathLibrary@@V?$s2alloc@VVector@RadicalMathLibrary@@@@@std@@IAEPAVVector@RadicalMathLibrary@@V?$_Ptrit@VVector@RadicalMathLibrary@@HPAV12@AAV12@PAV12@AAV12@@2@0PAV34@@Z 004183a0 f i flyingactor.obj
 0001:000173d0       ?fill@std@@YAXV?$_Ptrit@VVector@RadicalMathLibrary@@HPAV12@AAV12@PAV12@AAV12@@1@0ABVVector@RadicalMathLibrary@@@Z 004183d0 f i flyingactor.obj
 0001:00017400       ?copy_backward@std@@YA?AV?$_Ptrit@VVector@RadicalMathLibrary@@HPAV12@AAV12@PAV12@AAV12@@1@V21@00@Z 00418400 f i flyingactor.obj
 0001:00017430       ?find@?$@VtDrawable@@@p3d@@YAPAVtDrawable@@PAVtEntityStore@@PBD@Z 00418430 f i flyingactor.obj
 0001:000174a0       ?_Uninit_fill_n@std@@YAXPAUBreakableInstances@BreakablesManager@@IABU23@AAV?$s2alloc@UBreakableInstances@BreakablesManager@@@@U_Nonscalar_ptr_iterator_tag@1@@Z 004184a0 f i breakablesmanager.obj
 0001:000174a0       ?_Uninit_fill_n@std@@YAXPAVVector@RadicalMathLibrary@@IABV23@AAV?$s2alloc@VVector@RadicalMathLibrary@@@@U_Nonscalar_ptr_iterator_tag@1@@Z 004184a0 f i flyingactor.obj
 0001:000174d0       ?_Copy_opt@std@@YAPAVVector@RadicalMathLibrary@@V?$_Ptrit@VVector@RadicalMathLibrary@@HPAV12@AAV12@PAV12@AAV12@@1@0PAV23@U_Nonscalar_ptr_iterator_tag@1@@Z 004184d0 f i flyingactor.obj
 0001:00017510       ?_Copy_backward_opt@std@@YA?AV?$_Ptrit@VVector@RadicalMathLibrary@@HPAV12@AAV12@PAV12@AAV12@@1@V21@00U_Nonscalar_ptr_iterator_tag@1@@Z 00418510 f i flyingactor.obj
 0001:00017560       ?find@?$@VtDrawable@@@p3d@@YAPAVtDrawable@@PAVtEntityStore@@ABVtName@@@Z 00418560 f i flyingactor.obj
 0001:000175f0       ?_Uninit_copy@std@@YAPAVVector@RadicalMathLibrary@@V?$_Ptrit@VVector@RadicalMathLibrary@@HPAV12@AAV12@PAV12@AAV12@@1@0PAV23@AAV?$s2alloc@VVector@RadicalMathLibrary@@@@U_Nonscalar_ptr_iterator_tag@1@@Z 004185f0 f i flyingactor.obj
 0001:00017630       ?safe_cast@?$SafeCast@VtDrawable@@@radLoadInventory@@UAEPAUIRefCount@@PAU3@@Z 00418630 f i flyingactor.obj
 0001:00017650       ??0RayIntersectionInfo@sim@@QAE@XZ 00418650 f i intersectionlist.obj
 0001:00017650       ??0tSubPartState@@QAE@XZ   00418650 f i pure3dwr:sequencer.obj
 0001:00017660       ??0IntersectionList@@QAE@XZ 00418660 f   intersectionlist.obj
 0001:000176f0       ??_EIntersectionList@@UAEPAXI@Z 004186f0 f i intersectionlist.obj
 0001:000176f0       ??_GIntersectionList@@UAEPAXI@Z 004186f0 f i intersectionlist.obj
 0001:00017710       ??1IntersectionList@@UAE@XZ 00418710 f   intersectionlist.obj
 0001:000177b0       ?Clear@IntersectionList@@QAEXXZ 004187b0 f   intersectionlist.obj
 0001:000177d0       ?ClearDynamics@IntersectionList@@QAEXXZ 004187d0 f   intersectionlist.obj
 0001:00017830       ?ClearStatics@IntersectionList@@QAEXXZ 00418830 f   intersectionlist.obj
 0001:00017870       ?ClearFencePieces@IntersectionList@@QAEXXZ 00418870 f   intersectionlist.obj
 0001:000178b0       ?TestIntersectionStatics@IntersectionList@@QAE_NABVVector@RadicalMathLibrary@@0PAV23@@Z 004188b0 f   intersectionlist.obj
 0001:00017b00       ?TestIntersectionDynamics@IntersectionList@@QAE_NABVVector@RadicalMathLibrary@@0PAV23@PAPAVDynaPhysDSG@@@Z 00418b00 f   intersectionlist.obj
 0001:00017c90       ?TestIntersection@IntersectionList@@QAE_NABVVector@RadicalMathLibrary@@0PAV23@@Z 00418c90 f   intersectionlist.obj
 0001:00017f70       ?LineOfSight@IntersectionList@@QAE_NABVVector@RadicalMathLibrary@@0@Z 00418f70 f   intersectionlist.obj
 0001:00018100       ?AddStatic@IntersectionList@@QAEXPAVSimState@sim@@@Z 00419100 f   intersectionlist.obj
 0001:00018140       ?AddDynamic@IntersectionList@@QAEXPAVSimState@sim@@PAVDynaPhysDSG@@@Z 00419140 f   intersectionlist.obj
 0001:00018190       ?AddFencePiece@IntersectionList@@QAEXPAVFenceEntityDSG@@@Z 00419190 f   intersectionlist.obj
 0001:000181e0       ?FillIntersectionListStatics@IntersectionList@@QAEHABVVector@RadicalMathLibrary@@M@Z 004191e0 f   intersectionlist.obj
 0001:000182a0       ?FillIntersectionListFence@IntersectionList@@QAEHABVVector@RadicalMathLibrary@@M@Z 004192a0 f   intersectionlist.obj
 0001:00018350       ?LineSegmentIntersection@IntersectionList@@IAE_NABULineSegment2D@1@0PAM@Z 00419350 f   intersectionlist.obj
 0001:000184a0       ?push_back@?$vector@PAVCollisionObject@sim@@V?$s2alloc@PAVCollisionObject@sim@@@@@std@@QAEXABQAVCollisionObject@sim@@@Z 004194a0 f i intersectionlist.obj
 0001:000184a0       ?push_back@?$vector@PAVEventListener@@V?$s2alloc@PAVEventListener@@@@@std@@QAEXABQAVEventListener@@@Z 004194a0 f i eventmanager.obj
 0001:000184a0       ?push_back@?$vector@PAVSelectableDialog@@V?$s2alloc@PAVSelectableDialog@@@@@std@@QAEXABQAVSelectableDialog@@@Z 004194a0 f i dialogselectiongroup.obj
 0001:000184a0       ?push_back@?$vector@W4TutorialMode@@V?$s2alloc@W4TutorialMode@@@@@std@@QAEXABW4TutorialMode@@@Z 004194a0 f i tutorialmanager.obj
 0001:000184a0       ?push_back@?$vector@W4ContextEnum@@V?$s2alloc@W4ContextEnum@@@@@std@@QAEXABW4ContextEnum@@@Z 004194a0 f i gameflow.obj
 0001:00018500       ??1?$vector@PAVIEntityDSG@@V?$s2alloc@PAVIEntityDSG@@@@@std@@QAE@XZ 00419500 f i WorldScene.obj
 0001:00018500       ??1?$Map@W4ParticleID@ParticleEnum@@H@@QAE@XZ 00419500 f i vehicleparticleemitter.obj
 0001:00018500       ?_Tidy@?$vector@PAVActor@@V?$s2alloc@PAVActor@@@@@std@@IAEXXZ 00419500 f i actormanager.obj
 0001:00018500       ??1?$stack@W4ContextEnum@@V?$vector@W4ContextEnum@@V?$s2alloc@W4ContextEnum@@@@@std@@@std@@QAE@XZ 00419500 f i gameflow.obj
 0001:00018500       ??1?$vector@ULineSegment2D@IntersectionList@@V?$s2alloc@ULineSegment2D@IntersectionList@@@@@std@@QAE@XZ 00419500 f i intersectionlist.obj
 0001:00018500       ??1?$Map@_KPAVtPose@@@@QAE@XZ 00419500 f i StatePropDSG.obj
 0001:00018500       ??1?$vector@PAVActor@@V?$s2alloc@PAVActor@@@@@std@@QAE@XZ 00419500 f i actormanager.obj
 0001:00018500       ??1?$Map@_K_K@@QAE@XZ      00419500 f i AnimDynaPhysLoader.obj
 0001:00018500       ??1PartEmitter@VehicleParticleEmitter@@QAE@XZ 00419500 f i vehicleparticleemitter.obj
 0001:00018500       ??1?$vector@W4TutorialMode@@V?$s2alloc@W4TutorialMode@@@@@std@@QAE@XZ 00419500 f i tutorialmanager.obj
 0001:00018500       ??1?$Map@PAVCollisionObject@sim@@PAVDynaPhysDSG@@@@QAE@XZ 00419500 f i intersectionlist.obj
 0001:00018500       ??1?$vector@UBreakableInstances@BreakablesManager@@V?$s2alloc@UBreakableInstances@BreakablesManager@@@@@std@@QAE@XZ 00419500 f i breakablesmanager.obj
 0001:00018500       ??1?$vector@UzSortBlah@WorldScene@@V?$s2alloc@UzSortBlah@WorldScene@@@@@std@@QAE@XZ 00419500 f i WorldScene.obj
 0001:00018500       ??1?$vector@UVehicleFrameController@GeometryVehicle@@V?$s2alloc@UVehicleFrameController@GeometryVehicle@@@@@std@@QAE@XZ 00419500 f i geometryvehicle.obj
 0001:00018500       ??1?$vector@PAVCollisionObject@sim@@V?$s2alloc@PAVCollisionObject@sim@@@@@std@@QAE@XZ 00419500 f i intersectionlist.obj
 0001:00018500       ??1?$vector@PAVSelectableDialog@@V?$s2alloc@PAVSelectableDialog@@@@@std@@QAE@XZ 00419500 f i dialogselectiongroup.obj
 0001:00018500       ?_Tidy@?$vector@UBreakableInstances@BreakablesManager@@V?$s2alloc@UBreakableInstances@BreakablesManager@@@@@std@@IAEXXZ 00419500 f i breakablesmanager.obj
 0001:00018500       ??1?$vector@VVector@RadicalMathLibrary@@V?$s2alloc@VVector@RadicalMathLibrary@@@@@std@@QAE@XZ 00419500 f i flyingactor.obj
 0001:00018500       ??1?$vector@_NV?$s2alloc@_N@@@std@@QAE@XZ 00419500 f i particlemanager.obj
 0001:00018530       ?reserve@?$vector@UzSortBlah@WorldScene@@V?$s2alloc@UzSortBlah@WorldScene@@@@@std@@QAEXI@Z 00419530 f i WorldScene.obj
 0001:00018530       ?reserve@?$vector@V?$MapElement@_KPAVtPose@@@@V?$s2alloc@V?$MapElement@_KPAVtPose@@@@@@@std@@QAEXI@Z 00419530 f i StatePropDSG.obj
 0001:00018530       ?reserve@?$vector@V?$MapElement@_K_K@@V?$s2alloc@V?$MapElement@_K_K@@@@@std@@QAEXI@Z 00419530 f i AnimDynaPhysLoader.obj
 0001:00018530       ?reserve@?$vector@ULineSegment2D@IntersectionList@@V?$s2alloc@ULineSegment2D@IntersectionList@@@@@std@@QAEXI@Z 00419530 f i intersectionlist.obj
 0001:00018620       ?push_back@?$vector@V?$MapElement@_K_K@@V?$s2alloc@V?$MapElement@_K_K@@@@@std@@QAEXABV?$MapElement@_K_K@@@Z 00419620 f i AnimDynaPhysLoader.obj
 0001:00018620       ?push_back@?$vector@UzSortBlah@WorldScene@@V?$s2alloc@UzSortBlah@WorldScene@@@@@std@@QAEXABUzSortBlah@WorldScene@@@Z 00419620 f i WorldScene.obj
 0001:00018620       ?push_back@?$vector@ULineSegment2D@IntersectionList@@V?$s2alloc@ULineSegment2D@IntersectionList@@@@@std@@QAEXABULineSegment2D@IntersectionList@@@Z 00419620 f i intersectionlist.obj
 0001:00018620       ?push_back@?$vector@V?$MapElement@_KPAVtPose@@@@V?$s2alloc@V?$MapElement@_KPAVtPose@@@@@@@std@@QAEXABV?$MapElement@_KPAVtPose@@@@@Z 00419620 f i StatePropDSG.obj
 0001:00018680       ?begin@?$Map@_KPAVtPose@@@@QAE?AV?$_Ptrit@V?$MapElement@_KPAVtPose@@@@HPAV1@AAV1@PAV1@AAV1@@std@@XZ 00419680 f i StatePropDSG.obj
 0001:00018680       ?begin@?$Map@PAVCollisionObject@sim@@PAVDynaPhysDSG@@@@QAE?AV?$_Ptrit@V?$MapElement@PAVCollisionObject@sim@@PAVDynaPhysDSG@@@@HPAV1@AAV1@PAV1@AAV1@@std@@XZ 00419680 f i intersectionlist.obj
 0001:00018690       ?clear@?$Map@PAVCollisionObject@sim@@PAVDynaPhysDSG@@@@QAEXXZ 00419690 f i intersectionlist.obj
 0001:000186c0       ?insert@?$Map@PAVCollisionObject@sim@@PAVDynaPhysDSG@@@@QAEXABQAVCollisionObject@sim@@ABQAVDynaPhysDSG@@@Z 004196c0 f i intersectionlist.obj
 0001:00018710       ?size@?$Map@PAVCollisionObject@sim@@PAVDynaPhysDSG@@@@QBEIXZ 00419710 f i intersectionlist.obj
 0001:00018730       ?copy_backward@std@@YA?AV?$_Ptrit@ULineSegment2D@IntersectionList@@HPAU12@AAU12@PAU12@AAU12@@1@V21@00@Z 00419730 f i intersectionlist.obj
 0001:00018730       ?copy_backward@std@@YA?AV?$_Ptrit@V?$MapElement@_KPAVtPose@@@@HPAV1@AAV1@PAV1@AAV1@@1@V21@00@Z 00419730 f i StatePropDSG.obj
 0001:00018730       ?copy_backward@std@@YA?AV?$_Ptrit@V?$MapElement@_K_K@@HPAV1@AAV1@PAV1@AAV1@@1@V21@00@Z 00419730 f i AnimDynaPhysLoader.obj
 0001:00018730       ?copy_backward@std@@YA?AV?$_Ptrit@UzSortBlah@WorldScene@@HPAU12@AAU12@PAU12@AAU12@@1@V21@00@Z 00419730 f i WorldScene.obj
 0001:00018760       ?find@?$Map@PAVCollisionObject@sim@@PAVDynaPhysDSG@@@@QAE?AV?$_Ptrit@V?$MapElement@PAVCollisionObject@sim@@PAVDynaPhysDSG@@@@HPAV1@AAV1@PAV1@AAV1@@std@@ABQAVCollisionObject@sim@@@Z 00419760 f i intersectionlist.obj
 0001:000187d0       ?_Uninit_fill_n@std@@YAXPAV?$MapElement@_K_K@@IABV2@AAV?$s2alloc@V?$MapElement@_K_K@@@@U_Nonscalar_ptr_iterator_tag@1@@Z 004197d0 f i AnimDynaPhysLoader.obj
 0001:000187d0       ?_Uninit_fill_n@std@@YAXPAV?$MapElement@_KPAVtPose@@@@IABV2@AAV?$s2alloc@V?$MapElement@_KPAVtPose@@@@@@U_Nonscalar_ptr_iterator_tag@1@@Z 004197d0 f i StatePropDSG.obj
 0001:000187d0       ?_Uninit_fill_n@std@@YAXPAUzSortBlah@WorldScene@@IABU23@AAV?$s2alloc@UzSortBlah@WorldScene@@@@U_Nonscalar_ptr_iterator_tag@1@@Z 004197d0 f i WorldScene.obj
 0001:000187d0       ?_Uninit_fill_n@std@@YAXPAULineSegment2D@IntersectionList@@IABU23@AAV?$s2alloc@ULineSegment2D@IntersectionList@@@@U_Nonscalar_ptr_iterator_tag@1@@Z 004197d0 f i intersectionlist.obj
 0001:00018800       ?fill@std@@YAXV?$_Ptrit@V?$MapElement@W4ParticleID@ParticleEnum@@H@@HPAV1@AAV1@PAV1@AAV1@@1@0ABV?$MapElement@W4ParticleID@ParticleEnum@@H@@@Z 00419800 f i vehicleparticleemitter.obj
 0001:00018800       ?fill@std@@YAXV?$_Ptrit@V?$MapElement@PAVCollisionObject@sim@@PAVDynaPhysDSG@@@@HPAV1@AAV1@PAV1@AAV1@@1@0ABV?$MapElement@PAVCollisionObject@sim@@PAVDynaPhysDSG@@@@@Z 00419800 f i intersectionlist.obj
 0001:00018830       ?copy_backward@std@@YA?AV?$_Ptrit@V?$MapElement@W4ParticleID@ParticleEnum@@H@@HPAV1@AAV1@PAV1@AAV1@@1@V21@00@Z 00419830 f i vehicleparticleemitter.obj
 0001:00018830       ?copy_backward@std@@YA?AV?$_Ptrit@V?$MapElement@PAVCollisionObject@sim@@PAVDynaPhysDSG@@@@HPAV1@AAV1@PAV1@AAV1@@1@V21@00@Z 00419830 f i intersectionlist.obj
 0001:00018860       ?RefreshIfDirty@?$Map@PAVCollisionObject@sim@@PAVDynaPhysDSG@@@@IBEXXZ 00419860 f i intersectionlist.obj
 0001:00018890       ?_Uninit_copy@std@@YAPAV?$MapElement@_K_K@@V?$_Ptrit@V?$MapElement@_K_K@@HPAV1@AAV1@PAV1@AAV1@@1@0PAV2@AAV?$s2alloc@V?$MapElement@_K_K@@@@U_Nonscalar_ptr_iterator_tag@1@@Z 00419890 f i AnimDynaPhysLoader.obj
 0001:00018890       ?_Uninit_copy@std@@YAPAV?$MapElement@_KPAVtPose@@@@V?$_Ptrit@V?$MapElement@_KPAVtPose@@@@HPAV1@AAV1@PAV1@AAV1@@1@0PAV2@AAV?$s2alloc@V?$MapElement@_KPAVtPose@@@@@@U_Nonscalar_ptr_iterator_tag@1@@Z 00419890 f i StatePropDSG.obj
 0001:00018890       ?_Uninit_copy@std@@YAPAULineSegment2D@IntersectionList@@V?$_Ptrit@ULineSegment2D@IntersectionList@@HPAU12@AAU12@PAU12@AAU12@@1@0PAU23@AAV?$s2alloc@ULineSegment2D@IntersectionList@@@@U_Nonscalar_ptr_iterator_tag@1@@Z 00419890 f i intersectionlist.obj
 0001:00018890       ?_Uninit_copy@std@@YAPAUzSortBlah@WorldScene@@V?$_Ptrit@UzSortBlah@WorldScene@@HPAU12@AAU12@PAU12@AAU12@@1@0PAU23@AAV?$s2alloc@UzSortBlah@WorldScene@@@@U_Nonscalar_ptr_iterator_tag@1@@Z 00419890 f i WorldScene.obj
 0001:000188d0       ?_Lower_bound@std@@YA?AV?$_Ptrit@V?$MapElement@PAVCollisionObject@sim@@PAVDynaPhysDSG@@@@HPAV1@AAV1@PAV1@AAV1@@1@V21@0ABV?$MapElement@PAVCollisionObject@sim@@PAVDynaPhysDSG@@@@PAH@Z 004198d0 f i intersectionlist.obj
 0001:00018910       ?_Uninit_copy@std@@YAPAV?$MapElement@PAVCollisionObject@sim@@PAVDynaPhysDSG@@@@V?$_Ptrit@V?$MapElement@PAVCollisionObject@sim@@PAVDynaPhysDSG@@@@HPAV1@AAV1@PAV1@AAV1@@1@0PAV2@AAV?$s2alloc@V?$MapElement@PAVCollisionObject@sim@@PAVDynaPhysDSG@@@@@@U_Nonscalar_ptr_iterator_tag@1@@Z 00419910 f i intersectionlist.obj
 0001:00018910       ?_Uninit_copy@std@@YAPAV?$MapElement@W4ParticleID@ParticleEnum@@H@@V?$_Ptrit@V?$MapElement@W4ParticleID@ParticleEnum@@H@@HPAV1@AAV1@PAV1@AAV1@@1@0PAV2@AAV?$s2alloc@V?$MapElement@W4ParticleID@ParticleEnum@@H@@@@U_Nonscalar_ptr_iterator_tag@1@@Z 00419910 f i vehicleparticleemitter.obj
 0001:00018940       ?_Sort@std@@YAXV?$_Ptrit@V?$MapElement@PAVCollisionObject@sim@@PAVDynaPhysDSG@@@@HPAV1@AAV1@PAV1@AAV1@@1@0H@Z 00419940 f i intersectionlist.obj
 0001:00018a50       ?_Unguarded_partition@std@@YA?AU?$pair@V?$_Ptrit@V?$MapElement@PAVCollisionObject@sim@@PAVDynaPhysDSG@@@@HPAV1@AAV1@PAV1@AAV1@@std@@V12@@1@V?$_Ptrit@V?$MapElement@PAVCollisionObject@sim@@PAVDynaPhysDSG@@@@HPAV1@AAV1@PAV1@AAV1@@1@0@Z 00419a50 f i intersectionlist.obj
 0001:00018c20       ?sort_heap@std@@YAXV?$_Ptrit@V?$MapElement@PAVCollisionObject@sim@@PAVDynaPhysDSG@@@@HPAV1@AAV1@PAV1@AAV1@@1@0@Z 00419c20 f i intersectionlist.obj
 0001:00018c80       ?_Insertion_sort@std@@YAXV?$_Ptrit@V?$MapElement@PAVCollisionObject@sim@@PAVDynaPhysDSG@@@@HPAV1@AAV1@PAV1@AAV1@@1@0@Z 00419c80 f i intersectionlist.obj
 0001:00018d10       ?_Median@std@@YAXV?$_Ptrit@V?$MapElement@PAVCollisionObject@sim@@PAVDynaPhysDSG@@@@HPAV1@AAV1@PAV1@AAV1@@1@00@Z 00419d10 f i intersectionlist.obj
 0001:00018df0       ?_Make_heap@std@@YAXV?$_Ptrit@V?$MapElement@PAVCollisionObject@sim@@PAVDynaPhysDSG@@@@HPAV1@AAV1@PAV1@AAV1@@1@0PAHPAV?$MapElement@PAVCollisionObject@sim@@PAVDynaPhysDSG@@@@@Z 00419df0 f i intersectionlist.obj
 0001:00018e40       ?_Med3@std@@YAXV?$_Ptrit@V?$MapElement@PAVCollisionObject@sim@@PAVDynaPhysDSG@@@@HPAV1@AAV1@PAV1@AAV1@@1@00@Z 00419e40 f i intersectionlist.obj
 0001:00018ea0       ?_Adjust_heap@std@@YAXV?$_Ptrit@V?$MapElement@PAVCollisionObject@sim@@PAVDynaPhysDSG@@@@HPAV1@AAV1@PAV1@AAV1@@1@HHV?$MapElement@PAVCollisionObject@sim@@PAVDynaPhysDSG@@@@@Z 00419ea0 f i intersectionlist.obj
 0001:00018f00       ?_Push_heap@std@@YAXV?$_Ptrit@V?$MapElement@PAVCollisionObject@sim@@PAVDynaPhysDSG@@@@HPAV1@AAV1@PAV1@AAV1@@1@HHV?$MapElement@PAVCollisionObject@sim@@PAVDynaPhysDSG@@@@@Z 00419f00 f i intersectionlist.obj
 0001:00018f50       ?_Rotate@std@@YAXV?$_Ptrit@V?$MapElement@W4ParticleID@ParticleEnum@@H@@HPAV1@AAV1@PAV1@AAV1@@1@00PAHPAV?$MapElement@W4ParticleID@ParticleEnum@@H@@@Z 00419f50 f i vehicleparticleemitter.obj
 0001:00018f50       ?_Rotate@std@@YAXV?$_Ptrit@V?$MapElement@PAVCollisionObject@sim@@PAVDynaPhysDSG@@@@HPAV1@AAV1@PAV1@AAV1@@1@00PAHPAV?$MapElement@PAVCollisionObject@sim@@PAVDynaPhysDSG@@@@@Z 00419f50 f i intersectionlist.obj
 0001:00019030       ??0Projectile@@QAE@XZ      0041a030 f   projectile.obj
 0001:00019050       ??_GProjectile@@UAEPAXI@Z  0041a050 f i projectile.obj
 0001:00019050       ??_EProjectile@@UAEPAXI@Z  0041a050 f i projectile.obj
 0001:00019070       ??1Projectile@@UAE@XZ      0041a070 f   projectile.obj
 0001:000190d0       ?SetSpeed@Projectile@@SAXM@Z 0041a0d0 f   projectile.obj
 0001:000190f0       ?Init@Projectile@@UAE_NPBD0@Z 0041a0f0 f   projectile.obj
 0001:000191f0       ?Update@Projectile@@UAEXI@Z 0041a1f0 f   projectile.obj
 0001:00019410       ?Fire@Projectile@@QAEXXZ   0041a410 f   projectile.obj
 0001:00019420       ?CalculateIntersections@Projectile@@QAEXXZ 0041a420 f   projectile.obj
 0001:000194e0       ?AdjustCollisionPosition@Projectile@@IAEXABVVector@RadicalMathLibrary@@00PAV23@@Z 0041a4e0 f   projectile.obj
 0001:00019590       ?ApplyDamage@Projectile@@IAEXPAVDynaPhysDSG@@@Z 0041a590 f   projectile.obj
 0001:000196f0       ?IsJumpingPlayer@Projectile@@IAE_NPAVDynaPhysDSG@@@Z 0041a6f0 f   projectile.obj
 0001:00019720       ??0ProjectileDSG@@QAE@XZ   0041a720 f   projectiledsg.obj
 0001:00019750       ??_GProjectileDSG@@UAEPAXI@Z 0041a750 f i projectiledsg.obj
 0001:00019750       ??_EProjectileDSG@@UAEPAXI@Z 0041a750 f i projectiledsg.obj
 0001:00019770       ??1ProjectileDSG@@UAE@XZ   0041a770 f   projectiledsg.obj
 0001:00019790       ?PreReactToCollision@ProjectileDSG@@UAE?AW4Solving_Answer@sim@@PAVSimState@3@AAVCollision@3@@Z 0041a790 f   projectiledsg.obj
 0001:000197b0       ?PostReactToCollision@ProjectileDSG@@UAE?AW4Solving_Answer@sim@@AAVVector@RadicalMathLibrary@@AAVCollision@3@@Z 0041a7b0 f   projectiledsg.obj
 0001:000197c0       ?GetNumTriggers@TriggerLocator@@UAEIXZ 0041a7c0 f i spawnpoint.obj
 0001:000197d0       ?GetDataType@SpawnPoint@@UBE?AW4Type@LocatorType@@XZ 0041a7d0 f i spawnpoint.obj
 0001:000197d0       ?GetType@StaticCam@@UAE?AW4Type@SuperCam@@XZ 0041a7d0 f i staticcam.obj
 0001:000197e0       ??0SpawnPoint@@QAE@PBD0ABVSphere@RadicalMathLibrary@@I@Z 0041a7e0 f   spawnpoint.obj
 0001:00019990       ??_GSpawnPoint@@UAEPAXI@Z  0041a990 f i spawnpoint.obj
 0001:00019990       ??_ESpawnPoint@@UAEPAXI@Z  0041a990 f i spawnpoint.obj
 0001:000199b0       ??1SpawnPoint@@UAE@XZ      0041a9b0 f   spawnpoint.obj
 0001:00019aa0       ?AddBehaviour@SpawnPoint@@QAEXPAVBehaviour@@@Z 0041aaa0 f   spawnpoint.obj
 0001:00019ac0       ?OnTrigger@SpawnPoint@@MAEXI@Z 0041aac0 f   spawnpoint.obj
 0001:00019b90       ?CanRespawn@SpawnPoint@@QBE_NXZ 0041ab90 f   spawnpoint.obj
 0001:00019ba0       ?HandleEvent@SpawnPoint@@UAEXW4EventEnum@@PAX@Z 0041aba0 f   spawnpoint.obj
 0001:00019be0       ??_ESpawnPoint@@WEI@AEPAXI@Z 0041abe0 f i spawnpoint.obj
 0001:00019bf0       ??0UFOAttackBehaviour@@QAE@M@Z 0041abf0 f   ufoattackbehaviour.obj
 0001:00019c90       ??_GUFOAttackBehaviour@@UAEPAXI@Z 0041ac90 f i ufoattackbehaviour.obj
 0001:00019c90       ??_EUFOAttackBehaviour@@UAEPAXI@Z 0041ac90 f i ufoattackbehaviour.obj
 0001:00019cb0       ??1UFOAttackBehaviour@@UAE@XZ 0041acb0 f   ufoattackbehaviour.obj
 0001:00019ce0       ?Apply@UFOAttackBehaviour@@UAEXPAVActor@@I@Z 0041ace0 f   ufoattackbehaviour.obj
 0001:00019f00       ?SetMaxFiringRange@UFOAttackBehaviour@@QAEXM@Z 0041af00 f   ufoattackbehaviour.obj
 0001:00019f20       ?FindTarget@UFOAttackBehaviour@@IAEPAVDynaPhysDSG@@ABVVector@RadicalMathLibrary@@PBVActorDSG@@@Z 0041af20 f   ufoattackbehaviour.obj
 0001:00019fe0       ??0UFOBeamAlwaysOn@@QAE@XZ 0041afe0 f   ufobeamalwaysonbehaviour.obj
 0001:00019ff0       ??_GUFOBeamAlwaysOn@@UAEPAXI@Z 0041aff0 f i ufobeamalwaysonbehaviour.obj
 0001:00019ff0       ??_EUFOBeamAlwaysOn@@UAEPAXI@Z 0041aff0 f i ufobeamalwaysonbehaviour.obj
 0001:0001a010       ??1UFOBeamAlwaysOn@@UAE@XZ 0041b010 f   ufobeamalwaysonbehaviour.obj
 0001:0001a020       ?Apply@UFOBeamAlwaysOn@@UAEXPAVActor@@I@Z 0041b020 f   ufobeamalwaysonbehaviour.obj
 0001:0001a1a0       ??0UFOBehaviour@@QAE@XZ    0041b1a0 f   ufobehaviour.obj
 0001:0001a220       ??1UFOBehaviour@@UAE@XZ    0041b220 f   ufobehaviour.obj
 0001:0001a290       ?SetCharacterRespawnPosition@UFOBehaviour@@QAEXPAVEventLocator@@@Z 0041b290 f   ufobehaviour.obj
 0001:0001a2d0       ?WithinTractorBeamRange@UFOBehaviour@@IBE_NABVVector@RadicalMathLibrary@@PAVIEntityDSG@@@Z 0041b2d0 f   ufobehaviour.obj
 0001:0001a320       ?SuckIntoUFO@UFOBehaviour@@IAE_NABVVector@RadicalMathLibrary@@PAVDynaPhysDSG@@M@Z 0041b320 f   ufobehaviour.obj
 0001:0001a440       ?ReachedTopOfTractorBeam@UFOBehaviour@@IAE_NABVVector@RadicalMathLibrary@@PAVDynaPhysDSG@@@Z 0041b440 f   ufobehaviour.obj
 0001:0001a4a0       ?DestroyObject@UFOBehaviour@@IAE_NPAVDynaPhysDSG@@@Z 0041b4a0 f   ufobehaviour.obj
 0001:0001a600       ?GetTargetsInTractorRange@UFOBehaviour@@IAEXAAVVector@RadicalMathLibrary@@MPAV?$SwapArray@PAVDynaPhysDSG@@@@@Z 0041b600 f   ufobehaviour.obj
 0001:0001a710       ?GetPseudoRandomRotationAxis@UFOBehaviour@@IBE?AVVector@RadicalMathLibrary@@H@Z 0041b710 f   ufobehaviour.obj
 0001:0001a7b0       ?find@?$@VEventLocator@@@p3d@@YAPAVEventLocator@@PBD@Z 0041b7b0 f i ufobehaviour.obj
 0001:0001a7d0       ?find@?$@VEventLocator@@@p3d@@YAPAVEventLocator@@PAVtEntityStore@@PBD@Z 0041b7d0 f i ufobehaviour.obj
 0001:0001a830       ?find@?$@VEventLocator@@@p3d@@YAPAVEventLocator@@PAVtEntityStore@@ABVtName@@@Z 0041b830 f i ufobehaviour.obj
 0001:0001a8c0       ?safe_cast@?$SafeCast@VEventLocator@@@radLoadInventory@@UAEPAUIRefCount@@PAU3@@Z 0041b8c0 f i ufobehaviour.obj
 0001:0001a8e0       ??0ATCLoader@@QAE@XZ       0041b8e0 f   atcloader.obj
 0001:0001a900       ?LoadObject@ATCLoader@@EAEPAVtEntity@@PAVtChunkFile@@PAVtEntityStore@@@Z 0041b900 f   atcloader.obj
 0001:0001aa40       ?Store@tTempStore@@UAEXPAVtEntity@@@Z 0041ba40 f i pure3dwr:loadmanager.obj
 0001:0001aa40       ?SetNameOverride@tSimpleChunkHandler@@UAEXPBD@Z 0041ba40 f i atcloader.obj
 0001:0001aa40       ?SetAllocator@radScript@@UAEXH@Z 0041ba40 f i radscriptwr:script.obj
 0001:0001aa40       ?SetAmplitude@PulseScale@GuiSFX@@QAEXM@Z 0041ba40 f i transitions.obj
 0001:0001aa40       ?Create@UserController@@UAEXH@Z 0041ba40 f i usercontrollerWin32.obj
 0001:0001aa50       ?CreateInstance@ATCManager@@SAPAV1@XZ 0041ba50 f   atcmanager.obj
 0001:0001aaa0       ?GetInstance@ATCManager@@SAPAV1@XZ 0041baa0 f   atcmanager.obj
 0001:0001aab0       ?DestroyInstance@ATCManager@@SAXXZ 0041bab0 f   atcmanager.obj
 0001:0001aae0       ?CreateCollisionAttributes@ATCManager@@QAEPAVCollisionAttributes@@IIM@Z 0041bae0 f   atcmanager.obj
 0001:0001ab40       ?Init@ATCManager@@QAEXXZ   0041bb40 f   atcmanager.obj
 0001:0001ab70       ?SetATCTable@ATCManager@@QAEXPAUAttributeRow@@I@Z 0041bb70 f   atcmanager.obj
 0001:0001abe0       ??0ATCManager@@AAE@XZ      0041bbe0 f   atcmanager.obj
 0001:0001abf0       ??1ATCManager@@AAE@XZ      0041bbf0 f   atcmanager.obj
 0001:0001ac00       ?GetCollisionRadius@SuperCam@@UBEMXZ 0041bc00 f i animatedcam.obj
 0001:0001ac10       ?EnableShake@SuperCam@@UAEXXZ 0041bc10 f i animatedcam.obj
 0001:0001ac30       ?DisableShake@DebugCam@@UAEXXZ 0041bc30 f i debugcam.obj
 0001:0001ac30       ?DisableShake@ReverseCam@@UAEXXZ 0041bc30 f i reversecam.obj
 0001:0001ac30       ?DisableShake@SuperCam@@UAEXXZ 0041bc30 f i animatedcam.obj
 0001:0001ac30       ?DisableShake@FollowCam@@UAEXXZ 0041bc30 f i followcam.obj
 0001:0001ac50       ?LookBack@SuperCam@@UAEX_N@Z 0041bc50 f i animatedcam.obj
 0001:0001ac70       ?DoFirstTime@SuperCam@@UAEXXZ 0041bc70 f i animatedcam.obj
 0001:0001ac80       ?DoCameraCut@SuperCam@@UAEXXZ 0041bc80 f i animatedcam.obj
 0001:0001ac90       ??0AnimatedCam@@QAE@XZ     0041bc90 f   animatedcam.obj
 0001:0001acb0       ??_GAnimatedCam@@UAEPAXI@Z 0041bcb0 f i animatedcam.obj
 0001:0001acb0       ??_EAnimatedCam@@UAEPAXI@Z 0041bcb0 f i animatedcam.obj
 0001:0001acd0       ??1AnimatedCam@@UAE@XZ     0041bcd0 f   animatedcam.obj
 0001:0001ad90       ?AllowSkipping@AnimatedCam@@SAX_N@Z 0041bd90 f   animatedcam.obj
 0001:0001ada0       ?CheckPendingCameraSwitch@AnimatedCam@@SAXXZ 0041bda0 f   animatedcam.obj
 0001:0001ae00       ?GetName@AnimatedCam@@UBEQBDXZ 0041be00 f   animatedcam.obj
 0001:0001ae10       ?GetType@AnimatedCam@@UAE?AW4Type@SuperCam@@XZ 0041be10 f   animatedcam.obj
 0001:0001ae20       ?LookupCamera@AnimatedCam@@KAXXZ 0041be20 f   animatedcam.obj
 0001:0001ae70       ?LookupMulticontroller@AnimatedCam@@KAXXZ 0041be70 f   animatedcam.obj
 0001:0001aec0       ?OnInit@AnimatedCam@@UAEXXZ 0041bec0 f   animatedcam.obj
 0001:0001aee0       ?OnShutdown@AnimatedCam@@UAEXXZ 0041bee0 f   animatedcam.obj
 0001:0001af20       ?Reset@AnimatedCam@@SAXXZ  0041bf20 f   animatedcam.obj
 0001:0001af40       ?SetCamera@AnimatedCam@@SAXVtName@@@Z 0041bf40 f   animatedcam.obj
 0001:0001afb0       ?SetMulticontroller@AnimatedCam@@SAXVtName@@@Z 0041bfb0 f   animatedcam.obj
 0001:0001b020       ?SetMissionStartCamera@AnimatedCam@@SAXVtName@@@Z 0041c020 f   animatedcam.obj
 0001:0001b070       ?SetMissionStartMulticontroller@AnimatedCam@@SAXVtName@@@Z 0041c070 f   animatedcam.obj
 0001:0001b0c0       ?SetNextCameraType@AnimatedCam@@QAEXW4Type@SuperCam@@@Z 0041c0c0 f   animatedcam.obj
 0001:0001b0d0       ?Skip@AnimatedCam@@SAXXZ   0041c0d0 f   animatedcam.obj
 0001:0001b100       ?TriggerMissionStartCamera@AnimatedCam@@SAXXZ 0041c100 f   animatedcam.obj
 0001:0001b1d0       ?SetCameraTransitionFlags@AnimatedCam@@SAXH@Z 0041c1d0 f   animatedcam.obj
 0001:0001b1e0       ?Update@AnimatedCam@@UAEXI@Z 0041c1e0 f   animatedcam.obj
 0001:0001b460       ?find@?$@VtCamera@@@p3d@@YAPAVtCamera@@_K@Z 0041c460 f i animatedcam.obj
 0001:0001b4e0       ?find@?$@VtMultiController@@@p3d@@YAPAVtMultiController@@_K@Z 0041c4e0 f i animatedcam.obj
 0001:0001b560       ?find@?$@VtCamera@@@p3d@@YAPAVtCamera@@PAVtEntityStore@@ABVtName@@@Z 0041c560 f i animatedcam.obj
 0001:0001b5f0       ?find@?$@VtMultiController@@@p3d@@YAPAVtMultiController@@PAVtEntityStore@@ABVtName@@@Z 0041c5f0 f i animatedcam.obj
 0001:0001b680       ?safe_cast@?$SafeCast@VtCamera@@@radLoadInventory@@UAEPAUIRefCount@@PAU3@@Z 0041c680 f i animatedcam.obj
 0001:0001b6a0       ?safe_cast@?$SafeCast@VtMultiController@@@radLoadInventory@@UAEPAUIRefCount@@PAU3@@Z 0041c6a0 f i animatedcam.obj
 0001:0001b6c0       ??_EBumperCamData@@UAEPAXI@Z 0041c6c0 f i bumpercam.obj
 0001:0001b6c0       ??_GBumperCamData@@UAEPAXI@Z 0041c6c0 f i bumpercam.obj
 0001:0001b6e0       ?GetName@BumperCam@@UBEQBDXZ 0041c6e0 f i bumpercam.obj
 0001:0001b6f0       ?SetTarget@BumperCam@@UAEXPAVISuperCamTarget@@@Z 0041c6f0 f i bumpercam.obj
 0001:0001b700       ?GetNumTargets@BumperCam@@UBEIXZ 0041c700 f i bumpercam.obj
 0001:0001b710       ??0BumperCam@@QAE@XZ       0041c710 f   bumpercam.obj
 0001:0001b7b0       ??_GBumperCam@@UAEPAXI@Z   0041c7b0 f i bumpercam.obj
 0001:0001b7b0       ??_EBumperCam@@UAEPAXI@Z   0041c7b0 f i bumpercam.obj
 0001:0001b7d0       ??1BumperCam@@UAE@XZ       0041c7d0 f   bumpercam.obj
 0001:0001b7f0       ?Update@BumperCam@@UAEXI@Z 0041c7f0 f   bumpercam.obj
 0001:0001bb10       ?UpdateForPhysics@BumperCam@@UAEXI@Z 0041cb10 f   bumpercam.obj
 0001:0001bbb0       ?SetCollisionOffset@BumperCam@@UAEXPBVVector@RadicalMathLibrary@@IABV23@@Z 0041cbb0 f   bumpercam.obj
 0001:0001bbc0       ?GetName@BurnoutCam@@UBEQBDXZ 0041cbc0 f i burnoutcam.obj
 0001:0001bbd0       ?GetType@BurnoutCam@@UAE?AW4Type@SuperCam@@XZ 0041cbd0 f i burnoutcam.obj
 0001:0001bbe0       ?SetTarget@KullCam@@UAEXPAVISuperCamTarget@@@Z 0041cbe0 f i kullcam.obj
 0001:0001bbe0       ?SetIdleEnginePitch@carSoundParameters@@UAEXM@Z 0041cbe0 f i carsoundparameters.obj
 0001:0001bbe0       ?SetTarget@BurnoutCam@@UAEXPAVISuperCamTarget@@@Z 0041cbe0 f i burnoutcam.obj
 0001:0001bbf0       ?GetNumTargets@KullCam@@UBEIXZ 0041cbf0 f i kullcam.obj
 0001:0001bbf0       ?GetNumTargets@BurnoutCam@@UBEIXZ 0041cbf0 f i burnoutcam.obj
 0001:0001bc00       ??0BurnoutCam@@QAE@XZ      0041cc00 f   burnoutcam.obj
 0001:0001bc50       ??_GBurnoutCam@@UAEPAXI@Z  0041cc50 f i burnoutcam.obj
 0001:0001bc50       ??_EBurnoutCam@@UAEPAXI@Z  0041cc50 f i burnoutcam.obj
 0001:0001bc70       ??1BurnoutCam@@UAE@XZ      0041cc70 f   burnoutcam.obj
 0001:0001bc80       ?Update@BurnoutCam@@UAEXI@Z 0041cc80 f   burnoutcam.obj
 0001:0001bfb0       ?MotionCubic@SuperCam@@IBEXPAM0MM@Z 0041cfb0 f i chasecam.obj
 0001:0001c010       ??_EChaseCamData@@UAEPAXI@Z 0041d010 f i chasecam.obj
 0001:0001c010       ??_GChaseCamData@@UAEPAXI@Z 0041d010 f i chasecam.obj
 0001:0001c030       ?GetName@ChaseCam@@UBEQBDXZ 0041d030 f i chasecam.obj
 0001:0001c040       ?SetTarget@RailCam@@UAEXPAVISuperCamTarget@@@Z 0041d040 f i railcam.obj
 0001:0001c040       ?SetTarget@StaticCam@@UAEXPAVISuperCamTarget@@@Z 0041d040 f i staticcam.obj
 0001:0001c040       ?SetTarget@ChaseCam@@UAEXPAVISuperCamTarget@@@Z 0041d040 f i chasecam.obj
 0001:0001c040       ?SetTarget@ReverseCam@@UAEXPAVISuperCamTarget@@@Z 0041d040 f i reversecam.obj
 0001:0001c040       ?SetTarget@TrackerCam@@UAEXPAVISuperCamTarget@@@Z 0041d040 f i trackercam.obj
 0001:0001c050       ?GetNumTargets@ReverseCam@@UBEIXZ 0041d050 f i reversecam.obj
 0001:0001c050       ?GetNumTargets@TrackerCam@@UBEIXZ 0041d050 f i trackercam.obj
 0001:0001c050       ?GetNumTargets@RailCam@@UBEIXZ 0041d050 f i railcam.obj
 0001:0001c050       ?GetNumTargets@StaticCam@@UBEIXZ 0041d050 f i staticcam.obj
 0001:0001c050       ?GetNumTargets@ChaseCam@@UBEIXZ 0041d050 f i chasecam.obj
 0001:0001c050       ?GetNumTargets@WalkerCam@@UBEIXZ 0041d050 f i walkercam.obj
 0001:0001c060       ??0ChaseCam@@QAE@XZ        0041d060 f   chasecam.obj
 0001:0001c130       ??_EChaseCam@@UAEPAXI@Z    0041d130 f i chasecam.obj
 0001:0001c130       ??_GChaseCam@@UAEPAXI@Z    0041d130 f i chasecam.obj
 0001:0001c150       ??1ChaseCam@@UAE@XZ        0041d150 f   chasecam.obj
 0001:0001c170       ?Update@ChaseCam@@UAEXI@Z  0041d170 f   chasecam.obj
 0001:0001c470       ?DoCameraCut@ChaseCam@@EAEXXZ 0041d470 f   chasecam.obj
 0001:0001c550       ??1ConversationCamData@@UAE@XZ 0041d550 f i conversationcam.obj
 0001:0001c560       ??_GConversationCamData@@UAEPAXI@Z 0041d560 f i conversationcam.obj
 0001:0001c560       ??_EConversationCamData@@UAEPAXI@Z 0041d560 f i conversationcam.obj
 0001:0001c580       ?GetName@ConversationCam@@UBEQBDXZ 0041d580 f i conversationcam.obj
 0001:0001c590       ?GetType@ConversationCam@@UAE?AW4Type@SuperCam@@XZ 0041d590 f i conversationcam.obj
 0001:0001c5a0       ??0ConversationCam@@QAE@XZ 0041d5a0 f   conversationcam.obj
 0001:0001c690       ??_GConversationCam@@UAEPAXI@Z 0041d690 f i conversationcam.obj
 0001:0001c690       ??_EConversationCam@@UAEPAXI@Z 0041d690 f i conversationcam.obj
 0001:0001c6b0       ??1ConversationCam@@UAE@XZ 0041d6b0 f   conversationcam.obj
 0001:0001c730       ?Update@ConversationCam@@UAEXI@Z 0041d730 f   conversationcam.obj
 0001:0001d180       ?LockCharacterPositions@ConversationCam@@QAEXXZ 0041e180 f   conversationcam.obj
 0001:0001d1b0       ?SetTarget@ConversationCam@@UAEXPAVISuperCamTarget@@@Z 0041e1b0 f   conversationcam.obj
 0001:0001d1b0       ?SetBurnoutMaxPitch@carSoundParameters@@UAEXM@Z 0041e1b0 f   carsoundparameters.obj
 0001:0001d1c0       ?AddTarget@ConversationCam@@UAEXPAVISuperCamTarget@@@Z 0041e1c0 f   conversationcam.obj
 0001:0001d1d0       ?GetNumTargets@ConversationCam@@UBEIXZ 0041e1d0 f   conversationcam.obj
 0001:0001d3d0       ?SetCameraByIndex@ConversationCam@@CAXI@Z 0041e3d0 f   conversationcam.obj
 0001:0001d4c0       ?SetCameraByName@ConversationCam@@SAXABVtName@@@Z 0041e4c0 f   conversationcam.obj
 0001:0001d4d0       ?SetCameraDistanceByName@ConversationCam@@SAXABVtName@@M@Z 0041e4d0 f   conversationcam.obj
 0001:0001d4f0       ?SetCamBestSide@ConversationCam@@SAXABVtName@@@Z 0041e4f0 f   conversationcam.obj
 0001:0001d520       ?SetCameraDistanceByIndex@ConversationCam@@CAXIM@Z 0041e520 f   conversationcam.obj
 0001:0001d530       ?SetCharacter@ConversationCam@@QAEXHPAVCharacter@@@Z 0041e530 f   conversationcam.obj
 0001:0001d540       ?SetPcCameraByName@ConversationCam@@SAXABVtName@@@Z 0041e540 f   conversationcam.obj
 0001:0001d550       ?SetNpcCameraByName@ConversationCam@@SAXABVtName@@@Z 0041e550 f   conversationcam.obj
 0001:0001d560       ?SetNpcIsChild@ConversationCam@@SAX_N@Z 0041e560 f   conversationcam.obj
 0001:0001d570       ?SetPcIsChild@ConversationCam@@SAX_N@Z 0041e570 f   conversationcam.obj
 0001:0001d580       ?UsePcCam@ConversationCam@@SAXXZ 0041e580 f   conversationcam.obj
 0001:0001d590       ?UseNpcCam@ConversationCam@@SAXXZ 0041e590 f   conversationcam.obj
 0001:0001d5a0       ?OnInit@ConversationCam@@UAEXXZ 0041e5a0 f   conversationcam.obj
 0001:0001d5b0       ?OnShutdown@ConversationCam@@UAEXXZ 0041e5b0 f   conversationcam.obj
 0001:0001d620       ?find@?$@VLocator@@@p3d@@YAPAVLocator@@_K@Z 0041e620 f i conversationcam.obj
 0001:0001d690       ?GetName@DebugCam@@UBEQBDXZ 0041e690 f i debugcam.obj
 0001:0001d6a0       ??0DebugCam@@QAE@XZ        0041e6a0 f   debugcam.obj
 0001:0001d6d0       ??_EDebugCam@@UAEPAXI@Z    0041e6d0 f i debugcam.obj
 0001:0001d6d0       ??_GDebugCam@@UAEPAXI@Z    0041e6d0 f i debugcam.obj
 0001:0001d6f0       ??1DebugCam@@UAE@XZ        0041e6f0 f   debugcam.obj
 0001:0001d700       ?Update@DebugCam@@UAEXI@Z  0041e700 f   debugcam.obj
 0001:0001d950       ?FilterFov@SuperCam@@IAEXMMMAAM0MMM@Z 0041e950 f i firstpersoncam.obj
 0001:0001d9e0       ?GetType@FirstPersonCam@@UAE?AW4Type@SuperCam@@XZ 0041e9e0 f i firstpersoncam.obj
 0001:0001d9f0       ?GetMaxModels@ChaseManager@@UBEHXZ 0041e9f0 f i chasemanager.obj
 0001:0001d9f0       ?GetType@RectTriggerVolume@@UBE?AW4Type@TriggerVolume@@XZ 0041e9f0 f i recttriggervolume.obj
 0001:0001d9f0       ?GetType@BonusCard@@UBE?AW4eCardType@@XZ 0041e9f0 f i bonuscard.obj
 0001:0001d9f0       ?GetState@radSoundMemoryDataSource@@UAE?AW4State@IRadSoundHalDataSource@@XZ 0041e9f0 f i radsoundwr:memorydatasource.obj
 0001:0001d9f0       ?GetDataType@ScriptLocator@@UBE?AW4Type@LocatorType@@XZ 0041e9f0 f i scriptlocator.obj
 0001:0001d9f0       ?GetNumTargets@FirstPersonCam@@UBEIXZ 0041e9f0 f i firstpersoncam.obj
 0001:0001d9f0       ?GetNumDialogLines@DialogLine@@UBEIXZ 0041e9f0 f i dialogline.obj
 0001:0001d9f0       ?Origin@tEventOriginSequencer@@UAEIXZ 0041e9f0 f i pure3dwr:sequencer.obj
 0001:0001d9f0       ?GetStateID@Loco@CharacterAi@@UBE?AW4CharacterState@2@XZ 0041e9f0 f i state.obj
 0001:0001d9f0       ?GetAIRef@Vehicle@@UAEHXZ  0041e9f0 f i vehicleinit.obj
 0001:0001d9f0       ?GetOutputMode@radSoundHalSystem@@UAE?AW4radSoundOutputMode@@XZ 0041e9f0 f i radsoundwr:system.obj
 0001:0001da00       ?GetName@FirstPersonCam@@UBEQBDXZ 0041ea00 f i firstpersoncam.obj
 0001:0001da10       ??0FirstPersonCam@@QAE@XZ  0041ea10 f   firstpersoncam.obj
 0001:0001da70       ??_GFirstPersonCam@@UAEPAXI@Z 0041ea70 f i firstpersoncam.obj
 0001:0001da70       ??_EFirstPersonCam@@UAEPAXI@Z 0041ea70 f i firstpersoncam.obj
 0001:0001da90       ??1FirstPersonCam@@UAE@XZ  0041ea90 f   firstpersoncam.obj
 0001:0001daa0       ?OnShutdown@FirstPersonCam@@MAEXXZ 0041eaa0 f   firstpersoncam.obj
 0001:0001dac0       ?Update@FirstPersonCam@@UAEXI@Z 0041eac0 f   firstpersoncam.obj
 0001:0001dde0       ?SetTarget@FirstPersonCam@@UAEXPAVISuperCamTarget@@@Z 0041ede0 f   firstpersoncam.obj
 0001:0001de00       ??_EFollowCamData@@UAEPAXI@Z 0041ee00 f i followcam.obj
 0001:0001de00       ??_GFollowCamData@@UAEPAXI@Z 0041ee00 f i followcam.obj
 0001:0001de20       ??0FollowCamData@@QAE@XZ   0041ee20 f i followcam.obj
 0001:0001dea0       ?GetCollisionRadius@FollowCam@@UBEMXZ 0041eea0 f i followcam.obj
 0001:0001deb0       ?GetName@FollowCam@@UBEQBDXZ 0041eeb0 f i followcam.obj
 0001:0001ded0       ?GetNumTargets@WrecklessCam@@UBEIXZ 0041eed0 f i wrecklesscam.obj
 0001:0001ded0       ?GetNumTargets@FollowCam@@UBEIXZ 0041eed0 f i followcam.obj
 0001:0001dee0       ?GetType@FollowCam@@UAE?AW4Type@SuperCam@@XZ 0041eee0 f i followcam.obj
 0001:0001def0       ?SetCollisionOffset@FollowCam@@UAEXPBVVector@RadicalMathLibrary@@IABV23@@Z 0041eef0 f i followcam.obj
 0001:0001df30       ?OnInit@FollowCam@@MAEXXZ  0041ef30 f i followcam.obj
 0001:0001df50       ??0FollowCam@@QAE@W4FollowType@0@@Z 0041ef50 f   followcam.obj
 0001:0001e040       ??_GFollowCam@@UAEPAXI@Z   0041f040 f i followcam.obj
 0001:0001e040       ??_EFollowCam@@UAEPAXI@Z   0041f040 f i followcam.obj
 0001:0001e060       ??1FollowCam@@UAE@XZ       0041f060 f   followcam.obj
 0001:0001e080       ?Update@FollowCam@@UAEXI@Z 0041f080 f   followcam.obj
 0001:0001e2f0       ?UpdateForPhysics@FollowCam@@UAEXI@Z 0041f2f0 f   followcam.obj
 0001:0001e630       ?CopyToData@FollowCam@@QAEXXZ 0041f630 f   followcam.obj
 0001:0001e640       ?SetTarget@FollowCam@@UAEXPAVISuperCamTarget@@@Z 0041f640 f   followcam.obj
 0001:0001e820       ?ShouldReverse@FollowCam@@QBE_NXZ 0041f820 f   followcam.obj
 0001:0001e8b0       ?DoCameraCut@FollowCam@@EAEXXZ 0041f8b0 f   followcam.obj
 0001:0001e9c0       ?InitUnstable@FollowCam@@AAEXXZ 0041f9c0 f   followcam.obj
 0001:0001ea60       ?UpdateUnstable@FollowCam@@AAEXI@Z 0041fa60 f   followcam.obj
 0001:0001eae0       ?InitQuickTurn@FollowCam@@AAEXXZ 0041fae0 f   followcam.obj
 0001:0001eaf0       ?UpdateQuickTurn@FollowCam@@AAEXI@Z 0041faf0 f   followcam.obj
 0001:0001eb20       ?GetTargetPosition@FollowCam@@AAEXPAVVector@RadicalMathLibrary@@_N@Z 0041fb20 f   followcam.obj
 0001:0001ec20       ?CalculateRod@FollowCam@@AAEXPAVVector@RadicalMathLibrary@@IM@Z 0041fc20 f   followcam.obj
 0001:0001f010       ?CalculateTarget@FollowCam@@AAEXPAVVector@RadicalMathLibrary@@IM@Z 00420010 f   followcam.obj
 0001:0001f140       ?GetDesiredRod@FollowCam@@AAE_NPAVVector@RadicalMathLibrary@@@Z 00420140 f   followcam.obj
 0001:0001f1a0       ??1?$Iterator@VFollowCamDataChunk@@@tInventory@@QAE@XZ 004201a0 f i followcam.obj
 0001:0001f1a0       ??1?$Iterator@VLocator@@@tInventory@@QAE@XZ 004201a0 f i missionmanager.obj
 0001:0001f1a0       ??1?$Iterator@VtEntity@@@tInventory@@QAE@XZ 004201a0 f i guiscreenmissionbase.obj
 0001:0001f1a0       ??1?$Iterator@VEventLocator@@@tInventory@@QAE@XZ 004201a0 f i wrecklesscam.obj
 0001:0001f1a0       ??1?$Iterator@VWalkerCamDataChunk@@@tInventory@@QAE@XZ 004201a0 f i walkercam.obj
 0001:0001f1d0       ?Next@?$Iterator@VFollowCamDataChunk@@@tInventory@@QAEPAVFollowCamDataChunk@@XZ 004201d0 f i followcam.obj
 0001:0001f210       ??1RawIterator@?$HashTable@UIRefCount@@@@QAE@XZ 00420210 f i followcam.obj
 0001:0001f210       ??1RawIterator@?$HashTable@VradLoadFileLoader@@@@QAE@XZ 00420210 f i radcontentwr:manager.obj
 0001:0001f210       ??1RawIterator@radLoadHashedStore@@QAE@XZ 00420210 f i followcam.obj
 0001:0001f210       ??1Iterator@?$HashTable@UIRefCount@@@@QAE@XZ 00420210 f i radcontentwr:inventory.obj
 0001:0001f210       ??1Iterator@?$HashTable@VradLoadDataLoader@@@@QAE@XZ 00420210 f i radcontentwr:manager.obj
 0001:0001f210       ??1RawIterator@?$HashTable@VradLoadDataLoader@@@@QAE@XZ 00420210 f i radcontentwr:manager.obj
 0001:0001f210       ??1Iterator@?$HashTable@VradLoadFileLoader@@@@QAE@XZ 00420210 f i radcontentwr:manager.obj
 0001:0001f210       ??1Iterator@radLoadHashedStore@@QAE@XZ 00420210 f i pure3dwr:inventory.obj
 0001:0001f220       ?GetName@KullCam@@UBEQBDXZ 00420220 f i kullcam.obj
 0001:0001f230       ??0KullCam@@QAE@XZ         00420230 f   kullcam.obj
 0001:0001f270       ??_EKullCam@@UAEPAXI@Z     00420270 f i kullcam.obj
 0001:0001f270       ??_GKullCam@@UAEPAXI@Z     00420270 f i kullcam.obj
 0001:0001f290       ??1KullCam@@UAE@XZ         00420290 f   kullcam.obj
 0001:0001f2a0       ?Update@KullCam@@UAEXI@Z   004202a0 f   kullcam.obj
 0001:0001f4c0       ?GetName@RailCam@@UBEQBDXZ 004204c0 f i railcam.obj
 0001:0001f4d0       ??0RailCam@@QAE@XZ         004204d0 f   railcam.obj
 0001:0001f660       ??_ERailCam@@UAEPAXI@Z     00420660 f i railcam.obj
 0001:0001f660       ??_GRailCam@@UAEPAXI@Z     00420660 f i railcam.obj
 0001:0001f680       ??1RailCam@@UAE@XZ         00420680 f   railcam.obj
 0001:0001f6f0       ?OnInit@RailCam@@MAEXXZ    004206f0 f   railcam.obj
 0001:0001f740       ?OnShutdown@RailCam@@MAEXXZ 00420740 f   railcam.obj
 0001:0001f750       ?Update@RailCam@@UAEXI@Z   00420750 f   railcam.obj
 0001:0001fb00       ?GetTargetSpeedModifier@RailCam@@MAEMXZ 00420b00 f   railcam.obj
 0001:0001fb00       ?GetTargetSpeedModifier@StaticCam@@MAEMXZ 00420b00 f   staticcam.obj
 0001:0001fbb0       ?GetTargetPosition@RailCam@@AAEXPAVVector@RadicalMathLibrary@@_N@Z 00420bb0 f   railcam.obj
 0001:0001fbd0       ?IntervalClamp@RailCam@@ABE?AW4SolutionType@1@AAM@Z 00420bd0 f   railcam.obj
 0001:0001fc20       ?ProjectPointOnLine@RailCam@@ABEAAMABVVector@RadicalMathLibrary@@00AAM@Z 00420c20 f   railcam.obj
 0001:0001fcb0       ?IntersectLineCylinder@RailCam@@AAE?AW4SolutionType@1@HABVVector@RadicalMathLibrary@@M0AAM@Z 00420cb0 f   railcam.obj
 0001:00020060       ?FindCameraPosition_Distance@RailCam@@AAE?AVVector@RadicalMathLibrary@@ABV23@M@Z 00421060 f   railcam.obj
 0001:00020330       ?FindCameraPosition_Projection@RailCam@@AAE?AVVector@RadicalMathLibrary@@ABV23@M@Z 00421330 f   railcam.obj
 0001:00020710       ?FinalizeRailPosition@RailCam@@AAE?AVVector@RadicalMathLibrary@@W4SolutionType@1@@Z 00421710 f   railcam.obj
 0001:00020860       ?FindCameraLookAt@RailCam@@AAE?AVVector@RadicalMathLibrary@@ABV23@0@Z 00421860 f   railcam.obj
 0001:00020a20       ?TestEval@RailCam@@AAE?AVVector@RadicalMathLibrary@@M@Z 00421a20 f   railcam.obj
 0001:00020d00       ?Interpolate@Vector@RadicalMathLibrary@@QAEXABV12@0M@Z 00421d00 f i railcam.obj
 0001:00020d40       ??0RelativeAnimatedCam@@QAE@XZ 00421d40 f   relativeanimatedcam.obj
 0001:00020d90       ??_GRelativeAnimatedCam@@UAEPAXI@Z 00421d90 f i relativeanimatedcam.obj
 0001:00020d90       ??_ERelativeAnimatedCam@@UAEPAXI@Z 00421d90 f i relativeanimatedcam.obj
 0001:00020db0       ??1RelativeAnimatedCam@@UAE@XZ 00421db0 f i relativeanimatedcam.obj
 0001:00020dc0       ?GetName@RelativeAnimatedCam@@UBEQBDXZ 00421dc0 f   relativeanimatedcam.obj
 0001:00020dd0       ?GetType@RelativeAnimatedCam@@UAE?AW4Type@SuperCam@@XZ 00421dd0 f   relativeanimatedcam.obj
 0001:00020de0       ?SetCameraAnimationController@RelativeAnimatedCam@@QAEXPAVtCameraAnimationController@@@Z 00421de0 f   relativeanimatedcam.obj
 0001:00020e00       ?SetOffsetMatrix@RelativeAnimatedCam@@QAEXABVMatrix@RadicalMathLibrary@@@Z 00421e00 f   relativeanimatedcam.obj
 0001:00020e30       ?Update@RelativeAnimatedCam@@UAEXI@Z 00421e30 f   relativeanimatedcam.obj
 0001:00020e40       ?GetCollisionRadius@ReverseCam@@UBEMXZ 00421e40 f i reversecam.obj
 0001:00020e50       ?GetName@ReverseCam@@UBEQBDXZ 00421e50 f i reversecam.obj
 0001:00020e60       ?GetType@ReverseCam@@UAE?AW4Type@SuperCam@@XZ 00421e60 f i reversecam.obj
 0001:00020e70       ?SetCollisionOffset@ReverseCam@@UAEXPBVVector@RadicalMathLibrary@@IABV23@@Z 00421e70 f i reversecam.obj
 0001:00020eb0       ??0ReverseCam@@QAE@XZ      00421eb0 f   reversecam.obj
 0001:00020f10       ??_EReverseCam@@UAEPAXI@Z  00421f10 f i reversecam.obj
 0001:00020f10       ??_GReverseCam@@UAEPAXI@Z  00421f10 f i reversecam.obj
 0001:00020f30       ??1ReverseCam@@UAE@XZ      00421f30 f   reversecam.obj
 0001:00020f40       ?Update@ReverseCam@@UAEXI@Z 00421f40 f   reversecam.obj
 0001:000214a0       ?UpdateForPhysics@ReverseCam@@UAEXI@Z 004224a0 f   reversecam.obj
 0001:00021620       ?EnableShake@ReverseCam@@UAEXXZ 00422620 f   reversecam.obj
 0001:00021620       ?EnableShake@DebugCam@@UAEXXZ 00422620 f   debugcam.obj
 0001:00021620       ?EnableShake@FollowCam@@UAEXXZ 00422620 f   followcam.obj
 0001:00021650       ?CanSwitch@ReverseCam@@MAE_NXZ 00422650 f   reversecam.obj
 0001:000216d0       ??_EICameraShaker@@UAEPAXI@Z 004226d0 f i sinecosshaker.obj
 0001:000216d0       ??_GICameraShaker@@UAEPAXI@Z 004226d0 f i sinecosshaker.obj
 0001:000216f0       ?Reset@SineCosShaker@@UAEXXZ 004226f0 f i sinecosshaker.obj
 0001:00021700       ?SetTime@SineCosShaker@@UAEXI@Z 00422700 f i sinecosshaker.obj
 0001:00021700       ?SetHitnRunValue@HitnRunManager@@QAEXM@Z 00422700 f i hitnrunmanager.obj
 0001:00021710       ?SetCameraRelative@SineCosShaker@@UAEX_N@Z 00422710 f i sinecosshaker.obj
 0001:00021710       ?SetLoadString@radTypeInfoSystem@@UAEX_N@Z 00422710 f i radscriptwr:TypeInfoSystem.obj
 0001:00021720       ?SetDirection@SineCosShaker@@UAEXABVVector@RadicalMathLibrary@@@Z 00422720 f i sinecosshaker.obj
 0001:00021740       ?SetLooping@SineCosShaker@@UAEX_N@Z 00422740 f i sinecosshaker.obj
 0001:00021750       ?DoneShaking@SineCosShaker@@UAE_NXZ 00422750 f i sinecosshaker.obj
 0001:00021760       ?GetName@SineCosShaker@@UAEQBDXZ 00422760 f i sinecosshaker.obj
 0001:00021770       ??0SineCosShaker@@QAE@XZ   00422770 f   sinecosshaker.obj
 0001:000217c0       ??_GSineCosShaker@@UAEPAXI@Z 004227c0 f i sinecosshaker.obj
 0001:000217c0       ??_ESineCosShaker@@UAEPAXI@Z 004227c0 f i sinecosshaker.obj
 0001:000217e0       ??1SineCosShaker@@UAE@XZ   004227e0 f   sinecosshaker.obj
 0001:000217f0       ?SetCamera@SineCosShaker@@UAEXPAVtPointCamera@@@Z 004227f0 f   sinecosshaker.obj
 0001:00021820       ?ShakeCamera@SineCosShaker@@UAEXPAVVector@RadicalMathLibrary@@0I@Z 00422820 f   sinecosshaker.obj
 0001:00021920       ?SetShakeData@SineCosShaker@@UAEXPBUShakeEventData@@@Z 00422920 f   sinecosshaker.obj
 0001:00021950       ?safe_cast@?$SafeCast@VtVectorCamera@@@radLoadInventory@@UAEPAUIRefCount@@PAU3@@Z 00422950 f i snapshotcam.obj
 0001:00021970       ?DoWrecklessZoom@SuperCam@@IAEXMMMMMAAM0MM@Z 00422970 f i staticcam.obj
 0001:00021a20       ?OnInit@ReverseCam@@MAEXXZ 00422a20 f i reversecam.obj
 0001:00021a20       ?OnInit@FirstPersonCam@@MAEXXZ 00422a20 f i firstpersoncam.obj
 0001:00021a20       ?OnInit@StaticCam@@MAEXXZ  00422a20 f i staticcam.obj
 0001:00021a20       ?OnInit@WalkerCam@@MAEXXZ  00422a20 f i walkercam.obj
 0001:00021a30       ?GetName@StaticCam@@UBEQBDXZ 00422a30 f i staticcam.obj
 0001:00021a40       ??0StaticCam@@QAE@XZ       00422a40 f   staticcam.obj
 0001:00021ac0       ??_GStaticCam@@UAEPAXI@Z   00422ac0 f i staticcam.obj
 0001:00021ac0       ??_EStaticCam@@UAEPAXI@Z   00422ac0 f i staticcam.obj
 0001:00021ae0       ??1StaticCam@@UAE@XZ       00422ae0 f   staticcam.obj
 0001:00021af0       ?Update@StaticCam@@UAEXI@Z 00422af0 f   staticcam.obj
 0001:00021ef0       ??0SuperCam@@QAE@XZ        00422ef0 f   supercam.obj
 0001:00022060       ??_ESuperCam@@UAEPAXI@Z    00423060 f i supercam.obj
 0001:00022060       ??_GSuperCam@@UAEPAXI@Z    00423060 f i supercam.obj
 0001:00022080       ??1SuperCam@@UAE@XZ        00423080 f   supercam.obj
 0001:00022120       ?UnregisterDebugControls@SuperCam@@QAEXXZ 00423120 f   supercam.obj
 0001:00022130       ?GetPosition@SuperCam@@QBEXPAVVector@RadicalMathLibrary@@@Z 00423130 f   supercam.obj
 0001:00022190       ?GetTarget@SuperCam@@QBEXPAVVector@RadicalMathLibrary@@@Z 00423190 f   supercam.obj
 0001:000221f0       ?GetHeading@SuperCam@@QBEXPAVVector@RadicalMathLibrary@@@Z 004231f0 f   supercam.obj
 0001:000222b0       ?GetHeadingNormalized@SuperCam@@QAEXPAVVector@RadicalMathLibrary@@@Z 004232b0 f   supercam.obj
 0001:00022300       ?GetCameraUp@SuperCam@@QBEXPAVVector@RadicalMathLibrary@@@Z 00423300 f   supercam.obj
 0001:00022330       ?SetFOV@SuperCam@@QAEXM@Z  00423330 f   supercam.obj
 0001:00022380       ?GetFOV@SuperCam@@QBEMXZ   00423380 f   supercam.obj
 0001:000223a0       ?Display@SuperCam@@QBEXXZ  004233a0 f   supercam.obj
 0001:000223b0       ?SetCameraValues@SuperCam@@IAEXIVVector@RadicalMathLibrary@@0PBV23@@Z 004233b0 f   supercam.obj
 0001:000227b0       ?OverrideFOV@SuperCam@@IAEX_NMM@Z 004237b0 f   supercam.obj
 0001:00022870       ?DisableOverride@SuperCam@@IAEXXZ 00423870 f   supercam.obj
 0001:000228c0       ?SetFOVOverride@SuperCam@@IAEXM@Z 004238c0 f   supercam.obj
 0001:00022900       ?SetCamera@SuperCam@@IAEXPAVtPointCamera@@@Z 00423900 f   supercam.obj
 0001:00022920       ?ClampAngle@SuperCam@@IBEHPAM@Z 00423920 f   supercam.obj
 0001:00022990       ?AdjustAngles@SuperCam@@IBEXPAM00@Z 00423990 f   supercam.obj
 0001:00022a00       ?Shutdown@SuperCam@@IAEXXZ 00423a00 f   supercam.obj
 0001:00022a20       ?CorrectDist@SuperCam@@IAEXABVVector@RadicalMathLibrary@@AAV23@@Z 00423a20 f   supercam.obj
 0001:00022aa0       ?InitMyController@SuperCam@@IAEXH@Z 00423aa0 f   supercam.obj
 0001:00022b60       ?ShutDownMyController@SuperCam@@IAEXXZ 00423b60 f   supercam.obj
 0001:00022bb0       ?GetBreakable@CollisionAttributes@@QAE?AW4BreakableID@BreakablesEnum@@XZ 00423bb0 f   collisionentitydsg.obj
 0001:00022bb0       ?GetCameraNonConst@SuperCam@@IAEPAVtPointCamera@@XZ 00423bb0 f   supercam.obj
 0001:00022bc0       ?SphericalMotion@SuperCam@@IBEXABVVector@RadicalMathLibrary@@AAV23@01M@Z 00423bc0 f   supercam.obj
 0001:00022d00       ?UpdateVUP@SuperCam@@IAE?AVVector@RadicalMathLibrary@@V23@0@Z 00423d00 f   supercam.obj
 0001:00022de0       ?EaseMotion@SuperCam@@IAEMMMM@Z 00423de0 f   supercam.obj
 0001:00022ea0       ?DoCameraTransition@SuperCam@@UAEX_NI@Z 00423ea0 f   supercam.obj
 0001:00022f00       ?SetupShake@SuperCam@@AAEXXZ 00423f00 f   supercam.obj
 0001:00022f80       ?EndShake@SuperCam@@AAEXXZ 00423f80 f   supercam.obj
 0001:00022fe0       ?SetupTransition@SuperCam@@AAEX_N@Z 00423fe0 f   supercam.obj
 0001:000230c0       ?EndTransition@SuperCam@@AAEX_N@Z 004240c0 f   supercam.obj
 0001:00023160       ?TransitionCamera@SuperCam@@AAEXMPAVVector@RadicalMathLibrary@@0PAMI_N@Z 00424160 f   supercam.obj
 0001:00023390       ?TransitionFOV@SuperCam@@AAEXMPAMI@Z 00424390 f   supercam.obj
 0001:00023420       ?EaseIn@SuperCam@@AAEXMPAVVector@RadicalMathLibrary@@0I@Z 00424420 f   supercam.obj
 0001:00023490       ?SetCameraShakerData@SuperCam@@IAEXPBUShakeEventData@@@Z 00424490 f   supercam.obj
 0001:000234b0       ??1tDrawable@@MAE@XZ       004244b0 f i actionbuttonhandler.obj
 0001:000234b0       ??1PlayerDrawable@@UAE@XZ  004244b0 f i playerdrawable.obj
 0001:000234b0       ??1PresentationOverlay@@UAE@XZ 004244b0 f i presentation.obj
 0001:000234b0       ??1FrustrumDrawable@@UAE@XZ 004244b0 f i supercamcentral.obj
 0001:000234b0       ??1tEffect@@UAE@XZ         004244b0 f i pure3dwr:particlesystem.obj
 0001:000234b0       ??1tOpticEffect@@MAE@XZ    004244b0 f i pure3dwr:optic.obj
 0001:000234c0       ?Display@FrustrumDrawable@@UAEXXZ 004244c0 f i supercamcentral.obj
 0001:000235c0       ?SetPoints@FrustrumDrawable@@QAEXVVector@RadicalMathLibrary@@00000@Z 004245c0 f i supercamcentral.obj
 0001:00023650       ??0SuperCamCentral@@QAE@XZ 00424650 f   supercamcentral.obj
 0001:00023920       ??_ESuperCamCentral@@UAEPAXI@Z 00424920 f i supercamcentral.obj
 0001:00023920       ??_GSuperCamCentral@@UAEPAXI@Z 00424920 f i supercamcentral.obj
 0001:00023940       ??1SuperCamCentral@@UAE@XZ 00424940 f   supercamcentral.obj
 0001:000239e0       ?Init@SuperCamCentral@@QAEX_N@Z 004249e0 f   supercamcentral.obj
 0001:00023ea0       ?IsInit@SuperCamCentral@@QBE_NXZ 00424ea0 f   supercamcentral.obj
 0001:00023eb0       ?UpdateCameraCollisionSpherePosition@SuperCamCentral@@AAEXAAVVector@RadicalMathLibrary@@@Z 00424eb0 f   supercamcentral.obj
 0001:00023ef0       ?UpdateCameraCollisionSphereRadius@SuperCamCentral@@AAEXM@Z 00424ef0 f   supercamcentral.obj
 0001:00023f00       ?Update@SuperCamCentral@@QAEXI@Z 00424f00 f   supercamcentral.obj
 0001:000241f0       ?PreCollisionPrep@SuperCamCentral@@QAEXXZ 004251f0 f   supercamcentral.obj
 0001:000242e0       ?AddCameraCollisionOffset@SuperCamCentral@@QAEXAAVVector@RadicalMathLibrary@@@Z 004252e0 f   supercamcentral.obj
 0001:00024420       ?RegisterSuperCam@SuperCamCentral@@QAEIPAVSuperCam@@@Z 00425420 f   supercamcentral.obj
 0001:00024490       ?UnregisterSuperCam@SuperCamCentral@@QAEXPAVSuperCam@@@Z 00425490 f   supercamcentral.obj
 0001:00024530       ?UnregisterSuperCam@SuperCamCentral@@QAEXI@Z 00425530 f   supercamcentral.obj
 0001:00024540       ?GetActiveSuperCamIndex@SuperCamCentral@@QBEIXZ 00425540 f   supercamcentral.obj
 0001:00024550       ?GetSuperCam@SuperCamCentral@@QBEPAVSuperCam@@W4Type@2@@Z 00425550 f   supercamcentral.obj
 0001:00024590       ?ToggleSuperCam@SuperCamCentral@@QAE_N_N0@Z 00425590 f   supercamcentral.obj
 0001:00024630       ?SelectSuperCam@SuperCamCentral@@QAEXIHI@Z 00425630 f   supercamcentral.obj
 0001:00024780       ?SelectSuperCam@SuperCamCentral@@QAEXW4Type@SuperCam@@HI@Z 00425780 f   supercamcentral.obj
 0001:00024840       ?SelectSuperCam@SuperCamCentral@@QAEXPAVSuperCam@@HI@Z 00425840 f   supercamcentral.obj
 0001:00024870       ?SetCamera@SuperCamCentral@@QAEXPAVtPointCamera@@@Z 00425870 f   supercamcentral.obj
 0001:000248c0       ?SetTarget@SuperCamCentral@@QAEXPAVISuperCamTarget@@@Z 004258c0 f   supercamcentral.obj
 0001:00024920       ?AddTarget@SuperCamCentral@@QAEXPAVISuperCamTarget@@@Z 00425920 f   supercamcentral.obj
 0001:00024950       ?SetActiveSuperCam@SuperCamCentral@@AAEXIHI@Z 00425950 f   supercamcentral.obj
 0001:00024ac0       ?SubmitStatics@SuperCamCentral@@QAEXXZ 00425ac0 f   supercamcentral.obj
 0001:00024b70       ?UpdateForPhysics@SuperCamCentral@@QAEXI@Z 00425b70 f   supercamcentral.obj
 0001:00024bb0       ?AllowCameraToggle@SuperCamCentral@@QAE_NXZ 00425bb0 f   supercamcentral.obj
 0001:00024be0       ?AllowAutoCameraChange@SuperCamCentral@@QAE_NXZ 00425be0 f   supercamcentral.obj
 0001:00024c20       ?RegisterFOVLocator@SuperCamCentral@@QAEXPAVFOVLocator@@@Z 00425c20 f   supercamcentral.obj
 0001:00024c60       ?UnregisterFOVLocator@SuperCamCentral@@QAEXXZ 00425c60 f   supercamcentral.obj
 0001:00024ca0       ?HandleEvent@SuperCamCentral@@UAEXW4EventEnum@@PAX@Z 00425ca0 f   supercamcentral.obj
 0001:00024db0       ?ToggleFirstPerson@SuperCamCentral@@QAEXH@Z 00425db0 f   supercamcentral.obj
 0001:00024e50       ?IsCutCam@SuperCamCentral@@QAE_NXZ 00425e50 f   supercamcentral.obj
 0001:00024e80       ?DrawFrustrum@SuperCamCentral@@AAEXXZ 00425e80 f   supercamcentral.obj
 0001:00025060       ?LoadData@SuperCamCentral@@UAEXPBEI@Z 00426060 f   supercamcentral.obj
 0001:00025090       ?SaveData@SuperCamCentral@@UAEXPAEI@Z 00426090 f   supercamcentral.obj
 0001:000250b0       ?ResetData@SuperCamCentral@@UAEXXZ 004260b0 f   supercamcentral.obj
 0001:000250c0       ?IsLegalType@SuperCamCentral@@QAE_NW4Type@SuperCam@@@Z 004260c0 f   supercamcentral.obj
 0001:00025170       ??0SuperCamController@@QAE@XZ 00426170 f   supercamcontroller.obj
 0001:00025190       ??_GSuperCamController@@UAEPAXI@Z 00426190 f i supercamcontroller.obj
 0001:00025190       ??_ESuperCamController@@UAEPAXI@Z 00426190 f i supercamcontroller.obj
 0001:000251b0       ??1SuperCamController@@UAE@XZ 004261b0 f   supercamcontroller.obj
 0001:000251c0       ?LoadControllerMappings@SuperCamController@@UAEXI@Z 004261c0 f   supercamcontroller.obj
 0001:00025250       ?OnButtonDown@SuperCamController@@UAEXHHPBVButton@@@Z 00426250 f   supercamcontroller.obj
 0001:00025280       ?CreateInstance@SuperCamManager@@SAPAV1@XZ 00426280 f   supercammanager.obj
 0001:000252f0       ?GetInstance@SuperCamManager@@SAPAV1@XZ 004262f0 f   supercammanager.obj
 0001:00025300       ?DestroyInstance@SuperCamManager@@SAXXZ 00426300 f   supercammanager.obj
 0001:00025320       ?Init@SuperCamManager@@QAEX_N@Z 00426320 f   supercammanager.obj
 0001:00025350       ?GetSCC@SuperCamManager@@QAEPAVSuperCamCentral@@H@Z 00426350 f   supercammanager.obj
 0001:00025370       ?PreCollisionPrep@SuperCamManager@@QAEXXZ 00426370 f   supercammanager.obj
 0001:00025380       ?Update@SuperCamManager@@QAEXI@Z 00426380 f   supercammanager.obj
 0001:00025390       ?SubmitStatics@SuperCamManager@@QAEXXZ 00426390 f   supercammanager.obj
 0001:000253a0       ?ToggleFirstPerson@SuperCamManager@@QAEXH@Z 004263a0 f   supercammanager.obj
 0001:000253e0       ??0SuperCamManager@@AAE@XZ 004263e0 f   supercammanager.obj
 0001:00025400       ??1SuperCamManager@@AAE@XZ 00426400 f   supercammanager.obj
 0001:00025420       ?GetName@SuperSprintCam@@UBEQBDXZ 00426420 f i supersprintcam.obj
 0001:00025430       ?GetType@SuperSprintCam@@UAE?AW4Type@SuperCam@@XZ 00426430 f i supersprintcam.obj
 0001:00025440       ??0SuperSprintCam@@QAE@XZ  00426440 f   supersprintcam.obj
 0001:00025490       ??_GSuperSprintCam@@UAEPAXI@Z 00426490 f i supersprintcam.obj
 0001:00025490       ??_ESuperSprintCam@@UAEPAXI@Z 00426490 f i supersprintcam.obj
 0001:000254b0       ??1SuperSprintCam@@UAE@XZ  004264b0 f   supersprintcam.obj
 0001:000254c0       ?Update@SuperSprintCam@@UAEXI@Z 004264c0 f   supersprintcam.obj
 0001:00025640       ?OnRegisterDebugControls@SuperSprintCam@@MAEXXZ 00426640 f   supersprintcam.obj
 0001:00025650       ?OnUnregisterDebugControls@SuperSprintCam@@MAEXXZ 00426650 f   supersprintcam.obj
 0001:00025660       ?find@?$@VtVectorCamera@@@p3d@@YAPAVtVectorCamera@@PAVtEntityStore@@PBD@Z 00426660 f i supersprintcam.obj
 0001:000256d0       ?find@?$@VtVectorCamera@@@p3d@@YAPAVtVectorCamera@@PAVtEntityStore@@ABVtName@@@Z 004266d0 f i supersprintcam.obj
 0001:00025760       ??_GTrackerCamData@@UAEPAXI@Z 00426760 f i trackercam.obj
 0001:00025760       ??_ETrackerCamData@@UAEPAXI@Z 00426760 f i trackercam.obj
 0001:00025780       ?GetName@TrackerCam@@UBEQBDXZ 00426780 f i trackercam.obj
 0001:00025790       ??0TrackerCam@@QAE@XZ      00426790 f   trackercam.obj
 0001:000257e0       ??_GTrackerCam@@UAEPAXI@Z  004267e0 f i trackercam.obj
 0001:000257e0       ??_ETrackerCam@@UAEPAXI@Z  004267e0 f i trackercam.obj
 0001:00025800       ??1TrackerCam@@UAE@XZ      00426800 f   trackercam.obj
 0001:00025820       ?Update@TrackerCam@@UAEXI@Z 00426820 f   trackercam.obj
 0001:00025b40       ??_EWalkerCamData@@UAEPAXI@Z 00426b40 f i walkercam.obj
 0001:00025b40       ??_GWalkerCamData@@UAEPAXI@Z 00426b40 f i walkercam.obj
 0001:00025b60       ??0WalkerCamData@@QAE@XZ   00426b60 f i walkercam.obj
 0001:00025bf0       ?GetCollisionRadius@BumperCam@@UBEMXZ 00426bf0 f i bumpercam.obj
 0001:00025bf0       ?GetCollisionRadius@WalkerCam@@UBEMXZ 00426bf0 f i walkercam.obj
 0001:00025c00       ?GetName@WalkerCam@@UBEQBDXZ 00426c00 f i walkercam.obj
 0001:00025c10       ?SetCollisionOffset@WalkerCam@@UAEXPBVVector@RadicalMathLibrary@@IABV23@@Z 00426c10 f i walkercam.obj
 0001:00025c50       ??0WalkerCam@@QAE@XZ       00426c50 f   walkercam.obj
 0001:00025d20       ??_GWalkerCam@@UAEPAXI@Z   00426d20 f i walkercam.obj
 0001:00025d20       ??_EWalkerCam@@UAEPAXI@Z   00426d20 f i walkercam.obj
 0001:00025d40       ??1WalkerCam@@UAE@XZ       00426d40 f   walkercam.obj
 0001:00025d60       ?Update@WalkerCam@@UAEXI@Z 00426d60 f   walkercam.obj
 0001:00026110       ?UpdateForPhysics@WalkerCam@@UAEXI@Z 00427110 f   walkercam.obj
 0001:00026190       ?SetTarget@WalkerCam@@UAEXPAVISuperCamTarget@@@Z 00427190 f   walkercam.obj
 0001:00026340       ?OnDisplay@WalkerCam@@MBEXXZ 00427340 f   walkercam.obj
 0001:00026600       ?UpdatePositionNormal@WalkerCam@@AAEXIM@Z 00427600 f   walkercam.obj
 0001:00026c70       ?UpdatePositionInCollision@WalkerCam@@AAEXIM@Z 00427c70 f   walkercam.obj
 0001:00026cb0       ?UpdatePositionOneCollsion@WalkerCam@@AAE_NIMI@Z 00427cb0 f   walkercam.obj
 0001:00027030       ?UpdatePositionMultipleCollision@WalkerCam@@AAEXIM@Z 00428030 f   walkercam.obj
 0001:00027480       ?GetTargetPosition@WalkerCam@@ABEXPAVVector@RadicalMathLibrary@@_N@Z 00428480 f   walkercam.obj
 0001:00027530       ?IsTargetNearPed@WalkerCam@@AAEMI@Z 00428530 f   walkercam.obj
 0001:00027780       ?Next@?$Iterator@VWalkerCamDataChunk@@@tInventory@@QAEPAVWalkerCamDataChunk@@XZ 00428780 f i walkercam.obj
 0001:000277c0       ?GetName@WrecklessCam@@UBEQBDXZ 004287c0 f i wrecklesscam.obj
 0001:000277d0       ??0WrecklessCam@@QAE@XZ    004287d0 f   wrecklesscam.obj
 0001:00027850       ??_EWrecklessCam@@UAEPAXI@Z 00428850 f i wrecklesscam.obj
 0001:00027850       ??_GWrecklessCam@@UAEPAXI@Z 00428850 f i wrecklesscam.obj
 0001:00027870       ??1WrecklessCam@@UAE@XZ    00428870 f   wrecklesscam.obj
 0001:00027890       ?Update@WrecklessCam@@UAEXI@Z 00428890 f   wrecklesscam.obj
 0001:00027a20       ?SetTarget@WrecklessCam@@UAEXPAVISuperCamTarget@@@Z 00428a20 f   wrecklesscam.obj
 0001:00027a80       ?AddTarget@FollowCam@@UAEXPAVISuperCamTarget@@@Z 00428a80 f   followcam.obj
 0001:00027a80       ?AddTarget@WrecklessCam@@UAEXPAVISuperCamTarget@@@Z 00428a80 f   wrecklesscam.obj
 0001:00027aa0       ?OnInit@WrecklessCam@@MAEXXZ 00428aa0 f   wrecklesscam.obj
 0001:00027c70       ?OnShutdown@WrecklessCam@@MAEXXZ 00428c70 f   wrecklesscam.obj
 0001:00027df0       ?Next@?$Iterator@VEventLocator@@@tInventory@@QAEPAVEventLocator@@XZ 00428df0 f i wrecklesscam.obj
 0001:00027e30       ??0WrecklessEventListener@@QAE@XZ 00428e30 f   wrecklesseventlistener.obj
 0001:00027e50       ??_EWrecklessEventListener@@UAEPAXI@Z 00428e50 f i wrecklesseventlistener.obj
 0001:00027e50       ??_GWrecklessEventListener@@UAEPAXI@Z 00428e50 f i wrecklesseventlistener.obj
 0001:00027e70       ??1WrecklessEventListener@@UAE@XZ 00428e70 f   wrecklesseventlistener.obj
 0001:00027e80       ?HandleEvent@WrecklessEventListener@@UAEXW4EventEnum@@PAX@Z 00428e80 f   wrecklesseventlistener.obj
 0001:00027ec0       ??0BonusCard@@QAE@III_KPBW4eQuoteID@@H@Z 00428ec0 f   bonuscard.obj
 0001:00027ef0       ??_GBonusCard@@UAEPAXI@Z   00428ef0 f i bonuscard.obj
 0001:00027ef0       ??_EBonusCard@@UAEPAXI@Z   00428ef0 f i bonuscard.obj
 0001:00027f10       ??1BonusCard@@UAE@XZ       00428f10 f   bonuscard.obj
 0001:00027f20       ??0Card@@QAE@III_KPBW4eQuoteID@@H@Z 00428f20 f   card.obj
 0001:00027f70       ??_GCard@@UAEPAXI@Z        00428f70 f i card.obj
 0001:00027f70       ??_ECard@@UAEPAXI@Z        00428f70 f i card.obj
 0001:00027f90       ??1Card@@UAE@XZ            00428f90 f   card.obj
 0001:00027fa0       ?GetFileInstance_Internal@daSoundAllocatedResource@Sound@@IAEPAVdaSoundFileInstance@2@I@Z 00428fa0 f   soundallocatedresource.obj
 0001:00027fa0       ?GetQuoteID@Card@@QBE?AW4eQuoteID@@H@Z 00428fa0 f   card.obj
 0001:00027fb0       ?ResetData@CardGallery@@UAEXXZ 00428fb0 f i cardgallery.obj
 0001:00027fc0       ??0CardList@@QAE@XZ        00428fc0 f   cardgallery.obj
 0001:00027fe0       ?Add@CardList@@QAEXPAVCard@@@Z 00428fe0 f   cardgallery.obj
 0001:00028000       ?Empty@CardList@@QAEXXZ    00429000 f   cardgallery.obj
 0001:00028020       ?CreateInstance@CardGallery@@SAPAV1@XZ 00429020 f   cardgallery.obj
 0001:000280b0       ?DestroyInstance@CardGallery@@SAXXZ 004290b0 f   cardgallery.obj
 0001:000280d0       ?GetInstance@CardGallery@@SAPAV1@XZ 004290d0 f   cardgallery.obj
 0001:000280e0       ??0CardGallery@@QAE@XZ     004290e0 f   cardgallery.obj
 0001:000281a0       ??_ECardGallery@@UAEPAXI@Z 004291a0 f i cardgallery.obj
 0001:000281a0       ??_GCardGallery@@UAEPAXI@Z 004291a0 f i cardgallery.obj
 0001:000281c0       ??1CardGallery@@UAE@XZ     004291c0 f   cardgallery.obj
 0001:00028200       ?Init@CardGallery@@QAEXXZ  00429200 f   cardgallery.obj
 0001:00028240       ?AddCollectedCardByID@CardGallery@@QAEPAVCard@@I@Z 00429240 f   cardgallery.obj
 0001:00028260       ?AddCollectedCardByName@CardGallery@@QAEPAVCard@@_K@Z 00429260 f   cardgallery.obj
 0001:00028290       ?AddAllCollectedCards@CardGallery@@QAEXXZ 00429290 f   cardgallery.obj
 0001:000282c0       ?RemoveAllCollectedCards@CardGallery@@QAEXXZ 004292c0 f   cardgallery.obj
 0001:000282f0       ?GetCollectedCards@CardGallery@@QBEPBUCardList@@I@Z 004292f0 f   cardgallery.obj
 0001:00028300       ?IsCardCollected@CardGallery@@QBE_N_K@Z 00429300 f   cardgallery.obj
 0001:00028340       ?GetNumCardDecksCompleted@CardGallery@@QBEHXZ 00429340 f   cardgallery.obj
 0001:00028360       ?IsCardDeckComplete@CardGallery@@QBE_NI@Z 00429360 f   cardgallery.obj
 0001:00028380       ?LoadData@CardGallery@@UAEXPBEI@Z 00429380 f   cardgallery.obj
 0001:000283d0       ?SaveData@CardGallery@@UAEXPAEI@Z 004293d0 f   cardgallery.obj
 0001:000284c0       ?OnCheatEntered@CardGallery@@UAEXW4eCheatID@@_N@Z 004294c0 f   cardgallery.obj
 0001:000284e0       ?AddCollectedCard@CardGallery@@AAEXPAVCard@@@Z 004294e0 f   cardgallery.obj
 0001:00028500       ??0CardsDB@@QAE@XZ         00429500 f   cardsdb.obj
 0001:00028570       ??_ECardsDB@@UAEPAXI@Z     00429570 f i cardsdb.obj
 0001:00028570       ??_GCardsDB@@UAEPAXI@Z     00429570 f i cardsdb.obj
 0001:00028590       ??1CardsDB@@UAE@XZ         00429590 f   cardsdb.obj
 0001:000285e0       ?LoadCards@CardsDB@@QAEXXZ 004295e0 f   cardsdb.obj
 0001:00028710       ?GetSimState@GroundPlanePool@@QAEPAVManualSimState@sim@@H@Z 00429710 f   groundplanepool.obj
 0001:00028710       ?GetCheatID@CheatsDB@@QBE?AW4eCheatID@@I@Z 00429710 f   cheats.obj
 0001:00028710       ?GetCardByID@CardsDB@@QAEPAVCard@@I@Z 00429710 f   cardsdb.obj
 0001:00028720       ?GetCardByName@CardsDB@@QAEPAVCard@@_K@Z 00429720 f   cardsdb.obj
 0001:00028770       ??0CollectorCard@@QAE@III_KPBW4eQuoteID@@H@Z 00429770 f   collectorcard.obj
 0001:000287a0       ??_GCollectorCard@@UAEPAXI@Z 004297a0 f i collectorcard.obj
 0001:000287a0       ??_ECollectorCard@@UAEPAXI@Z 004297a0 f i collectorcard.obj
 0001:000287c0       ??1CollectorCard@@UAE@XZ   004297c0 f   collectorcard.obj
 0001:000287d0       ?CreateInstance@Console@@SAPAV1@XZ 004297d0 f   console.obj
 0001:00028860       ?GetInstance@Console@@SAPAV1@XZ 00429860 f   console.obj
 0001:00028870       ?DestroyInstance@Console@@SAXXZ 00429870 f   console.obj
 0001:000288a0       ??0Console@@AAE@XZ         004298a0 f   console.obj
 0001:00028960       ??1Console@@AAE@XZ         00429960 f   console.obj
 0001:00028a50       ?FlushLogFile@Console@@AAEXXZ 00429a50 f   console.obj
 0001:00028ab0       ?AddFunction@Console@@QAE_NPBDP6AXHPAPAD@Z0HH@Z 00429ab0 f   console.obj
 0001:00028ae0       ?AddFunc@Console@@AAE_NPBDP6AXHPAPAD@ZP6A_NH1@Z0HH@Z 00429ae0 f   console.obj
 0001:00028c50       ?SkipWhiteSpace@Console@@AAEPADPBD@Z 00429c50 f   console.obj
 0001:00028c90       ?FoundComment@Console@@AAE_NPAPAD@Z 00429c90 f   console.obj
 0001:00028d00       ?FindTokenEnd@Console@@AAEPADPBD@Z 00429d00 f   console.obj
 0001:00028d50       ?ReadToken@Console@@AAE_NPAPADPBD@Z 00429d50 f   console.obj
 0001:00028dd0       ?GetNextToken@Console@@AAEPADPAPADPAD@Z 00429dd0 f   console.obj
 0001:00028f00       ?Evaluate@Console@@QAE_NPBD0@Z 00429f00 f   console.obj
 0001:000293f0       ?ExecuteScript@Console@@QAEXPBDPAUExecuteScriptCallback@1@PAX_N@Z 0042a3f0 f   console.obj
 0001:00029430       ?OnProcessRequestsComplete@Console@@UAEXPAX@Z 0042a430 f   console.obj
 0001:00029440       ??0FunctionTableEntry@Console@@QAE@PBDP6AXHPAPAD@Z0HH@Z 0042a440 f   console.obj
 0001:00029490       ??0FunctionTableEntry@Console@@QAE@PBDP6A_NHPAPAD@Z0HH@Z 0042a490 f   console.obj
 0001:000294e0       ?smStricmp@@YAHPBD0@Z      0042a4e0 f   fbstricmp.obj
 0001:00029550       ?GetInstance@BootupContext@@SAPAV1@XZ 0042a550 f   bootupcontext.obj
 0001:000295d0       ?StartMovies@BootupContext@@QAEXXZ 0042a5d0 f   bootupcontext.obj
 0001:000297a0       ?OnStart@BootupContext@@MAEXW4ContextEnum@@@Z 0042a7a0 f   bootupcontext.obj
 0001:000298a0       ?OnStop@BootupContext@@MAEXW4ContextEnum@@@Z 0042a8a0 f   bootupcontext.obj
 0001:000298f0       ?OnUpdate@BootupContext@@MAEXI@Z 0042a8f0 f   bootupcontext.obj
 0001:00029960       ?OnProcessRequestsComplete@BootupContext@@MAEXPAX@Z 0042a960 f   bootupcontext.obj
 0001:00029980       ?OnPresentationEventEnd@BootupContext@@MAEXPAVPresentationEvent@@@Z 0042a980 f   bootupcontext.obj
 0001:000299b0       ??0BootupContext@@AAE@XZ   0042a9b0 f   bootupcontext.obj
 0001:00029a40       ??_GBootupContext@@EAEPAXI@Z 0042aa40 f i bootupcontext.obj
 0001:00029a40       ??_EBootupContext@@EAEPAXI@Z 0042aa40 f i bootupcontext.obj
 0001:00029a60       ??1BootupContext@@EAE@XZ   0042aa60 f   bootupcontext.obj
 0001:00029ad0       ?DestroyInstance@Context@@QAEXXZ 0042aad0 f   context.obj
 0001:00029ae0       ?Start@Context@@QAEXW4ContextEnum@@@Z 0042aae0 f   context.obj
 0001:00029af0       ?Stop@Context@@QAEXW4ContextEnum@@@Z 0042aaf0 f   context.obj
 0001:00029b00       ?Update@Context@@QAEXI@Z   0042ab00 f   context.obj
 0001:00029b20       ?HandleEvent@Context@@UAEXW4EventEnum@@PAX@Z 0042ab20 f   context.obj
 0001:00029b30       ?Suspend@Context@@QAEXXZ   0042ab30 f   context.obj
 0001:00029b40       ?Resume@Context@@QAEXXZ    0042ab40 f   context.obj
 0001:00029b50       ??0Context@@IAE@XZ         0042ab50 f   context.obj
 0001:00029b60       ??_EContext@@MAEPAXI@Z     0042ab60 f i context.obj
 0001:00029b60       ??_GContext@@MAEPAXI@Z     0042ab60 f i context.obj
 0001:00029b80       ??1Context@@MAE@XZ         0042ab80 f   context.obj
 0001:00029b90       ?GetInstance@EntryContext@@SAPAV1@XZ 0042ab90 f   entrycontext.obj
 0001:00029bd0       ??0EntryContext@@AAE@XZ    0042abd0 f   entrycontext.obj
 0001:00029be0       ??_GEntryContext@@EAEPAXI@Z 0042abe0 f i entrycontext.obj
 0001:00029be0       ??_EEntryContext@@EAEPAXI@Z 0042abe0 f i entrycontext.obj
 0001:00029c00       ??1EntryContext@@EAE@XZ    0042ac00 f   entrycontext.obj
 0001:00029c20       ?GetInstance@ExitContext@@SAPAV1@XZ 0042ac20 f   exitcontext.obj
 0001:00029c60       ?OnStart@ExitContext@@MAEXW4ContextEnum@@@Z 0042ac60 f   exitcontext.obj
 0001:00029cb0       ??0ExitContext@@AAE@XZ     0042acb0 f   exitcontext.obj
 0001:00029cc0       ??_EExitContext@@EAEPAXI@Z 0042acc0 f i exitcontext.obj
 0001:00029cc0       ??_GExitContext@@EAEPAXI@Z 0042acc0 f i exitcontext.obj
 0001:00029ce0       ??1ExitContext@@EAE@XZ     0042ace0 f   exitcontext.obj
 0001:00029d00       ?GetInstance@FrontEndContext@@SAPAV1@XZ 0042ad00 f   frontendcontext.obj
 0001:00029d40       ??0FrontEndContext@@AAE@XZ 0042ad40 f   frontendcontext.obj
 0001:00029d60       ??_GFrontEndContext@@EAEPAXI@Z 0042ad60 f i frontendcontext.obj
 0001:00029d60       ??_EFrontEndContext@@EAEPAXI@Z 0042ad60 f i frontendcontext.obj
 0001:00029d80       ??1FrontEndContext@@EAE@XZ 0042ad80 f   frontendcontext.obj
 0001:00029da0       ?OnStart@FrontEndContext@@MAEXW4ContextEnum@@@Z 0042ada0 f   frontendcontext.obj
 0001:00029e60       ?OnStop@FrontEndContext@@MAEXW4ContextEnum@@@Z 0042ae60 f   frontendcontext.obj
 0001:00029ec0       ?OnUpdate@FrontEndContext@@MAEXI@Z 0042aec0 f   frontendcontext.obj
 0001:00029f00       ?OnProcessRequestsComplete@FrontEndContext@@MAEXPAX@Z 0042af00 f   frontendcontext.obj
 0001:00029f40       ?StartFrontEnd@FrontEndContext@@AAEXI@Z 0042af40 f   frontendcontext.obj
 0001:00029f70       ??0LoadingContext@@IAE@XZ  0042af70 f   loadingcontext.obj
 0001:00029f90       ??_GLoadingContext@@MAEPAXI@Z 0042af90 f i loadingcontext.obj
 0001:00029f90       ??_ELoadingContext@@MAEPAXI@Z 0042af90 f i loadingcontext.obj
 0001:00029fb0       ??1LoadingContext@@MAE@XZ  0042afb0 f   loadingcontext.obj
 0001:00029fd0       ?OnStart@LoadingContext@@MAEXW4ContextEnum@@@Z 0042afd0 f   loadingcontext.obj
 0001:0002a0d0       ?OnStop@LoadingContext@@MAEXW4ContextEnum@@@Z 0042b0d0 f   loadingcontext.obj
 0001:0002a180       ?OnProcessRequestsComplete@LoadingContext@@UAEXPAX@Z 0042b180 f   loadingcontext.obj
 0001:0002a1a0       ?IsLoading@LoadingManager@@QAE_NXZ 0042b1a0 f i pausecontext.obj
 0001:0002a1d0       ?GetInstance@PauseContext@@SAPAV1@XZ 0042b1d0 f   pausecontext.obj
 0001:0002a210       ??0PauseContext@@AAE@XZ    0042b210 f   pausecontext.obj
 0001:0002a230       ??_EPauseContext@@EAEPAXI@Z 0042b230 f i pausecontext.obj
 0001:0002a230       ??_GPauseContext@@EAEPAXI@Z 0042b230 f i pausecontext.obj
 0001:0002a250       ??1PauseContext@@EAE@XZ    0042b250 f   pausecontext.obj
 0001:0002a260       ?OnStart@PauseContext@@MAEXW4ContextEnum@@@Z 0042b260 f   pausecontext.obj
 0001:0002a2b0       ?OnStop@PauseContext@@MAEXW4ContextEnum@@@Z 0042b2b0 f   pausecontext.obj
 0001:0002a620       ?OnUpdate@PauseContext@@MAEXI@Z 0042b620 f   pausecontext.obj
 0001:0002a700       ?RemoveSectionElements@tInventory@@QAEXPBD@Z 0042b700 f i pausecontext.obj
 0001:0002a720       ??0PlayingContext@@IAE@XZ  0042b720 f   playingcontext.obj
 0001:0002a730       ??_GPlayingContext@@MAEPAXI@Z 0042b730 f i playingcontext.obj
 0001:0002a730       ??_EPlayingContext@@MAEPAXI@Z 0042b730 f i playingcontext.obj
 0001:0002a750       ??1PlayingContext@@MAE@XZ  0042b750 f   playingcontext.obj
 0001:0002a760       ?OnStart@PlayingContext@@MAEXW4ContextEnum@@@Z 0042b760 f   playingcontext.obj
 0001:0002a7c0       ?OnStop@PlayingContext@@MAEXW4ContextEnum@@@Z 0042b7c0 f   playingcontext.obj
 0001:0002a800       ?OnUpdate@PlayingContext@@MAEXI@Z 0042b800 f   playingcontext.obj
 0001:0002a800       ?OnUpdate@LoadingContext@@MAEXI@Z 0042b800 f   loadingcontext.obj
 0001:0002a800       ?OnUpdate@SuperSprintFEContext@@MAEXI@Z 0042b800 f   supersprintfecontext.obj
 0001:0002a820       ??1ComedyCam@@UAE@XZ       0042b820 f i gameplaycontext.obj
 0001:0002a830       ?GetName@ComedyCam@@UBEQBDXZ 0042b830 f i gameplaycontext.obj
 0001:0002a840       ?GetType@ComedyCam@@UAE?AW4Type@SuperCam@@XZ 0042b840 f i gameplaycontext.obj
 0001:0002a840       ?GetDataType@ActionEventLocator@@UBE?AW4Type@LocatorType@@XZ 0042b840 f i actioneventlocator.obj
 0001:0002a850       ??_GComedyCam@@UAEPAXI@Z   0042b850 f i gameplaycontext.obj
 0001:0002a850       ??_EComedyCam@@UAEPAXI@Z   0042b850 f i gameplaycontext.obj
 0001:0002a870       ?GetInstance@GameplayContext@@SAPAV1@XZ 0042b870 f   gameplaycontext.obj
 0001:0002a8b0       ??0GameplayContext@@AAE@XZ 0042b8b0 f   gameplaycontext.obj
 0001:0002a8d0       ??_GGameplayContext@@EAEPAXI@Z 0042b8d0 f i gameplaycontext.obj
 0001:0002a8d0       ??_EGameplayContext@@EAEPAXI@Z 0042b8d0 f i gameplaycontext.obj
 0001:0002a8f0       ??1GameplayContext@@EAE@XZ 0042b8f0 f   gameplaycontext.obj
 0001:0002a900       ?OnStart@GameplayContext@@MAEXW4ContextEnum@@@Z 0042b900 f   gameplaycontext.obj
 0001:0002af40       ?OnStop@GameplayContext@@MAEXW4ContextEnum@@@Z 0042bf40 f   gameplaycontext.obj
 0001:0002af80       ?OnUpdate@GameplayContext@@MAEXI@Z 0042bf80 f   gameplaycontext.obj
 0001:0002b190       ?PauseAllButPresentation@GameplayContext@@QAEX_N@Z 0042c190 f   gameplaycontext.obj
 0001:0002b1a0       ?find@?$@VtLightGroup@@@p3d@@YAPAVtLightGroup@@PBD@Z 0042c1a0 f i gameplaycontext.obj
 0001:0002b1c0       ?find@?$@VtLightGroup@@@p3d@@YAPAVtLightGroup@@PAVtEntityStore@@PBD@Z 0042c1c0 f i gameplaycontext.obj
 0001:0002b230       ?find@?$@VtLightGroup@@@p3d@@YAPAVtLightGroup@@PAVtEntityStore@@ABVtName@@@Z 0042c230 f i gameplaycontext.obj
 0001:0002b2c0       ?safe_cast@?$SafeCast@VtLightGroup@@@radLoadInventory@@UAEPAUIRefCount@@PAU3@@Z 0042c2c0 f i gameplaycontext.obj
 0001:0002b2e0       ?GetInstance@LoadingGameplayContext@@SAPAV1@XZ 0042c2e0 f   loadinggameplaycontext.obj
 0001:0002b320       ??0LoadingGameplayContext@@AAE@XZ 0042c320 f   loadinggameplaycontext.obj
 0001:0002b340       ??_ELoadingGameplayContext@@EAEPAXI@Z 0042c340 f i loadinggameplaycontext.obj
 0001:0002b340       ??_GLoadingGameplayContext@@EAEPAXI@Z 0042c340 f i loadinggameplaycontext.obj
 0001:0002b360       ??1LoadingGameplayContext@@EAE@XZ 0042c360 f   loadinggameplaycontext.obj
 0001:0002b380       ?OnStart@LoadingGameplayContext@@MAEXW4ContextEnum@@@Z 0042c380 f   loadinggameplaycontext.obj
 0001:0002b400       ?OnUpdate@LoadingDemoContext@@MAEXI@Z 0042c400 f   loadingdemocontext.obj
 0001:0002b400       ?OnUpdate@LoadingGameplayContext@@MAEXI@Z 0042c400 f   loadinggameplaycontext.obj
 0001:0002b430       ?OnProcessRequestsComplete@LoadingDemoContext@@UAEXPAX@Z 0042c430 f   loadingdemocontext.obj
 0001:0002b430       ?OnProcessRequestsComplete@LoadingGameplayContext@@UAEXPAX@Z 0042c430 f   loadinggameplaycontext.obj
 0001:0002b460       ?GetInstance@DemoContext@@SAPAV1@XZ 0042c460 f   democontext.obj
 0001:0002b490       ??0DemoContext@@AAE@XZ     0042c490 f   democontext.obj
 0001:0002b4b0       ??_GDemoContext@@EAEPAXI@Z 0042c4b0 f i democontext.obj
 0001:0002b4b0       ??_EDemoContext@@EAEPAXI@Z 0042c4b0 f i democontext.obj
 0001:0002b4d0       ??1DemoContext@@EAE@XZ     0042c4d0 f   democontext.obj
 0001:0002b4e0       ?OnStart@DemoContext@@MAEXW4ContextEnum@@@Z 0042c4e0 f   democontext.obj
 0001:0002b7d0       ?OnStop@DemoContext@@MAEXW4ContextEnum@@@Z 0042c7d0 f   democontext.obj
 0001:0002b9c0       ?OnUpdate@DemoContext@@MAEXI@Z 0042c9c0 f   democontext.obj
 0001:0002bb00       ?GetInstance@LoadingDemoContext@@SAPAV1@XZ 0042cb00 f   loadingdemocontext.obj
 0001:0002bb30       ??0LoadingDemoContext@@AAE@XZ 0042cb30 f   loadingdemocontext.obj
 0001:0002bb50       ??_GLoadingDemoContext@@EAEPAXI@Z 0042cb50 f i loadingdemocontext.obj
 0001:0002bb50       ??_ELoadingDemoContext@@EAEPAXI@Z 0042cb50 f i loadingdemocontext.obj
 0001:0002bb70       ??1LoadingDemoContext@@EAE@XZ 0042cb70 f   loadingdemocontext.obj
 0001:0002bb90       ?OnStart@LoadingDemoContext@@MAEXW4ContextEnum@@@Z 0042cb90 f   loadingdemocontext.obj
 0001:0002bbf0       ?PrepareNewHeaps@LoadingGameplayContext@@MAEXXZ 0042cbf0 f   loadinggameplaycontext.obj
 0001:0002bbf0       ?PrepareNewHeaps@LoadingDemoContext@@MAEXXZ 0042cbf0 f   loadingdemocontext.obj
 0001:0002bc00       ?GetInstance@LoadingSuperSprintContext@@SAPAV1@XZ 0042cc00 f   loadingsupersprintcontext.obj
 0001:0002bc40       ??0LoadingSuperSprintContext@@AAE@XZ 0042cc40 f   loadingsupersprintcontext.obj
 0001:0002bc60       ??_ELoadingSuperSprintContext@@EAEPAXI@Z 0042cc60 f i loadingsupersprintcontext.obj
 0001:0002bc60       ??_GLoadingSuperSprintContext@@EAEPAXI@Z 0042cc60 f i loadingsupersprintcontext.obj
 0001:0002bc80       ??1LoadingSuperSprintContext@@EAE@XZ 0042cc80 f   loadingsupersprintcontext.obj
 0001:0002bca0       ?OnStart@LoadingSuperSprintContext@@MAEXW4ContextEnum@@@Z 0042cca0 f   loadingsupersprintcontext.obj
 0001:0002bd00       ?OnStop@LoadingDemoContext@@MAEXW4ContextEnum@@@Z 0042cd00 f   loadingdemocontext.obj
 0001:0002bd00       ?OnStop@LoadingGameplayContext@@MAEXW4ContextEnum@@@Z 0042cd00 f   loadinggameplaycontext.obj
 0001:0002bd00       ?OnStop@LoadingSuperSprintContext@@MAEXW4ContextEnum@@@Z 0042cd00 f   loadingsupersprintcontext.obj
 0001:0002bd10       ?OnUpdate@LoadingSuperSprintContext@@MAEXI@Z 0042cd10 f   loadingsupersprintcontext.obj
 0001:0002bd20       ?OnProcessRequestsComplete@LoadingSuperSprintContext@@UAEXPAX@Z 0042cd20 f   loadingsupersprintcontext.obj
 0001:0002bd50       ?GetInstance@SuperSprintContext@@SAPAV1@XZ 0042cd50 f   supersprintcontext.obj
 0001:0002bda0       ?OnStart@SuperSprintContext@@MAEXW4ContextEnum@@@Z 0042cda0 f   supersprintcontext.obj
 0001:0002c1f0       ?OnStop@SuperSprintContext@@MAEXW4ContextEnum@@@Z 0042d1f0 f   supersprintcontext.obj
 0001:0002c430       ?OnUpdate@SuperSprintContext@@MAEXI@Z 0042d430 f   supersprintcontext.obj
 0001:0002c500       ??0SuperSprintContext@@AAE@XZ 0042d500 f   supersprintcontext.obj
 0001:0002c510       ??_GSuperSprintContext@@EAEPAXI@Z 0042d510 f i supersprintcontext.obj
 0001:0002c510       ??_ESuperSprintContext@@EAEPAXI@Z 0042d510 f i supersprintcontext.obj
 0001:0002c530       ??1SuperSprintContext@@EAE@XZ 0042d530 f   supersprintcontext.obj
 0001:0002c540       ?GetInstance@SuperSprintFEContext@@SAPAV1@XZ 0042d540 f   supersprintfecontext.obj
 0001:0002c590       ?OnStart@SuperSprintFEContext@@MAEXW4ContextEnum@@@Z 0042d590 f   supersprintfecontext.obj
 0001:0002c620       ?OnStop@SuperSprintFEContext@@MAEXW4ContextEnum@@@Z 0042d620 f   supersprintfecontext.obj
 0001:0002c670       ?OnProcessRequestsComplete@SuperSprintFEContext@@MAEXPAX@Z 0042d670 f   supersprintfecontext.obj
 0001:0002c6a0       ??0SuperSprintFEContext@@AAE@XZ 0042d6a0 f   supersprintfecontext.obj
 0001:0002c6c0       ??_ESuperSprintFEContext@@EAEPAXI@Z 0042d6c0 f i supersprintfecontext.obj
 0001:0002c6c0       ??_GSuperSprintFEContext@@EAEPAXI@Z 0042d6c0 f i supersprintfecontext.obj
 0001:0002c6e0       ??1SuperSprintFEContext@@EAE@XZ 0042d6e0 f   supersprintfecontext.obj
 0001:0002c700       ??0EventListener@@QAE@XZ   0042d700 f   eventlistener.obj
 0001:0002c710       ??_EEventListener@@UAEPAXI@Z 0042d710 f i eventlistener.obj
 0001:0002c710       ??_GEventListener@@UAEPAXI@Z 0042d710 f i eventlistener.obj
 0001:0002c730       ??1EventListener@@UAE@XZ   0042d730 f   eventlistener.obj
 0001:0002c750       ?CreateInstance@EventManager@@SAPAV1@XZ 0042d750 f   eventmanager.obj
 0001:0002c7d0       ?GetInstance@EventManager@@SAPAV1@XZ 0042d7d0 f   eventmanager.obj
 0001:0002c7e0       ?DestroyInstance@EventManager@@SAXXZ 0042d7e0 f   eventmanager.obj
 0001:0002c810       ?AddListener@EventManager@@QAEXPAVEventListener@@W4EventEnum@@@Z 0042d810 f   eventmanager.obj
 0001:0002c890       ?RemoveListener@EventManager@@QAEXPAVEventListener@@W4EventEnum@@@Z 0042d890 f   eventmanager.obj
 0001:0002c8e0       ?RemoveAll@EventManager@@QAEXPAVEventListener@@@Z 0042d8e0 f   eventmanager.obj
 0001:0002c900       ?TriggerEvent@EventManager@@QBEHW4EventEnum@@PAX@Z 0042d900 f   eventmanager.obj
 0001:0002c980       ??0EventManager@@AAE@XZ    0042d980 f   eventmanager.obj
 0001:0002ca30       ??1EventManager@@AAE@XZ    0042da30 f   eventmanager.obj
 0001:0002cab0       ??0?$vector@PAVEventListener@@V?$s2alloc@PAVEventListener@@@@@std@@QAE@XZ 0042dab0 f i eventmanager.obj
 0001:0002cac0       ??1?$vector@PAVEventListener@@V?$s2alloc@PAVEventListener@@@@@std@@QAE@XZ 0042dac0 f i eventmanager.obj
 0001:0002caf0       ?_Insert_n@?$vector@W4ContextEnum@@V?$s2alloc@W4ContextEnum@@@@@std@@IAEXV?$_Ptrit@W4ContextEnum@@HPAW41@AAW41@PAW41@AAW41@@2@IABW4ContextEnum@@@Z 0042daf0 f i gameflow.obj
 0001:0002caf0       ?_Insert_n@?$vector@W4TutorialMode@@V?$s2alloc@W4TutorialMode@@@@@std@@IAEXV?$_Ptrit@W4TutorialMode@@HPAW41@AAW41@PAW41@AAW41@@2@IABW4TutorialMode@@@Z 0042daf0 f i tutorialmanager.obj
 0001:0002caf0       ?_Insert_n@?$vector@PAVEventListener@@V?$s2alloc@PAVEventListener@@@@@std@@IAEXV?$_Ptrit@PAVEventListener@@HPAPAV1@AAPAV1@PAPAV1@AAPAV1@@2@IABQAVEventListener@@@Z 0042daf0 f i eventmanager.obj
 0001:0002caf0       ?_Insert_n@?$vector@PAVIEntityDSG@@V?$s2alloc@PAVIEntityDSG@@@@@std@@IAEXV?$_Ptrit@PAVIEntityDSG@@HPAPAV1@AAPAV1@PAPAV1@AAPAV1@@2@IABQAVIEntityDSG@@@Z 0042daf0 f i WorldScene.obj
 0001:0002caf0       ?_Insert_n@?$vector@PAVActor@@V?$s2alloc@PAVActor@@@@@std@@IAEXV?$_Ptrit@PAVActor@@HPAPAV1@AAPAV1@PAPAV1@AAPAV1@@2@IABQAVActor@@@Z 0042daf0 f i actormanager.obj
 0001:0002caf0       ?_Insert_n@?$vector@PAVSelectableDialog@@V?$s2alloc@PAVSelectableDialog@@@@@std@@IAEXV?$_Ptrit@PAVSelectableDialog@@HPAPAV1@AAPAV1@PAPAV1@AAPAV1@@2@IABQAVSelectableDialog@@@Z 0042daf0 f i dialogselectiongroup.obj
 0001:0002caf0       ?_Insert_n@?$vector@PAVCollisionObject@sim@@V?$s2alloc@PAVCollisionObject@sim@@@@@std@@IAEXV?$_Ptrit@PAVCollisionObject@sim@@HPAPAV12@AAPAV12@PAPAV12@AAPAV12@@2@IABQAVCollisionObject@sim@@@Z 0042daf0 f i intersectionlist.obj
 0001:0002cd90       ?_Ucopy@?$vector@W4ContextEnum@@V?$s2alloc@W4ContextEnum@@@@@std@@IAEPAW4ContextEnum@@V?$_Ptrit@W4ContextEnum@@HPAW41@AAW41@PAW41@AAW41@@2@0PAW43@@Z 0042dd90 f i gameflow.obj
 0001:0002cd90       ?_Ucopy@?$vector@W4TutorialMode@@V?$s2alloc@W4TutorialMode@@@@@std@@IAEPAW4TutorialMode@@V?$_Ptrit@W4TutorialMode@@HPAW41@AAW41@PAW41@AAW41@@2@0PAW43@@Z 0042dd90 f i tutorialmanager.obj
 0001:0002cd90       ?_Ucopy@?$vector@PAVCollisionObject@sim@@V?$s2alloc@PAVCollisionObject@sim@@@@@std@@IAEPAPAVCollisionObject@sim@@V?$_Ptrit@PAVCollisionObject@sim@@HPAPAV12@AAPAV12@PAPAV12@AAPAV12@@2@0PAPAV34@@Z 0042dd90 f i intersectionlist.obj
 0001:0002cd90       ?_Ucopy@?$vector@PAVEventListener@@V?$s2alloc@PAVEventListener@@@@@std@@IAEPAPAVEventListener@@V?$_Ptrit@PAVEventListener@@HPAPAV1@AAPAV1@PAPAV1@AAPAV1@@2@0PAPAV3@@Z 0042dd90 f i eventmanager.obj
 0001:0002cd90       ?_Ucopy@?$vector@PAVActor@@V?$s2alloc@PAVActor@@@@@std@@IAEPAPAVActor@@V?$_Ptrit@PAVActor@@HPAPAV1@AAPAV1@PAPAV1@AAPAV1@@2@0PAPAV3@@Z 0042dd90 f i actormanager.obj
 0001:0002cd90       ?_Ucopy@?$vector@PAVIEntityDSG@@V?$s2alloc@PAVIEntityDSG@@@@@std@@IAEPAPAVIEntityDSG@@V?$_Ptrit@PAVIEntityDSG@@HPAPAV1@AAPAV1@PAPAV1@AAPAV1@@2@0PAPAV3@@Z 0042dd90 f i WorldScene.obj
 0001:0002cd90       ?_Ucopy@?$vector@PAVSelectableDialog@@V?$s2alloc@PAVSelectableDialog@@@@@std@@IAEPAPAVSelectableDialog@@V?$_Ptrit@PAVSelectableDialog@@HPAPAV1@AAPAV1@PAPAV1@AAPAV1@@2@0PAPAV3@@Z 0042dd90 f i dialogselectiongroup.obj
 0001:0002cdc0       ?CreateInstance@GameFlow@@SAPAV1@XZ 0042ddc0 f   gameflow.obj
 0001:0002ce30       ?GetInstance@GameFlow@@SAPAV1@XZ 0042de30 f   gameflow.obj
 0001:0002ce40       ?DestroyInstance@GameFlow@@SAXXZ 0042de40 f   gameflow.obj
 0001:0002ce60       ?PushContext@GameFlow@@QAEXW4ContextEnum@@@Z 0042de60 f   gameflow.obj
 0001:0002ce80       ?SetContext@GameFlow@@QAEXW4ContextEnum@@@Z 0042de80 f   gameflow.obj
 0001:0002cec0       ?OnTimerDone@GameFlow@@UAEXIPAX@Z 0042dec0 f   gameflow.obj
 0001:0002cf60       ??0GameFlow@@AAE@XZ        0042df60 f   gameflow.obj
 0001:0002d030       ??_EGameFlow@@EAEPAXI@Z    0042e030 f i gameflow.obj
 0001:0002d030       ??_GGameFlow@@EAEPAXI@Z    0042e030 f i gameflow.obj
 0001:0002d050       ??1GameFlow@@EAE@XZ        0042e050 f   gameflow.obj
 0001:0002d0c0       ?_Xlen@?$vector@UVehicleFrameController@GeometryVehicle@@V?$s2alloc@UVehicleFrameController@GeometryVehicle@@@@@std@@IBEXXZ 0042e0c0 f i geometryvehicle.obj
 0001:0002d0c0       ?_Xlen@?$vector@PAVEventListener@@V?$s2alloc@PAVEventListener@@@@@std@@IBEXXZ 0042e0c0 f i eventmanager.obj
 0001:0002d0c0       ?_Xlen@?$vector@PAVCollisionObject@sim@@V?$s2alloc@PAVCollisionObject@sim@@@@@std@@IBEXXZ 0042e0c0 f i intersectionlist.obj
 0001:0002d0c0       ?_Xlen@?$vector@PAVActor@@V?$s2alloc@PAVActor@@@@@std@@IBEXXZ 0042e0c0 f i actormanager.obj
 0001:0002d0c0       ?_Xlen@?$vector@_NV?$s2alloc@_N@@@std@@IBEXXZ 0042e0c0 f i particlemanager.obj
 0001:0002d0c0       ?_Xlen@?$vector@ULineSegment2D@IntersectionList@@V?$s2alloc@ULineSegment2D@IntersectionList@@@@@std@@IBEXXZ 0042e0c0 f i intersectionlist.obj
 0001:0002d0c0       ?_Xlen@?$vector@W4ContextEnum@@V?$s2alloc@W4ContextEnum@@@@@std@@IBEXXZ 0042e0c0 f i gameflow.obj
 0001:0002d0c0       ?_Xlen@?$vector@UzSortBlah@WorldScene@@V?$s2alloc@UzSortBlah@WorldScene@@@@@std@@IBEXXZ 0042e0c0 f i WorldScene.obj
 0001:0002d0c0       ?_Xlen@?$vector@W4TutorialMode@@V?$s2alloc@W4TutorialMode@@@@@std@@IBEXXZ 0042e0c0 f i tutorialmanager.obj
 0001:0002d0c0       ?_Xlen@?$vector@VVector@RadicalMathLibrary@@V?$s2alloc@VVector@RadicalMathLibrary@@@@@std@@IBEXXZ 0042e0c0 f i flyingactor.obj
 0001:0002d0c0       ?_Xlen@?$vector@V?$MapElement@W4ParticleID@ParticleEnum@@H@@V?$s2alloc@V?$MapElement@W4ParticleID@ParticleEnum@@H@@@@@std@@IBEXXZ 0042e0c0 f i vehicleparticleemitter.obj
 0001:0002d0c0       ?_Xlen@?$vector@PAVSelectableDialog@@V?$s2alloc@PAVSelectableDialog@@@@@std@@IBEXXZ 0042e0c0 f i dialogselectiongroup.obj
 0001:0002d0c0       ?_Xlen@?$vector@V?$MapElement@_K_K@@V?$s2alloc@V?$MapElement@_K_K@@@@@std@@IBEXXZ 0042e0c0 f i AnimDynaPhysLoader.obj
 0001:0002d0c0       ?_Xlen@?$vector@V?$MapElement@PAVCollisionObject@sim@@PAVDynaPhysDSG@@@@V?$s2alloc@V?$MapElement@PAVCollisionObject@sim@@PAVDynaPhysDSG@@@@@@@std@@IBEXXZ 0042e0c0 f i intersectionlist.obj
 0001:0002d0c0       ?_Xlen@?$vector@PAVIEntityDSG@@V?$s2alloc@PAVIEntityDSG@@@@@std@@IBEXXZ 0042e0c0 f i WorldScene.obj
 0001:0002d0c0       ?_Xlen@?$vector@VtName@@V?$s2alloc@VtName@@@@@std@@IBEXXZ 0042e0c0 f i missionstage.obj
 0001:0002d0c0       ?_Xlen@?$vector@V?$MapElement@_KPAVtPose@@@@V?$s2alloc@V?$MapElement@_KPAVtPose@@@@@@@std@@IBEXXZ 0042e0c0 f i StatePropDSG.obj
 0001:0002d140       ?copy_backward@std@@YA?AV?$_Ptrit@PAVIEntityDSG@@HPAPAV1@AAPAV1@PAPAV1@AAPAV1@@1@V21@00@Z 0042e140 f i WorldScene.obj
 0001:0002d140       ?copy_backward@std@@YA?AV?$_Ptrit@PAVEventListener@@HPAPAV1@AAPAV1@PAPAV1@AAPAV1@@1@V21@00@Z 0042e140 f i eventmanager.obj
 0001:0002d140       ?copy_backward@std@@YA?AV?$_Ptrit@W4ContextEnum@@HPAW41@AAW41@PAW41@AAW41@@1@V21@00@Z 0042e140 f i gameflow.obj
 0001:0002d140       ?copy_backward@std@@YA?AV?$_Ptrit@PAVSelectableDialog@@HPAPAV1@AAPAV1@PAPAV1@AAPAV1@@1@V21@00@Z 0042e140 f i dialogselectiongroup.obj
 0001:0002d140       ?copy_backward@std@@YA?AV?$_Ptrit@PAVActor@@HPAPAV1@AAPAV1@PAPAV1@AAPAV1@@1@V21@00@Z 0042e140 f i actormanager.obj
 0001:0002d140       ?copy_backward@std@@YA?AV?$_Ptrit@W4TutorialMode@@HPAW41@AAW41@PAW41@AAW41@@1@V21@00@Z 0042e140 f i tutorialmanager.obj
 0001:0002d140       ?copy_backward@std@@YA?AV?$_Ptrit@PAVCollisionObject@sim@@HPAPAV12@AAPAV12@PAPAV12@AAPAV12@@1@V21@00@Z 0042e140 f i intersectionlist.obj
 0001:0002d170       ??1RealController@@UAE@XZ  0042e170 f i Gamepad.obj
 0001:0002d1d0       ??0Gamepad@@QAE@XZ         0042e1d0 f   Gamepad.obj
 0001:0002d1f0       ??_EGamepad@@UAEPAXI@Z     0042e1f0 f i Gamepad.obj
 0001:0002d1f0       ??_GGamepad@@UAEPAXI@Z     0042e1f0 f i Gamepad.obj
 0001:0002d210       ??1Gamepad@@UAE@XZ         0042e210 f   Gamepad.obj
 0001:0002d220       ??0Keyboard@@QAE@XZ        0042e220 f   Keyboard.obj
 0001:0002d240       ??_EKeyboard@@UAEPAXI@Z    0042e240 f i Keyboard.obj
 0001:0002d240       ??_GKeyboard@@UAEPAXI@Z    0042e240 f i Keyboard.obj
 0001:0002d260       ??1Keyboard@@UAE@XZ        0042e260 f   Keyboard.obj
 0001:0002d270       ??0Mouse@@QAE@XZ           0042e270 f   Mouse.obj
 0001:0002d290       ??_EMouse@@UAEPAXI@Z       0042e290 f i Mouse.obj
 0001:0002d290       ??_GMouse@@UAEPAXI@Z       0042e290 f i Mouse.obj
 0001:0002d2b0       ??1Mouse@@UAE@XZ           0042e2b0 f   Mouse.obj
 0001:0002d2c0       ??0RealController@@QAE@XZ  0042e2c0 f   RealController.obj
 0001:0002d320       ?Init@RealController@@QAEXPAUIRadController@@@Z 0042e320 f   RealController.obj
 0001:0002d350       ?AddInputPoints@RealController@@QAEXPAUIRadControllerInputPoint@@@Z 0042e350 f   RealController.obj
 0001:0002d390       ?ReleaseInputPoints@RealController@@QAEXPAVUserController@@@Z 0042e390 f   RealController.obj
 0001:0002d400       ??0tName@@QAE@XZ           0042e400 f   pure3dwr:entity.obj
 0001:0002d400       ??0Button@@QAE@XZ          0042e400 f   button.obj
 0001:0002d410       ?CreateInstance@InputManager@@SAPAV1@XZ 0042e410 f   inputmanager.obj
 0001:0002d480       ?GetInstance@InputManager@@SAPAV1@XZ 0042e480 f   inputmanager.obj
 0001:0002d490       ?DestroyInstance@InputManager@@SAXXZ 0042e490 f   inputmanager.obj
 0001:0002d4c0       ?Init@InputManager@@QAEXXZ 0042e4c0 f   inputmanager.obj
 0001:0002d520       ?Update@InputManager@@QAEXI@Z 0042e520 f   inputmanager.obj
 0001:0002d630       ?OnControllerConnectionStatusChange@InputManager@@EAEXPAUIRadController@@@Z 0042e630 f   inputmanager.obj
 0001:0002d640       ?SetRumbleForDevice@InputManager@@QAEXH_N@Z 0042e640 f   inputmanager.obj
 0001:0002d660       ?TriggerRumblePulse@InputManager@@QAEXH@Z 0042e660 f   inputmanager.obj
 0001:0002d680       ?GetValue@InputManager@@QBEMII@Z 0042e680 f   inputmanager.obj
 0001:0002d6b0       ?GetController@InputManager@@QAEPAVUserController@@I@Z 0042e6b0 f   inputmanager.obj
 0001:0002d6d0       ?RegisterMappable@InputManager@@QAEHIPAVMappable@@@Z 0042e6d0 f   inputmanager.obj
 0001:0002d6f0       ?UnregisterMappable@InputManager@@QAEXIH@Z 0042e6f0 f   inputmanager.obj
 0001:0002d710       ?UnregisterMappable@InputManager@@QAEXIPAVMappable@@@Z 0042e710 f   inputmanager.obj
 0001:0002d730       ?UnregisterMappable@InputManager@@QAEXPAVMappable@@@Z 0042e730 f   inputmanager.obj
 0001:0002d760       ?LoadData@InputManager@@UAEXPBEI@Z 0042e760 f   inputmanager.obj
 0001:0002d790       ?SaveData@InputManager@@UAEXPAEI@Z 0042e790 f   inputmanager.obj
 0001:0002d7b0       ?ResetData@InputManager@@UAEXXZ 0042e7b0 f   inputmanager.obj
 0001:0002d7c0       ??0InputManager@@AAE@XZ    0042e7c0 f   inputmanager.obj
 0001:0002d880       ??1InputManager@@AAE@XZ    0042e880 f   inputmanager.obj
 0001:0002d910       ?EnumerateControllers@InputManager@@AAEXXZ 0042e910 f   inputmanager.obj
 0001:0002dba0       ?ReleaseAllControllers@InputManager@@AAEXXZ 0042eba0 f   inputmanager.obj
 0001:0002dbd0       ?SetGameState@InputManager@@QAEXW4ActiveState@Input@@@Z 0042ebd0 f   inputmanager.obj
 0001:0002dc00       ?GetGameState@InputManager@@QBE?AW4ActiveState@Input@@XZ 0042ec00 f   inputmanager.obj
 0001:0002dc10       ?RegisterControllerID@InputManager@@QAEXHH@Z 0042ec10 f   inputmanager.obj
 0001:0002dc20       ?UnregisterControllerID@InputManager@@QAEXH@Z 0042ec20 f   inputmanager.obj
 0001:0002dc30       ?UnregisterAllControllerID@InputManager@@QAEXXZ 0042ec30 f   inputmanager.obj
 0001:0002dc40       ??0Mappable@@QAE@I@Z       0042ec40 f   mappable.obj
 0001:0002dce0       ??_EMappable@@UAEPAXI@Z    0042ece0 f i mappable.obj
 0001:0002dce0       ??_GMappable@@UAEPAXI@Z    0042ece0 f i mappable.obj
 0001:0002dd00       ??1Mappable@@UAE@XZ        0042ed00 f   mappable.obj
 0001:0002dd60       ?DispatchOnButton@Mappable@@QAEXHHPBVButton@@@Z 0042ed60 f   mappable.obj
 0001:0002de20       ?InitButtons@Mappable@@QAEXHPBVButton@@@Z 0042ee20 f   mappable.obj
 0001:0002de60       ?OnControllerDisconnect@Mappable@@UAEXH@Z 0042ee60 f   mappable.obj
 0001:0002de70       ?UpdateButtonState@Mappable@@QAEXHHPBVButton@@@Z 0042ee70 f   mappable.obj
 0001:0002ded0       ?GetValue@Mappable@@QBEMI@Z 0042eed0 f   mappable.obj
 0001:0002def0       ?GetButton@Mappable@@QAEPAVButton@@I@Z 0042eef0 f   mappable.obj
 0001:0002df00       ?GetMapper@Mappable@@QAEPAVMapper@@I@Z 0042ef00 f   mappable.obj
 0001:0002df10       ?GetActiveMapper@Mappable@@AAEPAVMapper@@XZ 0042ef10 f   mappable.obj
 0001:0002df30       ?SetGameState@Mappable@@QAEXI@Z 0042ef30 f   mappable.obj
 0001:0002df70       ?IsActive@Mappable@@QBE_NXZ 0042ef70 f   mappable.obj
 0001:0002df80       ?IsButtonDown@Mappable@@QAE_NI@Z 0042ef80 f   mappable.obj
 0001:0002dfa0       ?Map@Mappable@@IAE_NPBDHII@Z 0042efa0 f   mappable.obj
 0001:0002dfe0       ?ClearMap@Mappable@@IAEXI@Z 0042efe0 f   mappable.obj
 0001:0002dff0       ?Reset@Mappable@@QAEXXZ    0042eff0 f   mappable.obj
 0001:0002e020       ??0Mapper@@QAE@XZ          0042f020 f   mapper.obj
 0001:0002e030       ?SetAssociation@Mapper@@QAEHHH@Z 0042f030 f   mapper.obj
 0001:0002e040       ?mLoader@AllWrappers@@QAEAAVIWrappedLoader@@H@Z 0042f040 f   AllWrappers.obj
 0001:0002e040       ?GetLogicalIndex@Mapper@@QAEHH@Z 0042f040 f   mapper.obj
 0001:0002e040       ?mpLoader@AllWrappers@@QAEPAVIWrappedLoader@@H@Z 0042f040 f   AllWrappers.obj
 0001:0002e050       ?ClearAssociations@Mapper@@QAEXXZ 0042f050 f   mapper.obj
 0001:0002e060       ??0RumbleEffect@@QAE@XZ    0042f060 f   rumbleeffect.obj
 0001:0002e0d0       ??_ERumbleEffect@@UAEPAXI@Z 0042f0d0 f i rumbleeffect.obj
 0001:0002e0d0       ??_GRumbleEffect@@UAEPAXI@Z 0042f0d0 f i rumbleeffect.obj
 0001:0002e0f0       ??1RumbleEffect@@UAE@XZ    0042f0f0 f   rumbleeffect.obj
 0001:0002e130       ?SetMotor@RumbleEffect@@QAEXIPAUIRadControllerOutputPoint@@@Z 0042f130 f   rumbleeffect.obj
 0001:0002e150       ?SetEffect@RumbleEffect@@QAEXW4Effect@1@I@Z 0042f150 f   rumbleeffect.obj
 0001:0002e160       ?SetDynaEffect@RumbleEffect@@QAEXW4DynaEffect@1@IM@Z 0042f160 f   rumbleeffect.obj
 0001:0002e1a0       ?Update@RumbleEffect@@QAEXI@Z 0042f1a0 f   rumbleeffect.obj
 0001:0002e260       ?ShutDownEffects@RumbleEffect@@QAEXXZ 0042f260 f   rumbleeffect.obj
 0001:0002e2a0       ?UpdateEffect@RumbleEffect@@AAEXW4Effect@1@I@Z 0042f2a0 f   rumbleeffect.obj
 0001:0002e300       ?UpdateDynaEffect@RumbleEffect@@AAEXW4DynaEffect@1@IM@Z 0042f300 f   rumbleeffect.obj
 0001:0002e370       ?getController@RealController@@QBE?AV?$ref@UIRadController@@@@XZ 0042f370 f i usercontrollerWin32.obj
 0001:0002e390       ??0UserController@@QAE@XZ  0042f390 f   usercontrollerWin32.obj
 0001:0002e4c0       ??_GUserController@@UAEPAXI@Z 0042f4c0 f i usercontrollerWin32.obj
 0001:0002e4c0       ??_EUserController@@UAEPAXI@Z 0042f4c0 f i usercontrollerWin32.obj
 0001:0002e4e0       ?NotifyConnect@UserController@@QAEXXZ 0042f4e0 f   usercontrollerWin32.obj
 0001:0002e530       ?NotifyDisconnect@UserController@@QAEXXZ 0042f530 f   usercontrollerWin32.obj
 0001:0002e580       ?IsConnected@UserController@@QBE_NXZ 0042f580 f   usercontrollerWin32.obj
 0001:0002e590       ?SetGameState@UserController@@QAEXI@Z 0042f590 f   usercontrollerWin32.obj
 0001:0002e5f0       ?IsInputAxis@UserController@@QAE_NH@Z 0042f5f0 f   usercontrollerWin32.obj
 0001:0002e620       ?OnControllerInputPointChange@UserController@@MAEXIM@Z 0042f620 f   usercontrollerWin32.obj
 0001:0002e7a0       ?Initialize@UserController@@UAEXPAUIRadController@@0@Z 0042f7a0 f   usercontrollerWin32.obj
 0001:0002e920       ?ReleaseRadController@UserController@@UAEXXZ 0042f920 f   usercontrollerWin32.obj
 0001:0002ea20       ?SetRumble@UserController@@QAEX_N0@Z 0042fa20 f   usercontrollerWin32.obj
 0001:0002ea30       ?PulseRumble@UserController@@QAEXXZ 0042fa30 f   usercontrollerWin32.obj
 0001:0002ea50       ?ApplyEffect@UserController@@QAEXW4Effect@RumbleEffect@@I@Z 0042fa50 f   usercontrollerWin32.obj
 0001:0002ea80       ?ApplyDynaEffect@UserController@@QAEXW4DynaEffect@RumbleEffect@@IM@Z 0042fa80 f   usercontrollerWin32.obj
 0001:0002eac0       ?Update@UserController@@QAEXI@Z 0042fac0 f   usercontrollerWin32.obj
 0001:0002ec90       ?GetInputValue@UserController@@QBEMI@Z 0042fc90 f   usercontrollerWin32.obj
 0001:0002eca0       ??1UserController@@UAE@XZ  0042fca0 f   usercontrollerWin32.obj
 0001:0002ed50       ?RegisterMappable@UserController@@QAEHPAVMappable@@@Z 0042fd50 f   usercontrollerWin32.obj
 0001:0002ee00       ?UnregisterMappable@UserController@@QAEXH@Z 0042fe00 f   usercontrollerWin32.obj
 0001:0002ee30       ?UnregisterMappable@UserController@@QAEXPAVMappable@@@Z 0042fe30 f   usercontrollerWin32.obj
 0001:0002ee80       ?LoadControllerMappings@UserController@@QAEXXZ 0042fe80 f   usercontrollerWin32.obj
 0001:0002eec0       ?GetIdByName@UserController@@QBEHPBD@Z 0042fec0 f   usercontrollerWin32.obj
 0001:0002ef00       ?MapVirtualInput@UserController@@QAEXHPBD0W4eControllerType@@@Z 0042ff00 f   usercontrollerWin32.obj
 0001:0002efd0       ?RegisterVirtualInput@UserController@@IAEXHHW4eControllerType@@@Z 0042ffd0 f   usercontrollerWin32.obj
 0001:0002f120       ?HackInputPoints@UserController@@IAEXXZ 00430120 f   usercontrollerWin32.obj
 0001:0002f4c0       ?radMakeKey@@YA_KPBD_K@Z   004304c0 f i usercontrollerWin32.obj
 0001:0002f510       ?GetAIRef@StaticPhysDSG@@UAEHXZ 00430510 f i interiormanager.obj
 0001:0002f520       ?SetMirror@WorldRenderLayer@@QAEX_NPAVMatrix@RadicalMathLibrary@@@Z 00430520 f i interiormanager.obj
 0001:0002f540       ??0GagBinding@InteriorManager@@QAE@XZ 00430540 f   interiormanager.obj
 0001:0002f570       ?Clear@GagBinding@InteriorManager@@QAEXXZ 00430570 f   interiormanager.obj
 0001:0002f660       ??1GagDrawable@@UAE@XZ     00430660 f i interiormanager.obj
 0001:0002f6c0       ?GetBoundingBox@GagDrawable@@UAEXPAVBox3D@RadicalMathLibrary@@@Z 004306c0 f i interiormanager.obj
 0001:0002f720       ?GetBoundingSphere@GagDrawable@@UAEXPAVSphere@RadicalMathLibrary@@@Z 00430720 f i interiormanager.obj
 0001:0002f770       ?SetPosition@GagDrawable@@QAEX_NABVVector@RadicalMathLibrary@@@Z 00430770 f i interiormanager.obj
 0001:0002f870       ?SimUpdate@GagDrawable@@QAEXM@Z 00430870 f i interiormanager.obj
 0001:0002f910       ??_GGagDrawable@@UAEPAXI@Z 00430910 f i interiormanager.obj
 0001:0002f910       ??_EGagDrawable@@UAEPAXI@Z 00430910 f i interiormanager.obj
 0001:0002f930       ?Load@Gag@@QAEXXZ          00430930 f i interiormanager.obj
 0001:0002f9a0       ?Unload@Gag@@QAEXXZ        004309a0 f i interiormanager.obj
 0001:0002fa40       ?HandleEvent@Gag@@UAEXW4EventEnum@@PAX@Z 00430a40 f i interiormanager.obj
 0001:0002fa90       ?Update@Gag@@QAEXI@Z       00430a90 f i interiormanager.obj
 0001:0002fe70       ?PlayDialog@Gag@@IAEXI@Z   00430e70 f i interiormanager.obj
 0001:0002ff50       ?Play@Gag@@IAEXXZ          00430f50 f i interiormanager.obj
 0001:00030260       ??0Gag@@QAE@PAUGagBinding@InteriorManager@@@Z 00431260 f i interiormanager.obj
 0001:00030380       ??1Gag@@UAE@XZ             00431380 f i interiormanager.obj
 0001:00030410       ?OnLoadDataComplete@Gag@@UAEXXZ 00431410 f i interiormanager.obj
 0001:00030740       ?Trigger@Gag@@QAEXPAVEventLocator@@@Z 00431740 f i interiormanager.obj
 0001:000307a0       ?OnButtonPressed@Gag@@MAE_NPAVCharacter@@PAVSequencer@@@Z 004317a0 f i interiormanager.obj
 0001:000307b0       ??_EGag@@UAEPAXI@Z         004317b0 f i interiormanager.obj
 0001:000307b0       ??_GGag@@UAEPAXI@Z         004317b0 f i interiormanager.obj
 0001:000307d0       ??0GagDrawable@@QAE@PAVGag@@@Z 004317d0 f   interiormanager.obj
 0001:00030930       ?Display@GagDrawable@@UAEXXZ 00431930 f   interiormanager.obj
 0001:00030a80       ?OnButtonPressed@InteriorExit@@UAE_NPAVCharacter@@PAVSequencer@@@Z 00431a80 f i interiormanager.obj
 0001:00030aa0       ?CreateInstance@InteriorManager@@SAPAV1@XZ 00431aa0 f   interiormanager.obj
 0001:00030b10       ?GetInstance@InteriorManager@@SAPAV1@XZ 00431b10 f   interiormanager.obj
 0001:00030b20       ?DestroyInstance@InteriorManager@@SAXXZ 00431b20 f   interiormanager.obj
 0001:00030b40       ?OnBootupStart@InteriorManager@@QAEXXZ 00431b40 f   interiormanager.obj
 0001:00030f10       ?OnGameplayStart@InteriorManager@@QAEXXZ 00431f10 f   interiormanager.obj
 0001:00030f60       ?OnGameplayEnd@InteriorManager@@QAEXXZ 00431f60 f   interiormanager.obj
 0001:00030fb0       ?Enter@InteriorManager@@QAEXPAVInteriorEntranceLocator@@PAVCharacter@@PAVSequencer@@@Z 00431fb0 f   interiormanager.obj
 0001:000311e0       ?Update@InteriorManager@@QAEXI@Z 004321e0 f   interiormanager.obj
 0001:00031320       ?HandleEvent@InteriorManager@@UAEXW4EventEnum@@PAX@Z 00432320 f   interiormanager.obj
 0001:00031660       ?ConsoleClearGagBindings@InteriorManager@@CAXHPAPAD@Z 00432660 f   interiormanager.obj
 0001:00031680       ?ClearGagBindings@InteriorManager@@AAEXXZ 00432680 f   interiormanager.obj
 0001:000316c0       ?ConsoleAddGagBinding@InteriorManager@@CAXHPAPAD@Z 004326c0 f   interiormanager.obj
 0001:00031770       ?AddGagBinding@InteriorManager@@AAEX_KPADW4p3dCycleMode@@H1@Z 00432770 f   interiormanager.obj
 0001:00031860       ?GagBegin@InteriorManager@@AAEXPAD@Z 00432860 f   interiormanager.obj
 0001:00031880       ?GetBuildBinding@InteriorManager@@AAEPAUGagBinding@1@XZ 00432880 f   interiormanager.obj
 0001:00031890       ?GagEnd@InteriorManager@@AAEXXZ 00432890 f   interiormanager.obj
 0001:000318b0       ?ConsoleGagBegin@InteriorManager@@CAXHPAPAD@Z 004328b0 f   interiormanager.obj
 0001:000318d0       ?ConsoleGagSetInterior@InteriorManager@@CAXHPAPAD@Z 004328d0 f   interiormanager.obj
 0001:00031950       ?ConsoleGagSetCycle@InteriorManager@@CAXHPAPAD@Z 00432950 f   interiormanager.obj
 0001:00031a10       ?ConsoleGagSetWeight@InteriorManager@@CAXHPAPAD@Z 00432a10 f   interiormanager.obj
 0001:00031a40       ?ConsoleGagSetSound@InteriorManager@@CAXHPAPAD@Z 00432a40 f   interiormanager.obj
 0001:00031a90       ?ConsoleGagSetIntro@InteriorManager@@CAXHPAPAD@Z 00432a90 f   interiormanager.obj
 0001:00031ac0       ?ConsoleGagSetOutro@InteriorManager@@CAXHPAPAD@Z 00432ac0 f   interiormanager.obj
 0001:00031af0       ?ConsoleGagPlayFMV@InteriorManager@@CAXHPAPAD@Z 00432af0 f   interiormanager.obj
 0001:00031b10       ?ConsoleGagSetTrigger@InteriorManager@@CAXHPAPAD@Z 00432b10 f   interiormanager.obj
 0001:00031c20       ?ConsoleGagSetPosition@InteriorManager@@CAXHPAPAD@Z 00432c20 f   interiormanager.obj
 0001:00031cc0       ?ConsoleGagSetRandom@InteriorManager@@CAXHPAPAD@Z 00432cc0 f   interiormanager.obj
 0001:00031cf0       ?ConsoleGagSetCameraShake@InteriorManager@@CAXHPAPAD@Z 00432cf0 f   interiormanager.obj
 0001:00031dc0       ?ConsoleGagSetCoins@InteriorManager@@CAXHPAPAD@Z 00432dc0 f   interiormanager.obj
 0001:00031e20       ?ConsoleGagSetSparkle@InteriorManager@@CAXHPAPAD@Z 00432e20 f   interiormanager.obj
 0001:00031e50       ?ConsoleGagSetAnimCollision@InteriorManager@@CAXHPAPAD@Z 00432e50 f   interiormanager.obj
 0001:00031e80       ?ConsoleGagSetLoadDistances@InteriorManager@@CAXHPAPAD@Z 00432e80 f   interiormanager.obj
 0001:00031ed0       ?ConsoleGagSetSoundLoadDistances@InteriorManager@@CAXHPAPAD@Z 00432ed0 f   interiormanager.obj
 0001:00031f20       ?ConsoleGagSetPersist@InteriorManager@@CAXHPAPAD@Z 00432f20 f   interiormanager.obj
 0001:00031f70       ?ConsoleGagCheckCollCards@InteriorManager@@CAXHPAPAD@Z 00432f70 f   interiormanager.obj
 0001:000320f0       ?ConsoleGagCheckMovie@InteriorManager@@CAXHPAPAD@Z 004330f0 f   interiormanager.obj
 0001:00032230       ?ConsoleGagEnd@InteriorManager@@CAXHPAPAD@Z 00433230 f   interiormanager.obj
 0001:00032240       ??0InteriorManager@@AAE@XZ 00433240 f   interiormanager.obj
 0001:00032350       ??_GInteriorManager@@EAEPAXI@Z 00433350 f i interiormanager.obj
 0001:00032350       ??_EInteriorManager@@EAEPAXI@Z 00433350 f i interiormanager.obj
 0001:00032370       ??1InteriorExit@@UAE@XZ    00433370 f i interiormanager.obj
 0001:00032370       ??1AmbientDialogueButton@@UAE@XZ 00433370 f i character.obj
 0001:00032380       ??1InteriorManager@@EAE@XZ 00433380 f   interiormanager.obj
 0001:000323e0       ?AttemptEntry@InteriorManager@@AAEXXZ 004333e0 f   interiormanager.obj
 0001:000328a0       ?SwitchToExterior@InteriorManager@@AAEXXZ 004338a0 f   interiormanager.obj
 0001:000329e0       ?ExitInterior@InteriorManager@@AAEXXZ 004339e0 f   interiormanager.obj
 0001:00032b20       ?LoadGagNIS@InteriorManager@@AAEX_K@Z 00433b20 f   interiormanager.obj
 0001:00032d00       ?ClearGags@InteriorManager@@AAEXXZ 00433d00 f   interiormanager.obj
 0001:00032d40       ?GetExitPos@InteriorManager@@AAEXXZ 00433d40 f   interiormanager.obj
 0001:00032d90       ?find@?$@VCollisionObject@sim@@@p3d@@YAPAVCollisionObject@sim@@PAVtEntityStore@@PBD@Z 00433d90 f i interiormanager.obj
 0001:00032e00       ?find@?$@VtFrameController@@@p3d@@YAPAVtFrameController@@PAVtEntityStore@@PBD@Z 00433e00 f i interiormanager.obj
 0001:00032e70       ?find@?$@VDirectionalLocator@@@p3d@@YAPAVDirectionalLocator@@PAVtEntityStore@@PBD@Z 00433e70 f i interiormanager.obj
 0001:00032ed0       ?find@?$@VCollisionObject@sim@@@p3d@@YAPAVCollisionObject@sim@@PAVtEntityStore@@ABVtName@@@Z 00433ed0 f i interiormanager.obj
 0001:00032f60       ?find@?$@VtFrameController@@@p3d@@YAPAVtFrameController@@PAVtEntityStore@@ABVtName@@@Z 00433f60 f i interiormanager.obj
 0001:00032ff0       ?find@?$@VDirectionalLocator@@@p3d@@YAPAVDirectionalLocator@@PAVtEntityStore@@ABVtName@@@Z 00433ff0 f i interiormanager.obj
 0001:00033080       ?safe_cast@?$SafeCast@VCollisionObject@sim@@@radLoadInventory@@UAEPAUIRefCount@@PAU3@@Z 00434080 f i interiormanager.obj
 0001:000330a0       ?safe_cast@?$SafeCast@VtFrameController@@@radLoadInventory@@UAEPAUIRefCount@@PAU3@@Z 004340a0 f i interiormanager.obj
 0001:000330c0       ?safe_cast@?$SafeCast@VDirectionalLocator@@@radLoadInventory@@UAEPAUIRefCount@@PAU3@@Z 004340c0 f i interiormanager.obj
 0001:000330e0       ??_EGag@@WBE@AEPAXI@Z      004340e0 f i interiormanager.obj
 0001:000330f0       ?CheckChunkID@CameraDataLoader@@UAE_NI@Z 004340f0 f i cameradataloader.obj
 0001:00033110       ?GetChunkID@CameraDataLoader@@UAEIXZ 00434110 f i cameradataloader.obj
 0001:00033120       ??1FollowCamDataChunk@@UAE@XZ 00434120 f i cameradataloader.obj
 0001:00033130       ??_EFollowCamDataChunk@@UAEPAXI@Z 00434130 f i cameradataloader.obj
 0001:00033130       ??_GFollowCamDataChunk@@UAEPAXI@Z 00434130 f i cameradataloader.obj
 0001:00033150       ??1WalkerCamDataChunk@@UAE@XZ 00434150 f i cameradataloader.obj
 0001:00033160       ??_GWalkerCamDataChunk@@UAEPAXI@Z 00434160 f i cameradataloader.obj
 0001:00033160       ??_EWalkerCamDataChunk@@UAEPAXI@Z 00434160 f i cameradataloader.obj
 0001:00033180       ??0CameraDataLoader@@QAE@XZ 00434180 f   cameradataloader.obj
 0001:00033190       ?Load@CameraDataLoader@@UAE?AW4tLoadStatus@@PAVtChunkFile@@PAVtEntityStore@@@Z 00434190 f   cameradataloader.obj
 0001:00033400       ?Release@ConsoleFileHandler@@UAEXXZ 00434400 f i consolefilehandler.obj
 0001:00033400       ?Release@IconFileHandler@@UAEXXZ 00434400 f i iconfilehandler.obj
 0001:00033400       ?Release@CementFileHandler@@UAEXXZ 00434400 f i cementfilehandler.obj
 0001:00033400       ?Release@ChoreoFileHandler@@UAEXXZ 00434400 f i choreofilehandler.obj
 0001:00033400       ?Release@FileHandler@@UAEXXZ 00434400 f i cementfilehandler.obj
 0001:00033420       ??_EFileHandler@@UAEPAXI@Z 00434420 f i cementfilehandler.obj
 0001:00033420       ??_GFileHandler@@UAEPAXI@Z 00434420 f i cementfilehandler.obj
 0001:00033440       ??0CementFileHandler@@QAE@PAUCementLibraryStruct@LoadingManager@@@Z 00434440 f   cementfilehandler.obj
 0001:00033460       ??_GCementFileHandler@@UAEPAXI@Z 00434460 f i cementfilehandler.obj
 0001:00033460       ??_ECementFileHandler@@UAEPAXI@Z 00434460 f i cementfilehandler.obj
 0001:00033480       ??1CementFileHandler@@UAE@XZ 00434480 f   cementfilehandler.obj
 0001:00033490       ?LoadFile@CementFileHandler@@UAEXPBDPAULoadFileCallback@FileHandler@@PAXW4GameMemoryAllocator@@@Z 00434490 f   cementfilehandler.obj
 0001:000334e0       ?OnCementLibraryRegistered@CementFileHandler@@UAEXPAX@Z 004344e0 f   cementfilehandler.obj
 0001:00033500       ??0ChoreoFileHandler@@QAE@XZ 00434500 f   choreofilehandler.obj
 0001:00033530       ??_EChoreoFileHandler@@UAEPAXI@Z 00434530 f i choreofilehandler.obj
 0001:00033530       ??_GChoreoFileHandler@@UAEPAXI@Z 00434530 f i choreofilehandler.obj
 0001:00033550       ??1ChoreoFileHandler@@UAE@XZ 00434550 f   choreofilehandler.obj
 0001:00033560       ?LoadFile@ChoreoFileHandler@@UAEXPBDPAULoadFileCallback@FileHandler@@PAXW4GameMemoryAllocator@@@Z 00434560 f   choreofilehandler.obj
 0001:000335b0       ?OnFileOperationsComplete@ChoreoFileHandler@@UAEXPAX@Z 004345b0 f   choreofilehandler.obj
 0001:00033710       ?LoadFileSync@ChoreoFileHandler@@UAEXPBD@Z 00434710 f   choreofilehandler.obj
 0001:000337b0       ?SetSectionName@ChoreoFileHandler@@QAEXPBD@Z 004347b0 f   choreofilehandler.obj
 0001:000337c0       ?load@p3d@@YA_NPBD@Z       004347c0 f i choreofilehandler.obj
 0001:00033840       ??0ConsoleFileHandler@@QAE@XZ 00434840 f   consolefilehandler.obj
 0001:00033870       ??_GConsoleFileHandler@@UAEPAXI@Z 00434870 f i consolefilehandler.obj
 0001:00033870       ??_EConsoleFileHandler@@UAEPAXI@Z 00434870 f i consolefilehandler.obj
 0001:00033890       ??1ConsoleFileHandler@@UAE@XZ 00434890 f   consolefilehandler.obj
 0001:000338a0       ?LoadFile@ConsoleFileHandler@@UAEXPBDPAULoadFileCallback@FileHandler@@PAXW4GameMemoryAllocator@@@Z 004348a0 f   consolefilehandler.obj
 0001:000338f0       ?OnFileOperationsComplete@ConsoleFileHandler@@UAEXPAX@Z 004348f0 f   consolefilehandler.obj
 0001:000339a0       ?LoadFileSync@ConsoleFileHandler@@UAEXPBD@Z 004349a0 f   consolefilehandler.obj
 0001:00033a40       ?CreateFileHandler@FileHandlerFactory@@SAPAVFileHandler@@W4FileHandlerEnum@@PBD@Z 00434a40 f   filehandlerfactory.obj
 0001:00033d60       ??0IconFileHandler@@QAE@XZ 00434d60 f   iconfilehandler.obj
 0001:00033d90       ??_GIconFileHandler@@UAEPAXI@Z 00434d90 f i iconfilehandler.obj
 0001:00033d90       ??_EIconFileHandler@@UAEPAXI@Z 00434d90 f i iconfilehandler.obj
 0001:00033db0       ??1IconFileHandler@@UAE@XZ 00434db0 f   iconfilehandler.obj
 0001:00033dc0       ?LoadFile@IconFileHandler@@UAEXPBDPAULoadFileCallback@FileHandler@@PAXW4GameMemoryAllocator@@@Z 00434dc0 f   iconfilehandler.obj
 0001:00033e10       ?OnFileOperationsComplete@IconFileHandler@@UAEXPAX@Z 00434e10 f   iconfilehandler.obj
 0001:00033ea0       ?AddRef@ChoreoFileHandler@@WBA@AEXXZ 00434ea0 f i choreofilehandler.obj
 0001:00033ea0       ?AddRef@IconFileHandler@@WBA@AEXXZ 00434ea0 f i iconfilehandler.obj
 0001:00033ea0       ?AddRef@CementFileHandler@@WBA@AEXXZ 00434ea0 f i cementfilehandler.obj
 0001:00033ea0       ?AddRef@ConsoleFileHandler@@WBA@AEXXZ 00434ea0 f i consolefilehandler.obj
 0001:00033eb0       ?Release@ConsoleFileHandler@@WBA@AEXXZ 00434eb0 f i consolefilehandler.obj
 0001:00033eb0       ?Release@IconFileHandler@@WBA@AEXXZ 00434eb0 f i iconfilehandler.obj
 0001:00033eb0       ?Release@ChoreoFileHandler@@WBA@AEXXZ 00434eb0 f i choreofilehandler.obj
 0001:00033eb0       ?Release@CementFileHandler@@WBA@AEXXZ 00434eb0 f i cementfilehandler.obj
 0001:00033ec0       ??0IntersectionLoader@@QAE@XZ 00434ec0 f   intersectionloader.obj
 0001:00033ed0       ?Load@IntersectionLoader@@UAE?AW4tLoadStatus@@PAVtChunkFile@@PAVtEntityStore@@@Z 00434ed0 f   intersectionloader.obj
 0001:00033ff0       ?CheckChunkID@IntersectionLoader@@UAE_NI@Z 00434ff0 f   intersectionloader.obj
 0001:00034010       ?GetChunkID@IntersectionLoader@@UAEIXZ 00435010 f   intersectionloader.obj
 0001:00034020       ?GetInstance@LoadingManager@@SAPAV1@XZ 00435020 f   loadingmanager.obj
 0001:00034030       ?CreateInstance@LoadingManager@@SAPAV1@XZ 00435030 f   loadingmanager.obj
 0001:00034080       ?DestroyInstance@LoadingManager@@SAXXZ 00435080 f   loadingmanager.obj
 0001:000340b0       ?AddCallback@LoadingManager@@QAEXPAUProcessRequestsCallback@1@PAX@Z 004350b0 f   loadingmanager.obj
 0001:00034120       ?AddRequest@LoadingManager@@QAEXW4FileHandlerEnum@@PBDW4GameMemoryAllocator@@11PAUProcessRequestsCallback@1@PAX@Z 00435120 f   loadingmanager.obj
 0001:00034320       ?OnLoadFileComplete@LoadingManager@@EAEXPAX@Z 00435320 f   loadingmanager.obj
 0001:000343a0       ?CancelPendingRequests@LoadingManager@@QAEXXZ 004353a0 f   loadingmanager.obj
 0001:00034420       ?RegisterCementLibrary@LoadingManager@@QAEHPBD@Z 00435420 f   loadingmanager.obj
 0001:00034560       ?UnregisterCementLibrary@LoadingManager@@QAEXH@Z 00435560 f   loadingmanager.obj
 0001:00034590       ??0LoadingManager@@AAE@XZ  00435590 f   loadingmanager.obj
 0001:000345d0       ??1LoadingManager@@AAE@XZ  004355d0 f   loadingmanager.obj
 0001:00034600       ?ProcessNextRequest@LoadingManager@@AAEXXZ 00435600 f   loadingmanager.obj
 0001:000346b0       ??1IWrappedLoader@@UAE@XZ  004356b0 f i locatorloader.obj
 0001:000346c0       ??_GIWrappedLoader@@UAEPAXI@Z 004356c0 f i locatorloader.obj
 0001:000346c0       ??_EIWrappedLoader@@UAEPAXI@Z 004356c0 f i locatorloader.obj
 0001:000346e0       ?SetMatrix@EventLocator@@UAEXABVMatrix@RadicalMathLibrary@@@Z 004356e0 f i locatorloader.obj
 0001:00034700       ??0PedGroupLocator@@QAE@XZ 00435700 f i locatorloader.obj
 0001:00034730       ??1PedGroupLocator@@UAE@XZ 00435730 f i locatorloader.obj
 0001:00034750       ??_EPedGroupLocator@@UAEPAXI@Z 00435750 f i locatorloader.obj
 0001:00034750       ??_GPedGroupLocator@@UAEPAXI@Z 00435750 f i locatorloader.obj
 0001:00034770       ?SetString@ScriptLocator@@QAEXPBD@Z 00435770 f i locatorloader.obj
 0001:000347a0       ?SetSplineCurve@RailCam@@QAEXAAVSplineCurve@RadicalMathLibrary@@@Z 004357a0 f i locatorloader.obj
 0001:00034830       ??0LocatorLoader@@QAE@XZ   00435830 f   locatorloader.obj
 0001:00034860       ??_GLocatorLoader@@UAEPAXI@Z 00435860 f i locatorloader.obj
 0001:00034860       ??_ELocatorLoader@@UAEPAXI@Z 00435860 f i locatorloader.obj
 0001:00034880       ??1LocatorLoader@@UAE@XZ   00435880 f   locatorloader.obj
 0001:000348a0       ?LoadObject@LocatorLoader@@EAEPAVtEntity@@PAVtChunkFile@@PAVtEntityStore@@@Z 004358a0 f   locatorloader.obj
 0001:000355c0       ?ModRegdListener@TreeDSGLoader@@UAEXPAVChunkListenerCallback@@H@Z 004365c0 f   TreeDSGLoader.obj
 0001:000355c0       ?ModRegdListener@StaticEntityLoader@@UAEXPAVChunkListenerCallback@@H@Z 004365c0 f   StaticEntityLoader.obj
 0001:000355c0       ?ModRegdListener@LocatorLoader@@UAEXPAVChunkListenerCallback@@H@Z 004365c0 f   locatorloader.obj
 0001:000355c0       ?ModRegdListener@BillboardWrappedLoader@@UAEXPAVChunkListenerCallback@@H@Z 004365c0 f   BillboardWrappedLoader.obj
 0001:000355c0       ?ModRegdListener@InstStatPhysLoader@@UAEXPAVChunkListenerCallback@@H@Z 004365c0 f   InstStatPhysLoader.obj
 0001:000355c0       ?ModRegdListener@InstParticleSystemLoader@@UAEXPAVChunkListenerCallback@@H@Z 004365c0 f   instparticlesystemloader.obj
 0001:000355c0       ?ModRegdListener@AnimDynaPhysWrapperLoader@@UAEXPAVChunkListenerCallback@@H@Z 004365c0 f   AnimDynaPhysLoader.obj
 0001:000355c0       ?ModRegdListener@IntersectLoader@@UAEXPAVChunkListenerCallback@@H@Z 004365c0 f   IntersectLoader.obj
 0001:000355c0       ?ModRegdListener@InstStatEntityLoader@@UAEXPAVChunkListenerCallback@@H@Z 004365c0 f   InstStatEntityLoader.obj
 0001:000355c0       ?ModRegdListener@AnimDSGLoader@@UAEXPAVChunkListenerCallback@@H@Z 004365c0 f   AnimDSGLoader.obj
 0001:000355c0       ?ModRegdListener@AnimObjDSGWrapperLoader@@UAEXPAVChunkListenerCallback@@H@Z 004365c0 f   AnimDynaPhysLoader.obj
 0001:000355c0       ?ModRegdListener@AnimDynaPhysLoader@@UAEXPAVChunkListenerCallback@@H@Z 004365c0 f   AnimDynaPhysLoader.obj
 0001:000355c0       ?ModRegdListener@BreakableObjectLoader@@UAEXPAVChunkListenerCallback@@H@Z 004365c0 f   breakableobjectloader.obj
 0001:000355c0       ?ModRegdListener@WorldSphereLoader@@UAEXPAVChunkListenerCallback@@H@Z 004365c0 f   WorldSphereLoader.obj
 0001:000355c0       ?ModRegdListener@DynaPhysLoader@@UAEXPAVChunkListenerCallback@@H@Z 004365c0 f   DynaPhysLoader.obj
 0001:000355c0       ?ModRegdListener@FenceLoader@@UAEXPAVChunkListenerCallback@@H@Z 004365c0 f   FenceLoader.obj
 0001:000355c0       ?ModRegdListener@PathLoader@@UAEXPAVChunkListenerCallback@@H@Z 004365c0 f   pathloader.obj
 0001:000355c0       ?ModRegdListener@GeometryWrappedLoader@@UAEXPAVChunkListenerCallback@@H@Z 004365c0 f   GeometryWrappedLoader.obj
 0001:000355c0       ?ModRegdListener@RoadLoader@@UAEXPAVChunkListenerCallback@@H@Z 004365c0 f   roadloader.obj
 0001:000355c0       ?ModRegdListener@LensFlareLoader@@UAEXPAVChunkListenerCallback@@H@Z 004365c0 f   LensFlareLoader.obj
 0001:000355c0       ?ModRegdListener@AnimCollLoader@@UAEXPAVChunkListenerCallback@@H@Z 004365c0 f   AnimCollLoader.obj
 0001:000355c0       ?ModRegdListener@StaticPhysLoader@@UAEXPAVChunkListenerCallback@@H@Z 004365c0 f   StaticPhysLoader.obj
 0001:000355d0       ?LoadTriggerVolume@LocatorLoader@@AAE_NPAVtChunkFile@@PAVTriggerLocator@@_N@Z 004365d0 f   locatorloader.obj
 0001:00035810       ?LoadSpline@LocatorLoader@@AAEPAVRailCam@@PAVtChunkFile@@PAVSplineLocator@@@Z 00436810 f   locatorloader.obj
 0001:00035b40       ??_ELocatorLoader@@WBI@AEPAXI@Z 00436b40 f i locatorloader.obj
 0001:00035b50       ?GetString@tChunkFile@@QAEPADPAD@Z 00436b50 f i atcloader.obj
 0001:00035b50       ?GetPString@tChunkFile@@QAEPADPAD@Z 00436b50 f i locatorloader.obj
 0001:00035b80       ??0P3DFileHandler@@QAE@XZ  00436b80 f   p3dfilehandler.obj
 0001:00035bb0       ??_GP3DFileHandler@@UAEPAXI@Z 00436bb0 f i p3dfilehandler.obj
 0001:00035bb0       ??_EP3DFileHandler@@UAEPAXI@Z 00436bb0 f i p3dfilehandler.obj
 0001:00035bd0       ??1P3DFileHandler@@UAE@XZ  00436bd0 f   p3dfilehandler.obj
 0001:00035bf0       ?LoadFile@P3DFileHandler@@UAEXPBDPAULoadFileCallback@FileHandler@@PAXW4GameMemoryAllocator@@@Z 00436bf0 f   p3dfilehandler.obj
 0001:00035c70       ?Done@P3DFileHandler@@UAEXW4tLoadStatus@@PAVtLoadRequest@@@Z 00436c70 f   p3dfilehandler.obj
 0001:00035c80       ?LoadFileSync@P3DFileHandler@@UAEXPBD@Z 00436c80 f   p3dfilehandler.obj
 0001:00035d70       ?SetSectionName@P3DFileHandler@@QAEXPBD@Z 00436d70 f   p3dfilehandler.obj
 0001:00035d80       ??_EP3DFileHandler@@WBA@AEPAXI@Z 00436d80 f i p3dfilehandler.obj
 0001:00035d90       ?AddRef@P3DFileHandler@@WBA@AEXXZ 00436d90 f i p3dfilehandler.obj
 0001:00035da0       ?Release@P3DFileHandler@@WBA@AEXXZ 00436da0 f i p3dfilehandler.obj
 0001:00035db0       ?Done@Callback@tLoadRequest@@UAEXXZ 00436db0 f i p3dfilehandler.obj
 0001:00035df0       ?loadAsync@p3d@@YAPAVtLoadRequest@@PBD0PAVCallback@2@PAXI@Z 00436df0 f i p3dfilehandler.obj
 0001:00035ec0       ??0PathLoader@@QAE@XZ      00436ec0 f   pathloader.obj
 0001:00035f00       ??_GPathLoader@@UAEPAXI@Z  00436f00 f i pathloader.obj
 0001:00035f00       ??_EPathLoader@@UAEPAXI@Z  00436f00 f i pathloader.obj
 0001:00035f20       ??1PathLoader@@UAE@XZ      00436f20 f   pathloader.obj
 0001:00035f40       ?CheckChunkID@PathLoader@@UAE_NI@Z 00436f40 f   pathloader.obj
 0001:00035f60       ?Load@PathLoader@@UAE?AW4tLoadStatus@@PAVtChunkFile@@PAVtEntityStore@@@Z 00436f60 f   pathloader.obj
 0001:00036140       ??_EPathLoader@@WBI@AEPAXI@Z 00437140 f i pathloader.obj
 0001:00036150       ??0RoadDataSegmentLoader@@QAE@XZ 00437150 f   roaddatasegmentloader.obj
 0001:00036160       ?Load@RoadDataSegmentLoader@@UAE?AW4tLoadStatus@@PAVtChunkFile@@PAVtEntityStore@@@Z 00437160 f   roaddatasegmentloader.obj
 0001:000362c0       ?CheckChunkID@RoadDataSegmentLoader@@UAE_NI@Z 004372c0 f   roaddatasegmentloader.obj
 0001:000362e0       ?GetChunkID@RoadDataSegmentLoader@@UAEIXZ 004372e0 f   roaddatasegmentloader.obj
 0001:000362f0       ??0RoadLoader@@QAE@XZ      004372f0 f   roadloader.obj
 0001:00036330       ??_ERoadLoader@@UAEPAXI@Z  00437330 f i roadloader.obj
 0001:00036330       ??_GRoadLoader@@UAEPAXI@Z  00437330 f i roadloader.obj
 0001:00036350       ??1RoadLoader@@UAE@XZ      00437350 f   roadloader.obj
 0001:00036370       ?Load@RoadLoader@@UAE?AW4tLoadStatus@@PAVtChunkFile@@PAVtEntityStore@@@Z 00437370 f   roadloader.obj
 0001:00036a30       ?CheckChunkID@RoadLoader@@UAE_NI@Z 00437a30 f   roadloader.obj
 0001:00036a50       ?LoadRoadSegment@RoadLoader@@AAEPAVRoadSegment@@PAVtChunkFile@@AAI@Z 00437a50 f   roadloader.obj
 0001:00036bb0       ??1?$list@PAVRoadSegment@@V?$s2alloc@PAVRoadSegment@@@@@std@@QAE@XZ 00437bb0 f i roadloader.obj
 0001:00036bf0       ?_Buynode@?$list@PAVDialogQueueElement@@V?$s2alloc@PAVDialogQueueElement@@@@@std@@IAEPAU_Node@?$_List_nod@PAVDialogQueueElement@@V?$s2alloc@PAVDialogQueueElement@@@@@2@XZ 00437bf0 f i dialogpriorityqueue.obj
 0001:00036bf0       ?_Buynode@?$list@PAVSelectableDialog@@V?$s2alloc@PAVSelectableDialog@@@@@std@@IAEPAU_Node@?$_List_nod@PAVSelectableDialog@@V?$s2alloc@PAVSelectableDialog@@@@@2@XZ 00437bf0 f i dialoglist.obj
 0001:00036bf0       ?_Buynode@?$list@PAVRoadSegment@@V?$s2alloc@PAVRoadSegment@@@@@std@@IAEPAU_Node@?$_List_nod@PAVRoadSegment@@V?$s2alloc@PAVRoadSegment@@@@@2@XZ 00437bf0 f i roadloader.obj
 0001:00036bf0       ?_Buynode@?$list@PAUIRadControllerInputPoint@@V?$allocator@PAUIRadControllerInputPoint@@@std@@@std@@IAEPAU_Node@?$_List_nod@PAUIRadControllerInputPoint@@V?$allocator@PAUIRadControllerInputPoint@@@std@@@2@XZ 00437bf0 f i RealController.obj
 0001:00036c10       ?erase@?$list@PAVSelectableDialog@@V?$s2alloc@PAVSelectableDialog@@@@@std@@QAE?AViterator@12@V312@0@Z 00437c10 f i dialoglist.obj
 0001:00036c10       ?erase@?$list@PAUIRadControllerInputPoint@@V?$allocator@PAUIRadControllerInputPoint@@@std@@@std@@QAE?AViterator@12@V312@0@Z 00437c10 f i Gamepad.obj
 0001:00036c10       ?erase@?$list@PAVDialogQueueElement@@V?$s2alloc@PAVDialogQueueElement@@@@@std@@QAE?AViterator@12@V312@0@Z 00437c10 f i dialogpriorityqueue.obj
 0001:00036c10       ?erase@?$list@PAVRoadSegment@@V?$s2alloc@PAVRoadSegment@@@@@std@@QAE?AViterator@12@V312@0@Z 00437c10 f i roadloader.obj
 0001:00036c60       ??_ERoadLoader@@WBI@AEPAXI@Z 00437c60 f i roadloader.obj
 0001:00036c70       ??0ScroobyFileHandler@@QAE@XZ 00437c70 f   scroobyfilehandler.obj
 0001:00036ca0       ??_EScroobyFileHandler@@UAEPAXI@Z 00437ca0 f i scroobyfilehandler.obj
 0001:00036ca0       ??_GScroobyFileHandler@@UAEPAXI@Z 00437ca0 f i scroobyfilehandler.obj
 0001:00036cc0       ??1ScroobyFileHandler@@UAE@XZ 00437cc0 f   scroobyfilehandler.obj
 0001:00036cd0       ?LoadFile@ScroobyFileHandler@@UAEXPBDPAULoadFileCallback@FileHandler@@PAXW4GameMemoryAllocator@@@Z 00437cd0 f   scroobyfilehandler.obj
 0001:00036d30       ?OnProjectLoadComplete@ScroobyFileHandler@@UAEXPAVProject@Scrooby@@@Z 00437d30 f   scroobyfilehandler.obj
 0001:00036d60       ?SetSectionName@ScroobyFileHandler@@QAEXPBD@Z 00437d60 f   scroobyfilehandler.obj
 0001:00036d70       ??0SoundFileHandler@@QAE@XZ 00437d70 f   soundfilehandler.obj
 0001:00036d80       ??_GSoundFileHandler@@UAEPAXI@Z 00437d80 f i soundfilehandler.obj
 0001:00036d80       ??_ESoundFileHandler@@UAEPAXI@Z 00437d80 f i soundfilehandler.obj
 0001:00036da0       ??1SoundFileHandler@@UAE@XZ 00437da0 f   soundfilehandler.obj
 0001:00036db0       ?LoadFile@SoundFileHandler@@UAEXPBDPAULoadFileCallback@FileHandler@@PAXW4GameMemoryAllocator@@@Z 00437db0 f   soundfilehandler.obj
 0001:00036de0       ?LoadCompleted@SoundFileHandler@@QAEXXZ 00437de0 f   soundfilehandler.obj
 0001:00036df0       ?InitDefaults@CommandLineOptions@@SAXXZ 00437df0 f   commandlineoptions.obj
 0001:00036e10       ?HandleOption@CommandLineOptions@@SAXQBD@Z 00437e10 f   commandlineoptions.obj
 0001:000376d0       ?Get@CommandLineOptions@@SA_NW4CmdLineOptionEnum@@@Z 004386d0 f   commandlineoptions.obj
 0001:00037700       ?CreateInstance@Game@@SAPAV1@PAVPlatform@@@Z 00438700 f   game.obj
 0001:00037740       ?DestroyInstance@Game@@SAXXZ 00438740 f   game.obj
 0001:00037760       ?GetInstance@Game@@SAPAV1@XZ 00438760 f   game.obj
 0001:00037770       ?Initialize@Game@@QAEXXZ   00438770 f   game.obj
 0001:000377b0       ?Terminate@Game@@QAEXXZ    004387b0 f   game.obj
 0001:000377e0       ?Run@Game@@QAEXXZ          004387e0 f   game.obj
 0001:000378d0       ?Stop@Game@@QAEXXZ         004388d0 f   game.obj
 0001:000378e0       ?GetRandomSeed@Game@@SAIXZ 004388e0 f   game.obj
 0001:00037930       ??0Game@@AAE@PAVPlatform@@@Z 00438930 f   game.obj
 0001:00037950       ??_GGame@@EAEPAXI@Z        00438950 f i game.obj
 0001:00037950       ??_EGame@@EAEPAXI@Z        00438950 f i game.obj
 0001:00037970       ??1Game@@EAE@XZ            00438970 f   game.obj
 0001:00037980       ??0pddiColour@@QAE@I@Z     00438980 f i pchsrr2.obj
 0001:00037990       ?SetRed@pddiColour@@QAEXH@Z 00438990 f i pchsrr2.obj
 0001:000379b0       ?SetGreen@pddiColour@@QAEXH@Z 004389b0 f i pchsrr2.obj
 0001:000379d0       ?SetBlue@pddiColour@@QAEXH@Z 004389d0 f i pchsrr2.obj
 0001:000379e0       ?SetAlpha@pddiColour@@QAEXH@Z 004389e0 f i pchsrr2.obj
 0001:00037a00       ?Alpha@pddiColour@@QBEHXZ  00438a00 f i pchsrr2.obj
 0001:00037a10       ?Intensity@pddiColour@@QBEHXZ 00438a10 f i pchsrr2.obj
 0001:00037a40       ??4pddiColour@@QAEAAU0@ABU0@@Z 00438a40 f i pchsrr2.obj
 0001:00037a50       ??0pddiRect@@QAE@HHHH@Z    00438a50 f i pchsrr2.obj
 0001:00037a70       ?Set@pddiRect@@QAEXHHHH@Z  00438a70 f i pchsrr2.obj
 0001:00037a90       ??4pddiRect@@QAEAAV0@ABV0@@Z 00438a90 f i pchsrr2.obj
 0001:00037ac0       ?CreateSingletons@@YAXXZ   00438ac0 f   singletons.obj
 0001:00037ba0       ?DestroySingletons@@YAXXZ  00438ba0 f   singletons.obj
 0001:00037c40       _WinMain@16                00438c40 f   win32main.obj
 0001:00037e00       ?LoadMemP3DFile@@YAXPAEIPAVtEntityStore@@@Z 00438e00 f   win32platform.obj
 0001:00037e90       ?CreateInstance@Win32Platform@@SAPAV1@PAUHINSTANCE__@@0PADH@Z 00438e90 f   win32platform.obj
 0001:00037ed0       ?DestroyInstance@Win32Platform@@SAXXZ 00438ed0 f   win32platform.obj
 0001:00037ef0       ?InitializeWindow@Win32Platform@@SA_NPAUHINSTANCE__@@@Z 00438ef0 f   win32platform.obj
 0001:00038080       ?InitializeFoundation@Win32Platform@@SAXXZ 00439080 f   win32platform.obj
 0001:00038110       ?InitializeMemory@Win32Platform@@SAXXZ 00439110 f   win32platform.obj
 0001:00038140       ?ShutdownMemory@Win32Platform@@SAXXZ 00439140 f   win32platform.obj
 0001:00038160       ?InitializePlatform@Win32Platform@@UAEXXZ 00439160 f   win32platform.obj
 0001:000381f0       ?ShutdownPlatform@Win32Platform@@UAEXXZ 004391f0 f   win32platform.obj
 0001:00038200       ?DisplaySplashScreen@Win32Platform@@UAEXW4SplashScreen@Platform@@PBDMMMUpddiColour@@H@Z 00439200 f   win32platform.obj
 0001:00038560       ?OnDriveError@Win32Platform@@UAE_NW4radFileError@@PBDPAX@Z 00439560 f   win32platform.obj
 0001:00038600       ?WndProc@Win32Platform@@SGJPAUHWND__@@IIJ@Z 00439600 f   win32platform.obj
 0001:00038670       ?InitializeFoundationDrive@Win32Platform@@MAEXXZ 00439670 f   win32platform.obj
 0001:00038690       ?ShutdownFoundation@Win32Platform@@MAEXXZ 00439690 f   win32platform.obj
 0001:000386d0       ?InitializePure3D@Win32Platform@@MAEXXZ 004396d0 f   win32platform.obj
 0001:00039210       ??0tPNGHandler@@QAE@XZ     0043a210 f i win32platform.obj
 0001:00039230       ??0tBMPHandler@@QAE@XZ     0043a230 f i win32platform.obj
 0001:00039250       ??0tTargaHandler@@QAE@XZ   0043a250 f i win32platform.obj
 0001:00039270       ??1tDXTNHandler@@UAE@XZ    0043a270 f i pure3dwr:imagefactory.obj
 0001:00039270       ??1tBMPHandler@@UAE@XZ     0043a270 f i win32platform.obj
 0001:00039270       ??1tFileHandler@@MAE@XZ    0043a270 f i win32platform.obj
 0001:00039270       ??1tImageHandler@@UAE@XZ   0043a270 f i win32platform.obj
 0001:00039270       ??1tRawImageHandler@@UAE@XZ 0043a270 f i pure3dwr:imagefactory.obj
 0001:00039270       ??1tTargaHandler@@UAE@XZ   0043a270 f i win32platform.obj
 0001:00039270       ??1tPNGHandler@@UAE@XZ     0043a270 f i win32platform.obj
 0001:00039270       ??1tP3DFileHandler@@MAE@XZ 0043a270 f i pure3dwr:loadmanager.obj
 0001:00039280       ?ShutdownPure3D@Win32Platform@@MAEXXZ 0043a280 f   win32platform.obj
 0001:000392d0       ??0Win32Platform@@AAE@PAUHINSTANCE__@@0PADH@Z 0043a2d0 f   win32platform.obj
 0001:00039310       ??_EWin32Platform@@EAEPAXI@Z 0043a310 f i win32platform.obj
 0001:00039310       ??_GWin32Platform@@EAEPAXI@Z 0043a310 f i win32platform.obj
 0001:00039330       ??1Win32Platform@@EAE@XZ   0043a330 f   win32platform.obj
 0001:00039350       ?find@?$@VtTextureFont@@@p3d@@YAPAVtTextureFont@@PAVtEntityStore@@PBD@Z 0043a350 f i win32platform.obj
 0001:000393b0       ?find@?$@VtTextureFont@@@p3d@@YAPAVtTextureFont@@PAVtEntityStore@@ABVtName@@@Z 0043a3b0 f i win32platform.obj
 0001:00039440       ?safe_cast@?$SafeCast@VtTextureFont@@@radLoadInventory@@UAEPAUIRefCount@@PAU3@@Z 0043a440 f i win32platform.obj
 0001:00039460       ?GetExtension@tTargaHandler@@UAEPADXZ 0043a460 f i win32platform.obj
 0001:00039470       ?GetExtension@tBMPHandler@@UAEPADXZ 0043a470 f i win32platform.obj
 0001:00039480       ?GetFullName@tImageHandler@@UAE_NXZ 0043a480 f i win32platform.obj
 0001:00039490       ?SetFullName@tImageHandler@@UAEX_N@Z 0043a490 f i win32platform.obj
 0001:000394a0       ?GetExtension@tPNGHandler@@UAEPADXZ 0043a4a0 f i win32platform.obj
 0001:000394b0       ?CreateHeap@@YAXW4GameMemoryAllocator@@I@Z 0043a4b0 f   createheap.obj
 0001:00039550       ?DestroyHeapA@@YAXW4GameMemoryAllocator@@@Z 0043a550 f   createheap.obj
 0001:00039620       ?GetAllocator@@YAPAUIRadMemoryAllocator@@W4GameMemoryAllocator@@@Z 0043a620 f   createheap.obj
 0001:00039630       ?GetHeapReference@@YAPAPAUIRadMemoryHeap@@W4GameMemoryAllocator@@@Z 0043a630 f   createheap.obj
 0001:00039640       ?GetTotalMemoryFreeInAllHeaps@@YAIXZ 0043a640 f   createheap.obj
 0001:00039690       ??_Eout_of_range@std@@UAEPAXI@Z 0043a690 f i leakdetection.obj
 0001:00039690       ??_Glength_error@std@@UAEPAXI@Z 0043a690 f i actormanager.obj
 0001:00039690       ??_Elength_error@std@@UAEPAXI@Z 0043a690 f i actormanager.obj
 0001:00039690       ??_Elogic_error@std@@UAEPAXI@Z 0043a690 f i actormanager.obj
 0001:00039690       ??_Glogic_error@std@@UAEPAXI@Z 0043a690 f i actormanager.obj
 0001:00039690       ??_Gout_of_range@std@@UAEPAXI@Z 0043a690 f i leakdetection.obj
 0001:000396b0       ??1?$map@PAXIU?$less@PAX@std@@V?$s2alloc@U?$pair@QAXI@std@@@@@std@@QAE@XZ 0043a6b0 f i leakdetection.obj
 0001:000396e0       ??0?$map@PAXIU?$less@PAX@std@@V?$s2alloc@U?$pair@QAXI@std@@@@@std@@QAE@XZ 0043a6e0 f i leakdetection.obj
 0001:00039710       ?erase@?$_Tree@V?$_Tmap_traits@PAXIU?$less@PAX@std@@V?$s2alloc@U?$pair@QAXI@std@@@@$0A@@std@@@std@@QAE?AViterator@12@V312@@Z 0043a710 f i leakdetection.obj
 0001:000399e0       ??0out_of_range@std@@QAE@ABV01@@Z 0043a9e0 f i leakdetection.obj
 0001:00039a00       ?_Erase@?$_Tree@V?$_Tmap_traits@PAXIU?$less@PAX@std@@V?$s2alloc@U?$pair@QAXI@std@@@@$0A@@std@@@std@@IAEXPAU_Node@?$_Tree_nod@V?$_Tmap_traits@PAXIU?$less@PAX@std@@V?$s2alloc@U?$pair@QAXI@std@@@@$0A@@std@@@2@@Z 0043aa00 f i leakdetection.obj
 0001:00039a40       ?_Lrotate@?$_Tree@V?$_Tmap_traits@PAXIU?$less@PAX@std@@V?$s2alloc@U?$pair@QAXI@std@@@@$0A@@std@@@std@@IAEXPAU_Node@?$_Tree_nod@V?$_Tmap_traits@PAXIU?$less@PAX@std@@V?$s2alloc@U?$pair@QAXI@std@@@@$0A@@std@@@2@@Z 0043aa40 f i leakdetection.obj
 0001:00039aa0       ?_Max@?$_Tree@V?$_Tmap_traits@PAXIU?$less@PAX@std@@V?$s2alloc@U?$pair@QAXI@std@@@@$0A@@std@@@std@@KAPAU_Node@?$_Tree_nod@V?$_Tmap_traits@PAXIU?$less@PAX@std@@V?$s2alloc@U?$pair@QAXI@std@@@@$0A@@std@@@2@PAU342@@Z 0043aaa0 f i leakdetection.obj
 0001:00039ac0       ?_Min@?$_Tree@V?$_Tmap_traits@PAXIU?$less@PAX@std@@V?$s2alloc@U?$pair@QAXI@std@@@@$0A@@std@@@std@@KAPAU_Node@?$_Tree_nod@V?$_Tmap_traits@PAXIU?$less@PAX@std@@V?$s2alloc@U?$pair@QAXI@std@@@@$0A@@std@@@2@PAU342@@Z 0043aac0 f i leakdetection.obj
 0001:00039ae0       ?_Rrotate@?$_Tree@V?$_Tmap_traits@PAXIU?$less@PAX@std@@V?$s2alloc@U?$pair@QAXI@std@@@@$0A@@std@@@std@@IAEXPAU_Node@?$_Tree_nod@V?$_Tmap_traits@PAXIU?$less@PAX@std@@V?$s2alloc@U?$pair@QAXI@std@@@@$0A@@std@@@2@@Z 0043aae0 f i leakdetection.obj
 0001:00039b40       ?_Inc@const_iterator@?$_Tree@V?$_Tmap_traits@PAXIU?$less@PAX@std@@V?$s2alloc@U?$pair@QAXI@std@@@@$0A@@std@@@std@@QAEXXZ 0043ab40 f i leakdetection.obj
 0001:00039ba0       ?erase@?$_Tree@V?$_Tmap_traits@PAXIU?$less@PAX@std@@V?$s2alloc@U?$pair@QAXI@std@@@@$0A@@std@@@std@@QAE?AViterator@12@V312@0@Z 0043aba0 f i leakdetection.obj
 0001:00039c20       ?_Buynode@?$_Tree@V?$_Tmap_traits@PAXIU?$less@PAX@std@@V?$s2alloc@U?$pair@QAXI@std@@@@$0A@@std@@@std@@IAEPAU_Node@?$_Tree_nod@V?$_Tmap_traits@PAXIU?$less@PAX@std@@V?$s2alloc@U?$pair@QAXI@std@@@@$0A@@std@@@2@XZ 0043ac20 f i leakdetection.obj
 0001:00039c60       ??0FBMemoryPool@@QAE@IHW4GameMemoryAllocator@@@Z 0043ac60 f   memorypool.obj
 0001:00039c90       ?Allocate@FBMemoryPool@@QAEPAXI@Z 0043ac90 f   memorypool.obj
 0001:00039d00       ?Free@FBMemoryPool@@QAEXPAXI@Z 0043ad00 f   memorypool.obj
 0001:00039d60       ?InitializeMemoryUtilities@Memory@@YAXXZ 0043ad60 f   memoryutilities.obj
 0001:00039d70       ?GetLargestFreeBlock@Memory@@YAIPAUIRadMemoryAllocator@@@Z 0043ad70 f   memoryutilities.obj
 0001:00039e00       ?GetTotalMemoryFree@Memory@@YAIXZ 0043ae00 f   memoryutilities.obj
 0001:00039e20       ?GetTotalMemoryFreeLowWaterMark@Memory@@YAIXZ 0043ae20 f   memoryutilities.obj
 0001:00039e60       ?PrintMemoryStatsToTty@Memory@@YAXXZ 0043ae60 f   memoryutilities.obj
 0001:00039e80       ??2@YAPAXI@Z               0043ae80 f   srrmemory.obj
 0001:00039e80       ??_U@YAPAXI@Z              0043ae80 f   srrmemory.obj
 0001:00039ee0       ??3@YAXPAX@Z               0043aee0 f   srrmemory.obj
 0001:00039ee0       ??_V@YAXPAX@Z              0043aee0 f   srrmemory.obj
 0001:00039ef0       ??_U@YAPAXIW4GameMemoryAllocator@@@Z 0043aef0 f   srrmemory.obj
 0001:00039ef0       ??2@YAPAXIW4GameMemoryAllocator@@@Z 0043aef0 f   srrmemory.obj
 0001:00039f30       ??3@YAXPAXW4GameMemoryAllocator@@@Z 0043af30 f   srrmemory.obj
 0001:00039f30       ??_V@YAXPAXW4GameMemoryAllocator@@@Z 0043af30 f   srrmemory.obj
 0001:00039f40       ?FindFreeMemory@@YAPAXW4GameMemoryAllocator@@I@Z 0043af40 f   srrmemory.obj
 0001:00039f90       ?SetupAllocatorSearch@@YAXW4GameMemoryAllocator@@@Z 0043af90 f   srrmemory.obj
 0001:00039fe0       ?PrintOutOfMemoryMessage@@YAXPAXHI@Z 0043afe0 f   srrmemory.obj
 0001:0003a200       ??0HeapStack@@QAE@W4GameMemoryAllocator@@@Z 0043b200 f   srrmemory.obj
 0001:0003a250       ??_GHeapStack@@UAEPAXI@Z   0043b250 f i srrmemory.obj
 0001:0003a250       ??_EHeapStack@@UAEPAXI@Z   0043b250 f i srrmemory.obj
 0001:0003a270       ??1HeapStack@@UAE@XZ       0043b270 f   srrmemory.obj
 0001:0003a290       ?Push@HeapStack@@QAEXW4GameMemoryAllocator@@@Z 0043b290 f   srrmemory.obj
 0001:0003a2d0       ?Pop@HeapStack@@QAEXW4GameMemoryAllocator@@@Z 0043b2d0 f   srrmemory.obj
 0001:0003a2f0       ?SetTop@HeapStack@@QAEXW4GameMemoryAllocator@@@Z 0043b2f0 f   srrmemory.obj
 0001:0003a300       ?Top@HeapStack@@QBE?AW4GameMemoryAllocator@@XZ 0043b300 f   srrmemory.obj
 0001:0003a310       ??0HeapActivityTracker@@QAE@XZ 0043b310 f   srrmemory.obj
 0001:0003a330       ?GetInstance@HeapManager@@SAPAV1@XZ 0043b330 f   srrmemory.obj
 0001:0003a400       ??0HeapManager@@AAE@W4GameMemoryAllocator@@@Z 0043b400 f   srrmemory.obj
 0001:0003a430       ??_EHeapManager@@EAEPAXI@Z 0043b430 f i srrmemory.obj
 0001:0003a430       ??_GHeapManager@@EAEPAXI@Z 0043b430 f i srrmemory.obj
 0001:0003a450       ??1HeapManager@@EAE@XZ     0043b450 f   srrmemory.obj
 0001:0003a510       ?GetFudgeFactor@HeapManager@@CAMXZ 0043b510 f   srrmemory.obj
 0001:0003a530       ?PushHeap@HeapManager@@QAEXW4GameMemoryAllocator@@@Z 0043b530 f   srrmemory.obj
 0001:0003a540       ?PopHeap@HeapManager@@QAEXW4GameMemoryAllocator@@@Z 0043b540 f   srrmemory.obj
 0001:0003a550       ?GetCurrentHeap@HeapManager@@QBE?AW4GameMemoryAllocator@@XZ 0043b550 f   srrmemory.obj
 0001:0003a560       ?GetCurrentAllocator@HeapManager@@UAEHXZ 0043b560 f   srrmemory.obj
 0001:0003a570       ?SetCurrentAllocator@HeapManager@@UAEHH@Z 0043b570 f   srrmemory.obj
 0001:0003a5a0       ?DumpHeapStats@HeapManager@@QAEXXZ 0043b5a0 f   srrmemory.obj
 0001:0003ab20       ?ResetArtStats@HeapManager@@QAEXXZ 0043bb20 f   srrmemory.obj
 0001:0003ab40       ?DumpArtStats@HeapManager@@QAEXXZ 0043bb40 f   srrmemory.obj
 0001:0003ae50       ?PrepareHeapsStartup@HeapManager@@QAEXXZ 0043be50 f   srrmemory.obj
 0001:0003aed0       ?PrepareHeapsFE@HeapManager@@QAEXXZ 0043bed0 f   srrmemory.obj
 0001:0003af80       ?PrepareHeapsInGame@HeapManager@@QAEXXZ 0043bf80 f   srrmemory.obj
 0001:0003b040       ?PrepareHeapsSuperSprint@HeapManager@@QAEXXZ 0043c040 f   srrmemory.obj
 0001:0003b120       ?HeapMgr@@YAPAVHeapManager@@XZ 0043c120 f   srrmemory.obj
 0001:0003b130       ??0AnimatedIcon@@QAE@XZ    0043c130 f   animatedicon.obj
 0001:0003b160       ??1AnimatedIcon@@UAE@XZ    0043c160 f   animatedicon.obj
 0001:0003b170       ?Init@AnimatedIcon@@QAEXPBDABVMatrix@RadicalMathLibrary@@_N2@Z 0043c170 f   animatedicon.obj
 0001:0003b270       ?Init@AnimatedIcon@@QAEXPBDABVVector@RadicalMathLibrary@@_N2@Z 0043c270 f   animatedicon.obj
 0001:0003b380       ?ScaleByCameraDistance@AnimatedIcon@@QAEXMMMM@Z 0043c380 f   animatedicon.obj
 0001:0003b490       ?Move@AnimatedIcon@@QAEXABVVector@RadicalMathLibrary@@@Z 0043c490 f   animatedicon.obj
 0001:0003b540       ?Update@AnimatedIcon@@QAEXI@Z 0043c540 f   animatedicon.obj
 0001:0003b610       ?Reset@AnimatedIcon@@QAEXXZ 0043c610 f   animatedicon.obj
 0001:0003b620       ?ShouldRender@AnimatedIcon@@QAEX_N@Z 0043c620 f   animatedicon.obj
 0001:0003b6a0       ??2AnimatedIcon@@SAPAXI@Z  0043c6a0 f   animatedicon.obj
 0001:0003b6f0       ??2AnimatedIcon@@SAPAXIW4GameMemoryAllocator@@@Z 0043c6f0 f   animatedicon.obj
 0001:0003b710       ??3AnimatedIcon@@SAXPAX@Z  0043c710 f   animatedicon.obj
 0001:0003b740       ?InitAnimatedIcons@AnimatedIcon@@SAXW4GameMemoryAllocator@@@Z 0043c740 f   animatedicon.obj
 0001:0003b7f0       ??_EAnimatedIcon@@UAEPAXI@Z 0043c7f0 f i animatedicon.obj
 0001:0003b850       ?ShutdownAnimatedIcons@AnimatedIcon@@SAXXZ 0043c850 f   animatedicon.obj
 0001:0003b890       ?GetFlag@AnimatedIcon@@ABE_NW4Flag@1@@Z 0043c890 f   animatedicon.obj
 0001:0003b8b0       ?Deallocate@AnimatedIcon@@AAEXXZ 0043c8b0 f   animatedicon.obj
 0001:0003b930       ?SetUpContents@AnimatedIcon@@AAEXPBD@Z 0043c930 f   animatedicon.obj
 0001:0003bab0       ?SetUpEffects@AnimatedIcon@@AAEXXZ 0043cab0 f   animatedicon.obj
 0001:0003bb50       ?find@?$@VtMultiController@@@p3d@@YAPAVtMultiController@@PAVtEntityStore@@PBD@Z 0043cb50 f i animatedicon.obj
 0001:0003bbc0       ?GetNumDrawableElement@tCompositeDrawable@@QBEHXZ 0043cbc0 f i animatedicon.obj
 0001:0003bbe0       ??0BonusMissionInfo@@QAE@XZ 0043cbe0 f   bonusmissioninfo.obj
 0001:0003bc50       ??_GBonusMissionInfo@@UAEPAXI@Z 0043cc50 f i bonusmissioninfo.obj
 0001:0003bc50       ??_EBonusMissionInfo@@UAEPAXI@Z 0043cc50 f i bonusmissioninfo.obj
 0001:0003bc70       ??1BonusMissionInfo@@UAE@XZ 0043cc70 f   bonusmissioninfo.obj
 0001:0003bd00       ?SetUpIcon@BonusMissionInfo@@QAEXPBDVVector@RadicalMathLibrary@@@Z 0043cd00 f   bonusmissioninfo.obj
 0001:0003bdd0       ?SetUpAlternateIcon@BonusMissionInfo@@QAEXPBDVVector@RadicalMathLibrary@@@Z 0043cdd0 f   bonusmissioninfo.obj
 0001:0003be10       ?SetPositions@BonusMissionInfo@@QAEXPAVCarStartLocator@@00@Z 0043ce10 f   bonusmissioninfo.obj
 0001:0003be70       ?CleanUp@BonusMissionInfo@@QAEXXZ 0043ce70 f   bonusmissioninfo.obj
 0001:0003bf00       ?Update@BonusMissionInfo@@QAEXI@Z 0043cf00 f   bonusmissioninfo.obj
 0001:0003bfc0       ?Enable@BonusMissionInfo@@QAEXXZ 0043cfc0 f   bonusmissioninfo.obj
 0001:0003c020       ?Disable@BonusMissionInfo@@QAEXXZ 0043d020 f   bonusmissioninfo.obj
 0001:0003c060       ?TriggerDialogue@BonusMissionInfo@@QAEXXZ 0043d060 f   bonusmissioninfo.obj
 0001:0003c270       ?SetNPC@BonusMissionInfo@@QAEXPAVCharacter@@@Z 0043d270 f   bonusmissioninfo.obj
 0001:0003c290       ?ResetCharacterPositions@BonusMissionInfo@@QAEXXZ 0043d290 f   bonusmissioninfo.obj
 0001:0003c390       ?OnPresentationEventEnd@GameplayManager@@MAEXPAVPresentationEvent@@@Z 0043d390 f i gameplaymanager.obj
 0001:0003c3a0       ?GetInstance@GameplayManager@@SAPAV1@XZ 0043d3a0 f   gameplaymanager.obj
 0001:0003c3b0       ?SetInstance@GameplayManager@@SAXPAV1@@Z 0043d3b0 f   gameplaymanager.obj
 0001:0003c3c0       ??0GameplayManager@@IAE@XZ 0043d3c0 f   gameplaymanager.obj
 0001:0003c5f0       ??_GGameplayManager@@MAEPAXI@Z 0043d5f0 f i gameplaymanager.obj
 0001:0003c5f0       ??_EGameplayManager@@MAEPAXI@Z 0043d5f0 f i gameplaymanager.obj
 0001:0003c610       ??1GameplayManager@@MAE@XZ 0043d610 f   gameplaymanager.obj
 0001:0003c670       ?LevelLoaded@GameplayManager@@UAEXXZ 0043d670 f   gameplaymanager.obj
 0001:0003c6c0       ?SetLevelIndex@GameplayManager@@UAEXW4LevelEnum@RenderEnums@@@Z 0043d6c0 f   gameplaymanager.obj
 0001:0003c6e0       ?SetMissionIndex@GameplayManager@@UAEXW4MissionEnum@RenderEnums@@@Z 0043d6e0 f   gameplaymanager.obj
 0001:0003c6f0       ?TestPosInFrustrumOfPlayer@GameplayManager@@QAE_NABVVector@RadicalMathLibrary@@H@Z 0043d6f0 f   gameplaymanager.obj
 0001:0003c760       ?ContinueGameplay@GameplayManager@@QAEXXZ 0043d760 f   gameplaymanager.obj
 0001:0003c850       ?Update@GameplayManager@@UAEXH@Z 0043d850 f   gameplaymanager.obj
 0001:0003c9b0       ?PlaceCharacterAtLocator@GameplayManager@@QAEXPAVCharacter@@PAVLocator@@@Z 0043d9b0 f   gameplaymanager.obj
 0001:0003ca10       ?PlaceVehicleAtLocator@GameplayManager@@QAEXPAVVehicle@@PAVCarStartLocator@@@Z 0043da10 f   gameplaymanager.obj
 0001:0003ca60       ?PlaceVehicleAtLocation@GameplayManager@@QAEXPAVVehicle@@VVector@RadicalMathLibrary@@M@Z 0043da60 f   gameplaymanager.obj
 0001:0003ca90       ?PlaceVehicleAtLocatorName@GameplayManager@@QAEXPAVVehicle@@PBD@Z 0043da90 f   gameplaymanager.obj
 0001:0003cb10       ?AddLevelVehicle@GameplayManager@@QAEPAVVehicle@@PADW4eCarSlots@1@0@Z 0043db10 f   gameplaymanager.obj
 0001:0003cc70       ?RemoveLevelVehicleController@GameplayManager@@IAEXXZ 0043dc70 f   gameplaymanager.obj
 0001:0003cca0       ?PauseForIrisClose@GameplayManager@@QAEXM@Z 0043dca0 f   gameplaymanager.obj
 0001:0003cd10       ?PauseForIrisOpen@GameplayManager@@QAEXM@Z 0043dd10 f   gameplaymanager.obj
 0001:0003cd90       ?PauseForFadeToBlack@GameplayManager@@QAEXM@Z 0043dd90 f   gameplaymanager.obj
 0001:0003cde0       ?PauseForFadeFromBlack@GameplayManager@@QAEXM@Z 0043dde0 f   gameplaymanager.obj
 0001:0003ce30       ?AddMissionVehicle@GameplayManager@@QAEPAVVehicle@@PAD00@Z 0043de30 f   gameplaymanager.obj
 0001:0003d050       ?EmptyMissionVehicleSlots@GameplayManager@@QAEXXZ 0043e050 f   gameplaymanager.obj
 0001:0003d180       ?GetMissionVehicleByName@GameplayManager@@QAEPAVVehicle@@PBD@Z 0043e180 f   gameplaymanager.obj
 0001:0003d1f0       ?GetUserVehicleByName@GameplayManager@@QAEPAVVehicle@@PBD@Z 0043e1f0 f   gameplaymanager.obj
 0001:0003d2b0       ?GetMissionVehicleIndex@GameplayManager@@QAEHPAVVehicle@@@Z 0043e2b0 f   gameplaymanager.obj
 0001:0003d2f0       ?RepairVehicle@GameplayManager@@IAEXPAUCarDataStruct@1@@Z 0043e2f0 f   gameplaymanager.obj
 0001:0003d420       ?HandleEvent@GameplayManager@@UAEXW4EventEnum@@PAX@Z 0043e420 f   gameplaymanager.obj
 0001:0003d9e0       ?GetCurrentVehicle@GameplayManager@@QAEPAVVehicle@@XZ 0043e9e0 f   gameplaymanager.obj
 0001:0003d9f0       ?SetCurrentVehicle@GameplayManager@@QAEXPAVVehicle@@@Z 0043e9f0 f   gameplaymanager.obj
 0001:0003dac0       ?DumpCurrentCar@GameplayManager@@QAEXXZ 0043eac0 f   gameplaymanager.obj
 0001:0003db30       ?MakeSureHusksAreReverted@GameplayManager@@QAEXPAVVehicle@@@Z 0043eb30 f   gameplaymanager.obj
 0001:0003dc20       ?ClearVehicleSlot@GameplayManager@@QAEXW4eCarSlots@1@@Z 0043ec20 f   gameplaymanager.obj
 0001:0003dd60       ?CopyVehicleSlot@GameplayManager@@QAEXW4eCarSlots@1@0@Z 0043ed60 f   gameplaymanager.obj
 0001:0003ddf0       ?GetVehicleSlotFilename@GameplayManager@@QAEPADW4eCarSlots@1@@Z 0043edf0 f   gameplaymanager.obj
 0001:0003de00       ?GetVehicleSlotVehicleName@GameplayManager@@QAEPADW4eCarSlots@1@@Z 0043ee00 f   gameplaymanager.obj
 0001:0003de10       ?GetVehicleInSlot@GameplayManager@@QAEPAVVehicle@@W4eCarSlots@1@@Z 0043ee10 f   gameplaymanager.obj
 0001:0003de20       ?SetBonusMissionInfo@GameplayManager@@QAEXPBD000_N01@Z 0043ee20 f   gameplaymanager.obj
 0001:0003e0c0       ?Initialize@GameplayManager@@UAEXXZ 0043f0c0 f   gameplaymanager.obj
 0001:0003e1c0       ?Finalize@GameplayManager@@UAEXXZ 0043f1c0 f   gameplaymanager.obj
 0001:0003e320       ?SetCurrentMission@GameplayManager@@IAEXH@Z 0043f320 f   gameplaymanager.obj
 0001:0003e4b0       ?NextMission@GameplayManager@@QAEXXZ 0043f4b0 f   gameplaymanager.obj
 0001:0003e4c0       ?PrevMission@GameplayManager@@QAEXXZ 0043f4c0 f   gameplaymanager.obj
 0001:0003e4d0       ?DoNextMission@GameplayManager@@AAEXXZ 0043f4d0 f   gameplaymanager.obj
 0001:0003e570       ?DoPrevMission@GameplayManager@@AAEXXZ 0043f570 f   gameplaymanager.obj
 0001:0003e5a0       ?GetCurrentMission@GameplayManager@@UAEPAVMission@@XZ 0043f5a0 f   gameplaymanager.obj
 0001:0003e5e0       ?GetCurrentBonusMissionInfo@GameplayManager@@QBEPBVBonusMissionInfo@@XZ 0043f5e0 f   gameplaymanager.obj
 0001:0003e600       ?GetBonusMissionInfo@GameplayManager@@QAEPAVBonusMissionInfo@@H@Z 0043f600 f   gameplaymanager.obj
 0001:0003e620       ?GetMissionHeap@GameplayManager@@QAE?AW4GameMemoryAllocator@@H@Z 0043f620 f   gameplaymanager.obj
 0001:0003e630       ?GetCurrentMissionNum@GameplayManager@@QBEHXZ 0043f630 f   gameplaymanager.obj
 0001:0003e650       ?EnablePhoneBooths@GameplayManager@@QAEXXZ 0043f650 f   gameplaymanager.obj
 0001:0003e660       ?DisablePhoneBooths@GameplayManager@@QAEXXZ 0043f660 f   gameplaymanager.obj
 0001:0003e670       ?QueryPhoneBoothsEnabled@GameplayManager@@QAE_NXZ 0043f670 f   gameplaymanager.obj
 0001:0003e680       ?CreateChaseManager@GameplayManager@@QAEHPAD0H@Z 0043f680 f   gameplaymanager.obj
 0001:0003e7a0       ?GetChaseManager@GameplayManager@@QAEPAVChaseManager@@PAD@Z 0043f7a0 f   gameplaymanager.obj
 0001:0003e810       ?GetChaseManager@GameplayManager@@QAEPAVChaseManager@@H@Z 0043f810 f   gameplaymanager.obj
 0001:0003e830       ?GetMissionNumByName@GameplayManager@@QAEHPBD@Z 0043f830 f   gameplaymanager.obj
 0001:0003e8b0       ?KillAllChaseManagers@GameplayManager@@QAEXXZ 0043f8b0 f   gameplaymanager.obj
 0001:0003e8f0       ?EnableBonusMissions@GameplayManager@@QAEXXZ 0043f8f0 f   gameplaymanager.obj
 0001:0003e930       ?DisableBonusMissions@GameplayManager@@QAEXXZ 0043f930 f   gameplaymanager.obj
 0001:0003e970       ?ClearAllChaseCars@GameplayManager@@QAEXXZ 0043f970 f   gameplaymanager.obj
 0001:0003e980       ?DisableAllChaseAI@GameplayManager@@QAEXXZ 0043f980 f   gameplaymanager.obj
 0001:0003e990       ?EnableAllChaseAI@GameplayManager@@QAEXXZ 0043f990 f   gameplaymanager.obj
 0001:0003e9a0       ?GetGameType@GameplayManager@@QAE?AW4GameTypeEnum@1@XZ 0043f9a0 f   gameplaymanager.obj
 0001:0003e9b0       ?GetControllerColour@GameplayManager@@QAE?AUpddiColour@@H@Z 0043f9b0 f   gameplaymanager.obj
 0001:0003ea10       ?GetRespawnManager@GameplayManager@@QAEPAVRespawnManager@@XZ 0043fa10 f   gameplaymanager.obj
 0001:0003ea20       ?SetPostLevelFMV@GameplayManager@@QAEXPBD@Z 0043fa20 f   gameplaymanager.obj
 0001:0003ea60       ?AddToVDU@GameplayManager@@AAEHPAVVehicle@@@Z 0043fa60 f   gameplaymanager.obj
 0001:0003eaa0       ?UpdateVDU@GameplayManager@@AAEHXZ 0043faa0 f   gameplaymanager.obj
 0001:0003eb20       ?MDKVDU@GameplayManager@@QAEHXZ 0043fb20 f   gameplaymanager.obj
 0001:0003eb70       ?ReleaseFromVDU@GameplayManager@@AAEPAVVehicle@@PAD@Z 0043fb70 f   gameplaymanager.obj
 0001:0003ec10       ??0Mission@@QAE@XZ         0043fc10 f   mission.obj
 0001:0003ecf0       ??_GMission@@UAEPAXI@Z     0043fcf0 f i mission.obj
 0001:0003ecf0       ??_EMission@@UAEPAXI@Z     0043fcf0 f i mission.obj
 0001:0003ed10       ??1Mission@@UAE@XZ         0043fd10 f   mission.obj
 0001:0003ee20       ?Initialize@Mission@@UAEXW4GameMemoryAllocator@@@Z 0043fe20 f   mission.obj
 0001:0003efe0       ?Finalize@Mission@@UAEXXZ  0043ffe0 f   mission.obj
 0001:0003f330       ?SetToStage@Mission@@QAEXH_N@Z 00440330 f   mission.obj
 0001:0003f470       ?NextStage@Mission@@UAEXXZ 00440470 f   mission.obj
 0001:0003f490       ?PrevStage@Mission@@UAEXXZ 00440490 f   mission.obj
 0001:0003f4c0       ?ResetStage@Mission@@QAEXXZ 004404c0 f   mission.obj
 0001:0003f4d0       ?HandleEvent@Mission@@UAEXW4EventEnum@@PAX@Z 004404d0 f   mission.obj
 0001:0003f580       ?Update@Mission@@QAEXI@Z   00440580 f   mission.obj
 0001:0003f990       ?IsComplete@Mission@@QAE_NXZ 00440990 f   mission.obj
 0001:0003f9a0       ?SetRestartDynaload@Mission@@QAEXPBD0@Z 004409a0 f   mission.obj
 0001:0003fab0       ?AddBonusObjective@Mission@@QAEXPAVBonusObjective@@@Z 00440ab0 f   mission.obj
 0001:0003fad0       ?StartBonusObjectives@Mission@@QAEXXZ 00440ad0 f   mission.obj
 0001:0003fb10       ?SetForcedCar@Mission@@QAEX_N@Z 00440b10 f   mission.obj
 0001:0003fb20       ?SetMissionTime@Mission@@QAEXH@Z 00440b20 f   mission.obj
 0001:0003fb30       ?CreateStatePropCollectible@Mission@@QAEXPBD0H@Z 00440b30 f   mission.obj
 0001:0003fce0       ?AttachStatePropCollectible@Mission@@QAEXPBD0H@Z 00440ce0 f   mission.obj
 0001:0003fe30       ?Reset@Mission@@QAEX_N@Z   00440e30 f   mission.obj
 0001:0003ff20       ?ResetPlayer@Mission@@QAEXXZ 00440f20 f   mission.obj
 0001:00040010       ?InitDynaLoad@Mission@@QAEXXZ 00441010 f   mission.obj
 0001:00040030       ?DialogueCharactersTeleported@Mission@@QAE_NXZ 00441030 f   mission.obj
 0001:00040060       ?GetCurrentStage@Mission@@QAEPAVMissionStage@@XZ 00441060 f   mission.obj
 0001:00040080       ?GetMissionTimeLeftInSeconds@Mission@@QAEHXZ 00441080 f   mission.obj
 0001:000400a0       ?GetMissionTimeLeftInMilliSeconds@Mission@@QAEHXZ 004410a0 f   mission.obj
 0001:000400b0       ?SetBonusMission@Mission@@QAEXXZ 004410b0 f   mission.obj
 0001:000400c0       ?IsBonusMission@Mission@@QAE_NXZ 004410c0 f   mission.obj
 0001:000400e0       ?IsRaceMission@Mission@@QAE_NXZ 004410e0 f   mission.obj
 0001:00040100       ?IsWagerMission@Mission@@QAE_NXZ 00441100 f   mission.obj
 0001:00040120       ?UnlockStage@Mission@@AAE_NPAVMissionStage@@@Z 00441120 f   mission.obj
 0001:000401f0       ?LoadStreetRaceProps@Mission@@QAEXPBD@Z 004411f0 f   mission.obj
 0001:000402e0       ?UnloadStreetRaceProps@Mission@@QAEXPBD@Z 004412e0 f   mission.obj
 0001:000403d0       ?SetupStageChange@Mission@@AAEXXZ 004413d0 f   mission.obj
 0001:000403f0       ?DoStageChange@Mission@@AAEXXZ 004413f0 f   mission.obj
 0001:00040540       ?SetSwappedCarsFlag@Mission@@QAEX_N@Z 00441540 f   mission.obj
 0001:00040550       ?GetSwappedCarsFlag@Mission@@QAE_NXZ 00441550 f   mission.obj
 0001:00040560       ?InitStreetRacePropLoad@Mission@@QAEXXZ 00441560 f   mission.obj
 0001:000405a0       ?InitStreetRacePropUnload@Mission@@QAEXXZ 004415a0 f   mission.obj
 0001:000405e0       ?IsSundayDrive@MissionManager@@UAE_NXZ 004415e0 f i missionmanager.obj
 0001:00040610       ?GetInstance@MissionManager@@SAPAV1@XZ 00441610 f   missionmanager.obj
 0001:00040620       ?CreateInstance@MissionManager@@SAPAV1@XZ 00441620 f   missionmanager.obj
 0001:00040690       ?DestroyInstance@MissionManager@@SAXXZ 00441690 f   missionmanager.obj
 0001:000406b0       ??0MissionManager@@IAE@XZ  004416b0 f   missionmanager.obj
 0001:00040720       ??_GMissionManager@@MAEPAXI@Z 00441720 f i missionmanager.obj
 0001:00040720       ??_EMissionManager@@MAEPAXI@Z 00441720 f i missionmanager.obj
 0001:00040740       ??1MissionManager@@MAE@XZ  00441740 f   missionmanager.obj
 0001:000407b0       ?Initialize@MissionManager@@UAEXXZ 004417b0 f   missionmanager.obj
 0001:00040840       ?Finalize@MissionManager@@UAEXXZ 00441840 f   missionmanager.obj
 0001:00040870       ?Update@MissionManager@@UAEXH@Z 00441870 f   missionmanager.obj
 0001:00040a40       ?Reset@MissionManager@@UAEXXZ 00441a40 f   missionmanager.obj
 0001:00040aa0       ?HandleEvent@MissionManager@@UAEXW4EventEnum@@PAX@Z 00441aa0 f   missionmanager.obj
 0001:00040ba0       ?PerformLoading@MissionManager@@UAEXXZ 00441ba0 f   missionmanager.obj
 0001:00040f70       ?RestartCurrentMission@MissionManager@@UAEXXZ 00441f70 f   missionmanager.obj
 0001:00040fb0       ?RestartToMission@MissionManager@@UAEXW4MissionEnum@RenderEnums@@@Z 00441fb0 f   missionmanager.obj
 0001:00041000       ?AbortCurrentMission@MissionManager@@UAEXXZ 00442000 f   missionmanager.obj
 0001:00041030       ?LoadLevelData@MissionManager@@UAEXXZ 00442030 f   missionmanager.obj
 0001:00041120       ?InitLevelData@MissionManager@@UAEXXZ 00442120 f   missionmanager.obj
 0001:000411e0       ?OnProcessRequestsComplete@MissionManager@@UAEXPAX@Z 004421e0 f   missionmanager.obj
 0001:00041230       ?LoadMission@MissionManager@@MAEXXZ 00442230 f   missionmanager.obj
 0001:000412c0       ?CleanMissionData@MissionManager@@UAEXXZ 004422c0 f   missionmanager.obj
 0001:00041520       ?PutEffectHere@MissionManager@@QAEXABVVector@RadicalMathLibrary@@@Z 00442520 f   missionmanager.obj
 0001:00041550       ??0?$Iterator@VEventLocator@@@tInventory@@QAE@XZ 00442550 f i wrecklesscam.obj
 0001:00041550       ??0?$Iterator@VLocator@@@tInventory@@QAE@XZ 00442550 f i missionmanager.obj
 0001:00041550       ??0?$Iterator@VFollowCamDataChunk@@@tInventory@@QAE@XZ 00442550 f i followcam.obj
 0001:00041550       ??0?$Iterator@VWalkerCamDataChunk@@@tInventory@@QAE@XZ 00442550 f i walkercam.obj
 0001:000415e0       ?Next@?$Iterator@VLocator@@@tInventory@@QAEPAVLocator@@XZ 004425e0 f i missionmanager.obj
 0001:00041620       ?ClearGroup@TrafficModelGroup@@QAEXXZ 00442620 f i missionscriptloader.obj
 0001:00041660       ?AddTrafficModel@TrafficModelGroup@@QAEXPBDH@Z 00442660 f i missionscriptloader.obj
 0001:00041730       ?CreateInstance@MissionScriptLoader@@SAPAV1@XZ 00442730 f   missionscriptloader.obj
 0001:00041780       ?GetInstance@MissionScriptLoader@@SAPAV1@XZ 00442780 f   missionscriptloader.obj
 0001:00041790       ?DestroyInstance@MissionScriptLoader@@SAXXZ 00442790 f   missionscriptloader.obj
 0001:000417b0       ??0MissionScriptLoader@@AAE@XZ 004427b0 f   missionscriptloader.obj
 0001:000417e0       ??_EMissionScriptLoader@@EAEPAXI@Z 004427e0 f i missionscriptloader.obj
 0001:000417e0       ??_GMissionScriptLoader@@EAEPAXI@Z 004427e0 f i missionscriptloader.obj
 0001:00041800       ??1MissionScriptLoader@@EAE@XZ 00442800 f   missionscriptloader.obj
 0001:00041810       ?Register@MissionScriptLoader@@QAEXXZ 00442810 f   missionscriptloader.obj
 0001:00042910       ?LoadScriptAsync@MissionScriptLoader@@QAEXPADPAUProcessRequestsCallback@LoadingManager@@@Z 00443910 f   missionscriptloader.obj
 0001:00042960       ?OnExecuteScriptComplete@MissionScriptLoader@@UAEXPAX@Z 00443960 f   missionscriptloader.obj
 0001:00042980       ?InitLevelPlayerVehicle@MissionScriptLoader@@CAXHPAPAD@Z 00443980 f   missionscriptloader.obj
 0001:00042b60       ?PlacePlayerCar@MissionScriptLoader@@CAXHPAPAD@Z 00443b60 f   missionscriptloader.obj
 0001:00042c00       ?AddPurchaseCarReward@MissionScriptLoader@@CAXHPAPAD@Z 00443c00 f   missionscriptloader.obj
 0001:00042e60       ?SetPostLevelFMV@MissionScriptLoader@@CAXHPAPAD@Z 00443e60 f   missionscriptloader.obj
 0001:00042e80       ?CreateChaseManager@MissionScriptLoader@@CAXHPAPAD@Z 00443e80 f   missionscriptloader.obj
 0001:00042f10       ?SetChaseSpawnRate@MissionScriptLoader@@CAXHPAPAD@Z 00443f10 f   missionscriptloader.obj
 0001:00042f70       ?KillAllChaseAI@MissionScriptLoader@@CAXHPAPAD@Z 00443f70 f   missionscriptloader.obj
 0001:00042fc0       ?AddMission@MissionScriptLoader@@CAXHPAPAD@Z 00443fc0 f   missionscriptloader.obj
 0001:00043150       ?AddBonusMission@MissionScriptLoader@@CAXHPAPAD@Z 00444150 f   missionscriptloader.obj
 0001:000432a0       ?CloseMission@MissionScriptLoader@@CAXHPAPAD@Z 004442a0 f   missionscriptloader.obj
 0001:000432b0       ?SetForcedCar@MissionScriptLoader@@CAXHPAPAD@Z 004442b0 f   missionscriptloader.obj
 0001:000432c0       ?SetDemoLoopTime@MissionScriptLoader@@CAXHPAPAD@Z 004442c0 f   missionscriptloader.obj
 0001:00043310       ?SelectMission@MissionScriptLoader@@CAXHPAPAD@Z 00444310 f   missionscriptloader.obj
 0001:00043360       ?SetMissionNameIndex@MissionScriptLoader@@CAXHPAPAD@Z 00444360 f   missionscriptloader.obj
 0001:00043370       ?InitMissionPlayerVehicle@MissionScriptLoader@@CAXHPAPAD@Z 00444370 f   missionscriptloader.obj
 0001:00043400       ?SetMissionResetPlayerInCar@MissionScriptLoader@@CAXHPAPAD@Z 00444400 f   missionscriptloader.obj
 0001:00043440       ?SetMissionResetPlayerOutCar@MissionScriptLoader@@CAXHPAPAD@Z 00444440 f   missionscriptloader.obj
 0001:00043520       ?SetDynaLoadData@MissionScriptLoader@@CAXHPAPAD@Z 00444520 f   missionscriptloader.obj
 0001:00043560       ?AddBonusObjective@MissionScriptLoader@@CAXHPAPAD@Z 00444560 f   missionscriptloader.obj
 0001:000436f0       ?AddObjective@MissionScriptLoader@@CAXHPAPAD@Z 004446f0 f   missionscriptloader.obj
 0001:00043b80       ?AddNPC@MissionScriptLoader@@CAXHPAPAD@Z 00444b80 f   missionscriptloader.obj
 0001:00043c00       ?SetTalkToTarget@MissionScriptLoader@@CAXHPAPAD@Z 00444c00 f   missionscriptloader.obj
 0001:00043c90       ?SetDialogueInfo@MissionScriptLoader@@CAXHPAPAD@Z 00444c90 f   missionscriptloader.obj
 0001:00043cd0       ?SetDialoguePositions@MissionScriptLoader@@CAXHPAPAD@Z 00444cd0 f   missionscriptloader.obj
 0001:00043d50       ?SetRaceLaps@MissionScriptLoader@@CAXHPAPAD@Z 00444d50 f   missionscriptloader.obj
 0001:00043d80       ?BindCollectibleToWaypoint@MissionScriptLoader@@CAXHPAPAD@Z 00444d80 f   missionscriptloader.obj
 0001:00043dc0       ?AllowUserDump@MissionScriptLoader@@CAXHPAPAD@Z 00444dc0 f   missionscriptloader.obj
 0001:00043dd0       ?SetVehicleToLoad@MissionScriptLoader@@CAXHPAPAD@Z 00444dd0 f   missionscriptloader.obj
 0001:00043e30       ?CloseObjective@MissionScriptLoader@@CAXHPAPAD@Z 00444e30 f   missionscriptloader.obj
 0001:00043e50       ?AddCollectible@MissionScriptLoader@@CAXHPAPAD@Z 00444e50 f   missionscriptloader.obj
 0001:00043ee0       ?AddCollectibleStateProp@MissionScriptLoader@@CAXHPAPAD@Z 00444ee0 f   missionscriptloader.obj
 0001:00043f10       ?SetCollectibleEffect@MissionScriptLoader@@CAXHPAPAD@Z 00444f10 f   missionscriptloader.obj
 0001:00043f40       ?SetDestination@MissionScriptLoader@@CAXHPAPAD@Z 00444f40 f   missionscriptloader.obj
 0001:00044020       ?TurnGotoDialogOff@MissionScriptLoader@@CAXHPAPAD@Z 00445020 f   missionscriptloader.obj
 0001:00044030       ?MustActionTrigger@MissionScriptLoader@@CAXHPAPAD@Z 00445030 f   missionscriptloader.obj
 0001:00044040       ?AddStageVehicle@MissionScriptLoader@@CAXHPAPAD@Z 00445040 f   missionscriptloader.obj
 0001:000441c0       ?MoveStageVehicle@MissionScriptLoader@@CAXHPAPAD@Z 004451c0 f   missionscriptloader.obj
 0001:000442b0       ?ActivateVehicle@MissionScriptLoader@@CAXHPAPAD@Z 004452b0 f   missionscriptloader.obj
 0001:000443c0       ?AddStageWaypoint@MissionScriptLoader@@CAXHPAPAD@Z 004453c0 f   missionscriptloader.obj
 0001:000443f0       ?AddStageCharacter@MissionScriptLoader@@CAXHPAPAD@Z 004453f0 f   missionscriptloader.obj
 0001:00044490       ?AddStageMusicChange@MissionScriptLoader@@CAXHPAPAD@Z 00445490 f   missionscriptloader.obj
 0001:000444a0       ?SetStageMusicAlwaysOn@MissionScriptLoader@@CAXHPAPAD@Z 004454a0 f   missionscriptloader.obj
 0001:000444b0       ?SetCompletionDialog@MissionScriptLoader@@CAXHPAPAD@Z 004454b0 f   missionscriptloader.obj
 0001:00044520       ?SetStageStartMusicEvent@MissionScriptLoader@@CAXHPAPAD@Z 00445520 f   missionscriptloader.obj
 0001:00044560       ?SetStageCamera@MissionScriptLoader@@CAXHPAPAD@Z 00445560 f   missionscriptloader.obj
 0001:00044600       ?ResetToThisStage@MissionScriptLoader@@CAXHPAPAD@Z 00445600 f   missionscriptloader.obj
 0001:00044620       ?SetTrafficDensity@MissionScriptLoader@@CAXHPAPAD@Z 00445620 f   missionscriptloader.obj
 0001:00044650       ?AddCondition@MissionScriptLoader@@CAXHPAPAD@Z 00445650 f   missionscriptloader.obj
 0001:00044860       ?CloseCondition@MissionScriptLoader@@CAXHPAPAD@Z 00445860 f   missionscriptloader.obj
 0001:00044870       ?AmbientAnimationRandomize@MissionScriptLoader@@CAXHPAPAD@Z 00445870 f   missionscriptloader.obj
 0001:000448b0       ?AddAmbientNpcAnimation@MissionScriptLoader@@CAXHPAPAD@Z 004458b0 f   missionscriptloader.obj
 0001:00044920       ?AddAmbientPcAnimation@MissionScriptLoader@@CAXHPAPAD@Z 00445920 f   missionscriptloader.obj
 0001:000449b0       ?SetCamBestSide@MissionScriptLoader@@CAXHPAPAD@Z 004459b0 f   missionscriptloader.obj
 0001:00044a20       ?SetConversationCamName@MissionScriptLoader@@CAXHPAPAD@Z 00445a20 f   missionscriptloader.obj
 0001:00044ab0       ?SetConversationCamPcName@MissionScriptLoader@@CAXHPAPAD@Z 00445ab0 f   missionscriptloader.obj
 0001:00044b40       ?SetConversationCamNpcName@MissionScriptLoader@@CAXHPAPAD@Z 00445b40 f   missionscriptloader.obj
 0001:00044bd0       ?SetConversationCam@MissionScriptLoader@@CAXHPAPAD@Z 00445bd0 f   missionscriptloader.obj
 0001:00044c70       ?SetConversationCamDistance@MissionScriptLoader@@CAXHPAPAD@Z 00445c70 f   missionscriptloader.obj
 0001:00044cf0       ?SetPresentationBitmap@MissionScriptLoader@@CAXHPAPAD@Z 00445cf0 f   missionscriptloader.obj
 0001:00044d20       ?SetAnimatedCameraName@MissionScriptLoader@@CAXHPAPAD@Z 00445d20 f   missionscriptloader.obj
 0001:00044d40       ?SetMissionStartMulticontrollerName@MissionScriptLoader@@CAXHPAPAD@Z 00445d40 f   missionscriptloader.obj
 0001:00044d60       ?SetMissionStartCameraName@MissionScriptLoader@@CAXHPAPAD@Z 00445d60 f   missionscriptloader.obj
 0001:00044d80       ?SetPlayerCarName@MissionScriptLoader@@CAXHPAPAD@Z 00445d80 f   missionscriptloader.obj
 0001:00044db0       ?SetFMVInfo@MissionScriptLoader@@CAXHPAPAD@Z 00445db0 f   missionscriptloader.obj
 0001:00044dd0       ?CharacterIsChild@MissionScriptLoader@@CAXHPAPAD@Z 00445dd0 f   missionscriptloader.obj
 0001:00044dd0       ?SetAnimatedCameraMulticontrollerName@MissionScriptLoader@@CAXHPAPAD@Z 00445dd0 f   missionscriptloader.obj
 0001:00044df0       ?SetFollowDistances@MissionScriptLoader@@CAXHPAPAD@Z 00445df0 f   missionscriptloader.obj
 0001:00044e40       ?SetCondMinHealth@MissionScriptLoader@@CAXHPAPAD@Z 00445e40 f   missionscriptloader.obj
 0001:00044e70       ?SetConditionPosition@MissionScriptLoader@@CAXHPAPAD@Z 00445e70 f   missionscriptloader.obj
 0001:00044e70       ?SetCondTime@MissionScriptLoader@@CAXHPAPAD@Z 00445e70 f   missionscriptloader.obj
 0001:00044e90       ?SetObjTargetVehicle@MissionScriptLoader@@CAXHPAPAD@Z 00445e90 f   missionscriptloader.obj
 0001:00044f30       ?SetObjTargetBoss@MissionScriptLoader@@CAXHPAPAD@Z 00445f30 f   missionscriptloader.obj
 0001:00044f60       ?SetPickupTarget@MissionScriptLoader@@CAXHPAPAD@Z 00445f60 f   missionscriptloader.obj
 0001:00044f80       ?AllowRockOut@MissionScriptLoader@@CAXHPAPAD@Z 00445f80 f   missionscriptloader.obj
 0001:00044f90       ?SetObjDistance@MissionScriptLoader@@CAXHPAPAD@Z 00445f90 f   missionscriptloader.obj
 0001:00044fd0       ?SetCondTargetVehicle@MissionScriptLoader@@CAXHPAPAD@Z 00445fd0 f   missionscriptloader.obj
 0001:00045030       ?AddStage@MissionScriptLoader@@CAXHPAPAD@Z 00446030 f   missionscriptloader.obj
 0001:00045230       ?SetStageMessageIndex@MissionScriptLoader@@CAXHPAPAD@Z 00446230 f   missionscriptloader.obj
 0001:00045250       ?SetStageTime@MissionScriptLoader@@CAXHPAPAD@Z 00446250 f   missionscriptloader.obj
 0001:000452a0       ?AddStageTime@MissionScriptLoader@@CAXHPAPAD@Z 004462a0 f   missionscriptloader.obj
 0001:000452f0       ?ShowStageComplete@MissionScriptLoader@@CAXHPAPAD@Z 004462f0 f   missionscriptloader.obj
 0001:00045300       ?SetHUDIcon@MissionScriptLoader@@CAXHPAPAD@Z 00446300 f   missionscriptloader.obj
 0001:00045330       ?SetIrisWipe@MissionScriptLoader@@CAXHPAPAD@Z 00446330 f   missionscriptloader.obj
 0001:00045340       ?SetFadeOut@MissionScriptLoader@@CAXHPAPAD@Z 00446340 f   missionscriptloader.obj
 0001:00045350       ?CloseStage@MissionScriptLoader@@CAXHPAPAD@Z 00446350 f   missionscriptloader.obj
 0001:00045360       ?SetVehicleAIParams@MissionScriptLoader@@CAXHPAPAD@Z 00446360 f   missionscriptloader.obj
 0001:000453e0       ?SetBonusMissionStart@MissionScriptLoader@@CAXHPAPAD@Z 004463e0 f   missionscriptloader.obj
 0001:000453f0       ?GetVehicleByName@MissionScriptLoader@@AAEPAVVehicle@@PBD@Z 004463f0 f   missionscriptloader.obj
 0001:00045420       ?GetDirectionalArrowType@MissionScriptLoader@@CA_NPBDPAW4TYPE@DirectionalArrowEnum@@@Z 00446420 f   missionscriptloader.obj
 0001:00045550       ?LoadP3DFile@MissionScriptLoader@@CAXHPAPAD@Z 00446550 f   missionscriptloader.obj
 0001:00045970       ?LoadDisposableCar@MissionScriptLoader@@SAXHPAPAD@Z 00446970 f   missionscriptloader.obj
 0001:00045c00       ?AddCharacter@MissionScriptLoader@@CAXHPAPAD@Z 00446c00 f   missionscriptloader.obj
 0001:00045c20       ?AddNPCCharacterBonusMission@MissionScriptLoader@@CAXHPAPAD@Z 00446c20 f   missionscriptloader.obj
 0001:00045d30       ?SetBonusMissionDialoguePositions@MissionScriptLoader@@CAXHPAPAD@Z 00446d30 f   missionscriptloader.obj
 0001:00045dd0       ?AddAmbientCharacter@MissionScriptLoader@@CAXHPAPAD@Z 00446dd0 f   missionscriptloader.obj
 0001:00045eb0       ?AddBonusMissionNPCWaypoint@MissionScriptLoader@@CAXHPAPAD@Z 00446eb0 f   missionscriptloader.obj
 0001:00045f00       ?AddObjectiveNPCWaypoint@MissionScriptLoader@@CAXHPAPAD@Z 00446f00 f   missionscriptloader.obj
 0001:00045f50       ?AddNPCWaypoint@MissionScriptLoader@@CA_NPBD0@Z 00446f50 f   missionscriptloader.obj
 0001:00045fb0       ?AddPurchaseCarNPCWaypoint@MissionScriptLoader@@CAXHPAPAD@Z 00446fb0 f   missionscriptloader.obj
 0001:00046000       ?AddAmbientNPCWaypoint@MissionScriptLoader@@CAXHPAPAD@Z 00447000 f   missionscriptloader.obj
 0001:00046020       ?ActivateTrigger@MissionScriptLoader@@CAXHPAPAD@Z 00447020 f   missionscriptloader.obj
 0001:00046050       ?DeactivateTrigger@MissionScriptLoader@@CAXHPAPAD@Z 00447050 f   missionscriptloader.obj
 0001:00046080       ?CreateActionEventTrigger@MissionScriptLoader@@CAXHPAPAD@Z 00447080 f   missionscriptloader.obj
 0001:000460b0       ?SetCoinDrawable@MissionScriptLoader@@CAXHPAPAD@Z 004470b0 f   missionscriptloader.obj
 0001:000460e0       ?SetParticleTexture@MissionScriptLoader@@CAXHPAPAD@Z 004470e0 f   missionscriptloader.obj
 0001:00046120       ?AddSafeZone@MissionScriptLoader@@CAXHPAPAD@Z 00447120 f   missionscriptloader.obj
 0001:00046160       ?CreatePedGroup@MissionScriptLoader@@CAXHPAPAD@Z 00447160 f   missionscriptloader.obj
 0001:000461a0       ?AddPed@MissionScriptLoader@@CAXHPAPAD@Z 004471a0 f   missionscriptloader.obj
 0001:00046250       ?ClosePedGroup@MissionScriptLoader@@CAXHPAPAD@Z 00447250 f   missionscriptloader.obj
 0001:000462a0       ?BindReward@MissionScriptLoader@@CAXHPAPAD@Z 004472a0 f   missionscriptloader.obj
 0001:000464f0       ?SetCarAttributes@MissionScriptLoader@@CAXHPAPAD@Z 004474f0 f   missionscriptloader.obj
 0001:000465a0       ?SetTotalGags@MissionScriptLoader@@CAXHPAPAD@Z 004475a0 f   missionscriptloader.obj
 0001:000465d0       ?SetTotalWasps@MissionScriptLoader@@CAXHPAPAD@Z 004475d0 f   missionscriptloader.obj
 0001:00046600       ?CreateTrafficGroup@MissionScriptLoader@@CAXHPAPAD@Z 00447600 f   missionscriptloader.obj
 0001:00046630       ?AddTrafficModel@MissionScriptLoader@@CAXHPAPAD@Z 00447630 f   missionscriptloader.obj
 0001:000466e0       ?CloseTrafficGroup@MissionScriptLoader@@CAXHPAPAD@Z 004476e0 f   missionscriptloader.obj
 0001:000466f0       ?SetTrafficGroup@MissionScriptLoader@@CAXHPAPAD@Z 004476f0 f   missionscriptloader.obj
 0001:00046710       ?SetRespawnRate@MissionScriptLoader@@CAXHPAPAD@Z 00447710 f   missionscriptloader.obj
 0001:00046820       ?EnableTutorialMode@MissionScriptLoader@@CAXHPAPAD@Z 00447820 f   missionscriptloader.obj
 0001:00046850       ?StartCountdown@MissionScriptLoader@@CAXHPAPAD@Z 00447850 f   missionscriptloader.obj
 0001:000468a0       ?AddToCountdownSequence@MissionScriptLoader@@CAXHPAPAD@Z 004478a0 f   missionscriptloader.obj
 0001:000468f0       ?GoToPattyAndSelmaScreenWhenDone@MissionScriptLoader@@CAXHPAPAD@Z 004478f0 f   missionscriptloader.obj
 0001:00046900       ?StreetRacePropsLoad@MissionScriptLoader@@CAXHPAPAD@Z 00447900 f   missionscriptloader.obj
 0001:00046920       ?StreetRacePropsUnload@MissionScriptLoader@@CAXHPAPAD@Z 00447920 f   missionscriptloader.obj
 0001:00046940       ?UseElapsedTime@MissionScriptLoader@@CAXHPAPAD@Z 00447940 f   missionscriptloader.obj
 0001:00046950       ?AttachStatePropCollectible@MissionScriptLoader@@CAXHPAPAD@Z 00447950 f   missionscriptloader.obj
 0001:00046990       ?SetParTime@MissionScriptLoader@@CAXHPAPAD@Z 00447990 f   missionscriptloader.obj
 0001:000469e0       ?SetRaceEnteryFee@MissionScriptLoader@@CAXHPAPAD@Z 004479e0 f   missionscriptloader.obj
 0001:00046a10       ?SetCoinFee@MissionScriptLoader@@CAXHPAPAD@Z 00447a10 f   missionscriptloader.obj
 0001:00046a60       ?PutMFPlayerInCar@MissionScriptLoader@@CAXHPAPAD@Z 00447a60 f   missionscriptloader.obj
 0001:00046a70       ?SetStatepropShadow@MissionScriptLoader@@CAXHPAPAD@Z 00447a70 f   missionscriptloader.obj
 0001:00046a90       ?TreeOfWoeErrorMsg@MissionScriptLoader@@SAXPBD@Z 00447a90 f   missionscriptloader.obj
 0001:00046b00       ?DisableHitAndRun@MissionScriptLoader@@CAXHPAPAD@Z 00447b00 f   missionscriptloader.obj
 0001:00046b20       ?EnableHitAndRun@MissionScriptLoader@@CAXHPAPAD@Z 00447b20 f   missionscriptloader.obj
 0001:00046b40       ?ResetHitAndRun@MissionScriptLoader@@CAXHPAPAD@Z 00447b40 f   missionscriptloader.obj
 0001:00046b50       ?SetNumChaseCars@MissionScriptLoader@@CAXHPAPAD@Z 00447b50 f   missionscriptloader.obj
 0001:00046b70       ?SetHitAndRunDecay@MissionScriptLoader@@CAXHPAPAD@Z 00447b70 f   missionscriptloader.obj
 0001:00046b90       ?SetHitAndRunMeter@MissionScriptLoader@@CAXHPAPAD@Z 00447b90 f   missionscriptloader.obj
 0001:00046bc0       ?SwapInDefaultCar@MissionScriptLoader@@CAXHPAPAD@Z 00447bc0 f   missionscriptloader.obj
 0001:00046bd0       ?SetSwapDefaultCarRespawnLocatorName@MissionScriptLoader@@CAXHPAPAD@Z 00447bd0 f   missionscriptloader.obj
 0001:00046bf0       ?SetSwapForcedCarRespawnLocatorName@MissionScriptLoader@@CAXHPAPAD@Z 00447bf0 f   missionscriptloader.obj
 0001:00046c10       ?SetSwapPlayerRespawnLocatorName@MissionScriptLoader@@CAXHPAPAD@Z 00447c10 f   missionscriptloader.obj
 0001:00046c30       ?NoTrafficForStage@MissionScriptLoader@@CAXHPAPAD@Z 00447c30 f   missionscriptloader.obj
 0001:00046c40       ?ClearTrafficForStage@MissionScriptLoader@@CAXHPAPAD@Z 00447c40 f   missionscriptloader.obj
 0001:00046c50       ?PlacePlayerAtLocatorName@MissionScriptLoader@@CAXHPAPAD@Z 00447c50 f   missionscriptloader.obj
 0001:00046c70       ?msPlacePlayerCarAtLocatorName@MissionScriptLoader@@CAXHPAPAD@Z 00447c70 f   missionscriptloader.obj
 0001:00046c90       ?SetStageAIRaceCatchupParams@MissionScriptLoader@@CAXHPAPAD@Z 00447c90 f   missionscriptloader.obj
 0001:00046d30       ?SetStageAIEvadeCatchupParams@MissionScriptLoader@@CAXHPAPAD@Z 00447d30 f   missionscriptloader.obj
 0001:00046db0       ?SetStageAITargetCatchupParams@MissionScriptLoader@@CAXHPAPAD@Z 00447db0 f   missionscriptloader.obj
 0001:00046e30       ?SetPauseDuration@MissionScriptLoader@@CAXHPAPAD@Z 00447e30 f   missionscriptloader.obj
 0001:00046e80       ?SetCharacterToHide@MissionScriptLoader@@CAXHPAPAD@Z 00447e80 f   missionscriptloader.obj
 0001:00046ea0       ?SetLevelOver@MissionScriptLoader@@CAXHPAPAD@Z 00447ea0 f   missionscriptloader.obj
 0001:00046eb0       ?find@?$@VtTexture@@@p3d@@YAPAVtTexture@@PAVtEntityStore@@PBD@Z 00447eb0 f i missionscriptloader.obj
 0001:00046f20       ?find@?$@VtTexture@@@p3d@@YAPAVtTexture@@PAVtEntityStore@@ABVtName@@@Z 00447f20 f i missionscriptloader.obj
 0001:00046fb0       ?safe_cast@?$SafeCast@VtTexture@@@radLoadInventory@@UAEPAUIRefCount@@PAU3@@Z 00447fb0 f i missionscriptloader.obj
 0001:00046fd0       ?radMakeCaseInsensitiveKey32@@YAIPBDI@Z 00447fd0 f i missionscriptloader.obj
 0001:00047000       ?GetType@MissionCondition@@QBE?AW4ConditionTypeEnum@1@XZ 00448000 f i missionstage.obj
 0001:00047020       ??0MissionStage@@QAE@XZ    00448020 f   missionstage.obj
 0001:00047340       ??_GMissionStage@@UAEPAXI@Z 00448340 f i missionstage.obj
 0001:00047340       ??_EMissionStage@@UAEPAXI@Z 00448340 f i missionstage.obj
 0001:00047360       ??1MissionStage@@UAE@XZ    00448360 f   missionstage.obj
 0001:00047600       ?DestroyStageVehicleAI@MissionStage@@AAEHXZ 00448600 f   missionstage.obj
 0001:00047680       ?AddVehicle@MissionStage@@QAEXPAVVehicle@@HPAVCarStartLocator@@PAD@Z 00448680 f   missionstage.obj
 0001:00047b80       ?SetAIParams@MissionStage@@QAEXPAVVehicle@@ABUAIParams@1@@Z 00448b80 f   missionstage.obj
 0001:00047bb0       ?SetAIRaceCatchupParams@MissionStage@@QAEXPAVVehicle@@ABURaceCatchupParams@VehicleAI@@@Z 00448bb0 f   missionstage.obj
 0001:00047be0       ?SetAIEvadeCatchupParams@MissionStage@@QAEXPAVVehicle@@ABUEvadeCatchupParams@VehicleAI@@@Z 00448be0 f   missionstage.obj
 0001:00047c10       ?SetAITargetCatchupParams@MissionStage@@QAEXPAVVehicle@@ABUTargetCatchupParams@VehicleAI@@@Z 00448c10 f   missionstage.obj
 0001:00047c40       ?AddWaypoint@MissionStage@@QAEXPAVLocator@@@Z 00448c40 f   missionstage.obj
 0001:00047c50       ?AddCharacter@MissionStage@@QAEXPADPAVCarStartLocator@@1PBDPAVVehicle@@@Z 00448c50 f   missionstage.obj
 0001:00047dd0       ?GetFailureCondition@MissionStage@@QBEPAVMissionCondition@@XZ 00448dd0 f   missionstage.obj
 0001:00047e00       ?Initialize@MissionStage@@QAEXXZ 00448e00 f   missionstage.obj
 0001:00047e10       ?Finalize@MissionStage@@QAEXXZ 00448e10 f   missionstage.obj
 0001:00047f00       ?VehicleFinalize@MissionStage@@QAEXXZ 00448f00 f   missionstage.obj
 0001:00047f40       ?Reset@MissionStage@@QAEXXZ 00448f40 f   missionstage.obj
 0001:00048680       ?VehicleInfoInitialize@MissionStage@@QAEXXZ 00449680 f   missionstage.obj
 0001:00048890       ?Start@MissionStage@@QAEXXZ 00449890 f   missionstage.obj
 0001:000488d0       ?Update@MissionStage@@UAEXI@Z 004498d0 f   missionstage.obj
 0001:00048b00       ?SetStageTime@MissionStage@@QAEXW4StageTimeType@1@I@Z 00449b00 f   missionstage.obj
 0001:00048b10       ?GetStageTime@MissionStage@@QAEXAAW4StageTimeType@1@AAI@Z 00449b10 f   missionstage.obj
 0001:00048b30       ?SetCameraInfo@MissionStage@@QAEXW4Type@SuperCam@@_N1@Z 00449b30 f   missionstage.obj
 0001:00048b50       ?GetVehicle@MissionStage@@QAEPAVVehicle@@I@Z 00449b50 f   missionstage.obj
 0001:00048b60       ?SetChaseSpawnRate@MissionStage@@QAEXPADI@Z 00449b60 f   missionstage.obj
 0001:00048ba0       ?AddSafeZone@MissionStage@@QAEHPAVCarStartLocator@@I@Z 00449ba0 f   missionstage.obj
 0001:00048c20       ?GetVehicleAI@MissionStage@@QAEXPAVVehicle@@PAPAVVehicleAI@@@Z 00449c20 f   missionstage.obj
 0001:00048c60       ?DestroyAllSafeZones@MissionStage@@AAEXXZ 00449c60 f   missionstage.obj
 0001:00048c90       ?AmbientCharacterAnimationSetRandom@MissionStage@@QAEXI_N@Z 00449c90 f   missionstage.obj
 0001:00048cb0       ?AddAmbientCharacterAnimation@MissionStage@@QAEXIABVtName@@@Z 00449cb0 f   missionstage.obj
 0001:00048d00       ?SetCameraForDialogLine@MissionStage@@QAEXIABVtName@@@Z 00449d00 f   missionstage.obj
 0001:00048d60       ?SetConversationCamName@MissionStage@@QAEXABVtName@@@Z 00449d60 f   missionstage.obj
 0001:00048d70       ?SetConversationCamPcName@MissionStage@@QAEXABVtName@@@Z 00449d70 f   missionstage.obj
 0001:00048d80       ?SetConversationCamNpcName@MissionStage@@QAEXABVtName@@@Z 00449d80 f   missionstage.obj
 0001:00048d90       ?SetBestSideLocator@MissionStage@@QAEXABVtName@@@Z 00449d90 f   missionstage.obj
 0001:00048da0       ?triggerStageDialog@MissionStage@@AAEXXZ 00449da0 f   missionstage.obj
 0001:00048e20       ?SetLockRequirement@MissionStage@@QAEXIW4Type@LockRequirement@1@PBD@Z 00449e20 f   missionstage.obj
 0001:00048e90       ?GetLockRequirement@MissionStage@@QAEABULockRequirement@1@I@Z 00449e90 f   missionstage.obj
 0001:00048ea0       ?DisplayMissionStageIndexMessage@MissionStage@@QAEXXZ 00449ea0 f   missionstage.obj
 0001:00048ec0       ?SetCountdownEnabled@MissionStage@@QAEXI@Z 00449ec0 f   missionstage.obj
 0001:00048f60       ?AddCountdownSequenceUnit@MissionStage@@QAEXPBDH@Z 00449f60 f   missionstage.obj
 0001:00048fa0       ?GetCountdownSequenceUnit@MissionStage@@QBEPAUCountdownSequenceUnit@1@H@Z 00449fa0 f   missionstage.obj
 0001:00048fc0       ?PutAllAisInLimbo@MissionStage@@QAEX_N@Z 00449fc0 f   missionstage.obj
 0001:00049000       ?DoTransition@MissionStage@@QAEXXZ 0044a000 f   missionstage.obj
 0001:00049050       ?UseElapsedTime@MissionStage@@QAEXXZ 0044a050 f   missionstage.obj
 0001:00049060       ?QueryUseElapsedTime@MissionStage@@QAE_NXZ 0044a060 f   missionstage.obj
 0001:00049070       ?SetRaceEnteryFee@MissionStage@@QAEXH@Z 0044a070 f   missionstage.obj
 0001:00049080       ?PutMFPlayerInCar@MissionStage@@QAEXXZ 0044a080 f   missionstage.obj
 0001:00049090       ?DisableHitAndRun@MissionStage@@QAEXXZ 0044a090 f   missionstage.obj
 0001:000490a0       ?SwapInDefaultCar@MissionStage@@QAEXXZ 0044a0a0 f   missionstage.obj
 0001:000490b0       ?SwapInDefaultCarStart@MissionStage@@QAEXXZ 0044a0b0 f   missionstage.obj
 0001:00049180       ?OnProcessRequestsComplete@MissionStage@@UAEXPAX@Z 0044a180 f   missionstage.obj
 0001:000492b0       ?SetSwapDefaultCarRespawnLocatorName@MissionStage@@QAEXPAD@Z 0044a2b0 f   missionstage.obj
 0001:000492d0       ?SetSwapPlayerRespawnLocatorName@MissionStage@@QAEXPAD@Z 0044a2d0 f   missionstage.obj
 0001:000492f0       ?SetSwapForcedCarRespawnLocatorName@MissionStage@@QAEXPAD@Z 0044a2f0 f   missionstage.obj
 0001:00049310       ?DisableTraffic@MissionStage@@QAEXXZ 0044a310 f   missionstage.obj
 0001:00049320       ?ClearTrafficForStage@MissionStage@@QAEXXZ 0044a320 f   missionstage.obj
 0001:00049330       ?SetPlayerRespawnLocatorName@MissionStage@@QAEXPAD@Z 0044a330 f   missionstage.obj
 0001:00049350       ?SetmsPlayerCarRespawnLocatorName@MissionStage@@QAEXPAD@Z 0044a350 f   missionstage.obj
 0001:00049370       ?OnStageCompleteSuccessful@MissionStage@@IAEXXZ 0044a370 f   missionstage.obj
 0001:00049390       ?GoToPattyAndSelmaScreenWhenDone@MissionStage@@QAEXXZ 0044a390 f   missionstage.obj
 0001:000493a0       ?SetCharacterToHide@MissionStage@@QAEXPAD@Z 0044a3a0 f   missionstage.obj
 0001:000493c0       ?SetLevelOver@MissionStage@@QAEXXZ 0044a3c0 f   missionstage.obj
 0001:000493d0       ??1?$vector@VtName@@V?$s2alloc@VtName@@@@@std@@QAE@XZ 0044a3d0 f i missionstage.obj
 0001:000493e0       ?resize@?$vector@VtName@@V?$s2alloc@VtName@@@@@std@@QAEXIVtName@@@Z 0044a3e0 f i missionstage.obj
 0001:000494b0       ?push_back@?$vector@VtName@@V?$s2alloc@VtName@@@@@std@@QAEXABVtName@@@Z 0044a4b0 f i missionstage.obj
 0001:00049510       ?erase@?$vector@VtName@@V?$s2alloc@VtName@@@@@std@@QAE?AV?$_Ptrit@VtName@@HPAV1@AAV1@PAV1@AAV1@@2@V32@0@Z 0044a510 f i missionstage.obj
 0001:00049580       ?_Tidy@?$vector@VtName@@V?$s2alloc@VtName@@@@@std@@IAEXXZ 0044a580 f i missionstage.obj
 0001:000495d0       ?_Insert_n@?$vector@VtName@@V?$s2alloc@VtName@@@@@std@@IAEXV?$_Ptrit@VtName@@HPAV1@AAV1@PAV1@AAV1@@2@IABVtName@@@Z 0044a5d0 f i missionstage.obj
 0001:000498c0       ?_Destroy@?$vector@VtName@@V?$s2alloc@VtName@@@@@std@@IAEXPAVtName@@0@Z 0044a8c0 f i missionstage.obj
 0001:000498e0       ?_Ucopy@?$vector@VtName@@V?$s2alloc@VtName@@@@@std@@IAEPAVtName@@V?$_Ptrit@VtName@@HPAV1@AAV1@PAV1@AAV1@@2@0PAV3@@Z 0044a8e0 f i missionstage.obj
 0001:00049910       ?fill@std@@YAXV?$_Ptrit@VtName@@HPAV1@AAV1@PAV1@AAV1@@1@0ABVtName@@@Z 0044a910 f i missionstage.obj
 0001:00049940       ?copy_backward@std@@YA?AV?$_Ptrit@VtName@@HPAV1@AAV1@PAV1@AAV1@@1@V21@00@Z 0044a940 f i missionstage.obj
 0001:00049970       ?_Copy_backward_opt@std@@YA?AV?$_Ptrit@VtName@@HPAV1@AAV1@PAV1@AAV1@@1@V21@00U_Nonscalar_ptr_iterator_tag@1@@Z 0044a970 f i missionstage.obj
 0001:000499c0       ?_Uninit_fill_n@std@@YAXPAVtName@@IABV2@AAV?$s2alloc@VtName@@@@U_Nonscalar_ptr_iterator_tag@1@@Z 0044a9c0 f i missionstage.obj
 0001:00049a50       ??_EBonusObjective@@UAEPAXI@Z 0044aa50 f i nocopbonusobjective.obj
 0001:00049a50       ??_GBonusObjective@@UAEPAXI@Z 0044aa50 f i nocopbonusobjective.obj
 0001:00049a70       ??0NoCopBonusObjective@@QAE@XZ 0044aa70 f   nocopbonusobjective.obj
 0001:00049aa0       ??_ENoCopBonusObjective@@UAEPAXI@Z 0044aaa0 f i nocopbonusobjective.obj
 0001:00049aa0       ??_GNoCopBonusObjective@@UAEPAXI@Z 0044aaa0 f i nocopbonusobjective.obj
 0001:00049ac0       ??1NoCopBonusObjective@@UAE@XZ 0044aac0 f   nocopbonusobjective.obj
 0001:00049ae0       ?Initialize@NoCopBonusObjective@@UAEXXZ 0044aae0 f   nocopbonusobjective.obj
 0001:00049ae0       ?Initialize@NoDamageBonusObjective@@UAEXXZ 0044aae0 f   nodamagebonusobjective.obj
 0001:00049b10       ?Finalize@NoCopBonusObjective@@UAEXXZ 0044ab10 f   nocopbonusobjective.obj
 0001:00049b10       ?Finalize@NoDamageBonusObjective@@UAEXXZ 0044ab10 f   nodamagebonusobjective.obj
 0001:00049b40       ?OnUpdate@NoCopBonusObjective@@MAEXI@Z 0044ab40 f   nocopbonusobjective.obj
 0001:00049b60       ??_ENoCopBonusObjective@@WM@AEPAXI@Z 0044ab60 f i nocopbonusobjective.obj
 0001:00049b70       ??0NoDamageBonusObjective@@QAE@XZ 0044ab70 f   nodamagebonusobjective.obj
 0001:00049ba0       ??_ENoDamageBonusObjective@@UAEPAXI@Z 0044aba0 f i nodamagebonusobjective.obj
 0001:00049ba0       ??_GNoDamageBonusObjective@@UAEPAXI@Z 0044aba0 f i nodamagebonusobjective.obj
 0001:00049bc0       ??1NoDamageBonusObjective@@UAE@XZ 0044abc0 f   nodamagebonusobjective.obj
 0001:00049be0       ?HandleEvent@NoCopBonusObjective@@UAEXW4EventEnum@@PAX@Z 0044abe0 f   nocopbonusobjective.obj
 0001:00049be0       ?HandleEvent@NoDamageBonusObjective@@UAEXW4EventEnum@@PAX@Z 0044abe0 f   nodamagebonusobjective.obj
 0001:00049c00       ?OnReset@NoCopBonusObjective@@MAEXXZ 0044ac00 f   nocopbonusobjective.obj
 0001:00049c00       ?OnReset@NoDamageBonusObjective@@MAEXXZ 0044ac00 f   nodamagebonusobjective.obj
 0001:00049c10       ?OnUpdate@NoDamageBonusObjective@@MAEXI@Z 0044ac10 f   nodamagebonusobjective.obj
 0001:00049c30       ??_ENoDamageBonusObjective@@WM@AEPAXI@Z 0044ac30 f i nodamagebonusobjective.obj
 0001:00049c40       ??0RacePositionBonusObjective@@QAE@XZ 0044ac40 f   racepositionbonusobjective.obj
 0001:00049c70       ??_ERacePositionBonusObjective@@UAEPAXI@Z 0044ac70 f i racepositionbonusobjective.obj
 0001:00049c70       ??_GRacePositionBonusObjective@@UAEPAXI@Z 0044ac70 f i racepositionbonusobjective.obj
 0001:00049c90       ??1RacePositionBonusObjective@@UAE@XZ 0044ac90 f   racepositionbonusobjective.obj
 0001:00049cb0       ?Initialize@RacePositionBonusObjective@@UAEXXZ 0044acb0 f   racepositionbonusobjective.obj
 0001:00049ce0       ?Finalize@RacePositionBonusObjective@@UAEXXZ 0044ace0 f   racepositionbonusobjective.obj
 0001:00049d10       ?HandleEvent@RacePositionBonusObjective@@UAEXW4EventEnum@@PAX@Z 0044ad10 f   racepositionbonusobjective.obj
 0001:00049d40       ?OnReset@RacePositionBonusObjective@@MAEXXZ 0044ad40 f   racepositionbonusobjective.obj
 0001:00049d50       ??_ERacePositionBonusObjective@@WM@AEPAXI@Z 0044ad50 f i racepositionbonusobjective.obj
 0001:00049d60       ??0StatePropCollectible@@QAE@XZ 0044ad60 f   statepropcollectible.obj
 0001:00049db0       ??_EStatePropCollectible@@UAEPAXI@Z 0044adb0 f i statepropcollectible.obj
 0001:00049db0       ??_GStatePropCollectible@@UAEPAXI@Z 0044adb0 f i statepropcollectible.obj
 0001:00049dd0       ??1StatePropCollectible@@UAE@XZ 0044add0 f   statepropcollectible.obj
 0001:00049e50       ?PreReactToCollision@StatePropCollectible@@UAE?AW4Solving_Answer@sim@@PAVSimState@3@AAVCollision@3@@Z 0044ae50 f   statepropcollectible.obj
 0001:00049ef0       ?AdvanceAnimation@StatePropCollectible@@UAEXM@Z 0044aef0 f   statepropcollectible.obj
 0001:00049f30       ?SetTransform@StatePropCollectible@@UAEXABVMatrix@RadicalMathLibrary@@@Z 0044af30 f   statepropcollectible.obj
 0001:00049f60       ?SetPosition@StatePropCollectible@@UAEXABVVector@RadicalMathLibrary@@@Z 0044af60 f   statepropcollectible.obj
 0001:00049f90       ?LoadSetup@StatePropCollectible@@UAEXPAVCStatePropData@@HABVMatrix@RadicalMathLibrary@@PAVCollisionAttributes@@_NPAVtEntityStore@@3PAVCollisionObject@sim@@PAVPhysicsObject@8@@Z 0044af90 f   statepropcollectible.obj
 0001:00049ff0       ?AddToDSG@StatePropCollectible@@QAEXXZ 0044aff0 f   statepropcollectible.obj
 0001:0004a020       ?RemoveFromDSG@StatePropCollectible@@QAEXXZ 0044b020 f   statepropcollectible.obj
 0001:0004a060       ?GetHeading@StatePropCollectible@@UAEXPAVVector@RadicalMathLibrary@@@Z 0044b060 f   statepropcollectible.obj
 0001:0004a080       ?EnableHudIcon@StatePropCollectible@@QAEX_N@Z 0044b080 f   statepropcollectible.obj
 0001:0004a100       ?DoCollisionTesting@StatePropCollectible@@IAEXXZ 0044b100 f   statepropcollectible.obj
 0001:0004a1e0       ?GetPosition@StatePropCollectible@@WBCI@AEXPAVVector@RadicalMathLibrary@@@Z 0044b1e0 f i statepropcollectible.obj
 0001:0004a1f0       ??0TimeRemainBonusObjective@@QAE@XZ 0044b1f0 f   timeremainbonusobjective.obj
 0001:0004a210       ??_ETimeRemainBonusObjective@@UAEPAXI@Z 0044b210 f i timeremainbonusobjective.obj
 0001:0004a210       ??_GTimeRemainBonusObjective@@UAEPAXI@Z 0044b210 f i timeremainbonusobjective.obj
 0001:0004a230       ??1TimeRemainBonusObjective@@UAE@XZ 0044b230 f   timeremainbonusobjective.obj
 0001:0004a240       ?GetNumericData@TimeRemainBonusObjective@@UAEIXZ 0044b240 f   timeremainbonusobjective.obj
 0001:0004a250       ?OnReset@TimeRemainBonusObjective@@MAEXXZ 0044b250 f   timeremainbonusobjective.obj
 0001:0004a260       ?OnUpdate@TimeRemainBonusObjective@@MAEXI@Z 0044b260 f   timeremainbonusobjective.obj
 0001:0004a290       ??0CoinObjective@@QAE@XZ   0044b290 f   coinobjective.obj
 0001:0004a2b0       ??_GCoinObjective@@UAEPAXI@Z 0044b2b0 f i coinobjective.obj
 0001:0004a2b0       ??_ECoinObjective@@UAEPAXI@Z 0044b2b0 f i coinobjective.obj
 0001:0004a2d0       ??1CoinObjective@@UAE@XZ   0044b2d0 f   coinobjective.obj
 0001:0004a2e0       ?HandleEvent@CoinObjective@@UAEXW4EventEnum@@PAX@Z 0044b2e0 f   coinobjective.obj
 0001:0004a370       ?OnInitialize@CoinObjective@@MAEXXZ 0044b370 f   coinobjective.obj
 0001:0004a390       ?OnFinalize@CoinObjective@@MAEXXZ 0044b390 f   coinobjective.obj
 0001:0004a390       ?OnFinalize@DamageCondition@@MAEXXZ 0044b390 f   damagecondition.obj
 0001:0004a3a0       ?Update@CoinObjective@@MAEXI@Z 0044b3a0 f   coinobjective.obj
 0001:0004a3a0       ?Update@TimerObjective@@MAEXI@Z 0044b3a0 f   timerobjective.obj
 0001:0004a3b0       ?OnUpdate@CoinObjective@@MAEXI@Z 0044b3b0 f   coinobjective.obj
 0001:0004a3e0       ?SetCoinFee@CoinObjective@@QAEXH@Z 0044b3e0 f   coinobjective.obj
 0001:0004a3f0       ?GetCoinAmount@CoinObjective@@QAEHXZ 0044b3f0 f   coinobjective.obj
 0001:0004a400       ??0CollectDumpedObjective@@QAE@XZ 0044b400 f   collectdumpedobjective.obj
 0001:0004a490       ??_ECollectDumpedObjective@@UAEPAXI@Z 0044b490 f i collectdumpedobjective.obj
 0001:0004a490       ??_GCollectDumpedObjective@@UAEPAXI@Z 0044b490 f i collectdumpedobjective.obj
 0001:0004a4b0       ??1CollectDumpedObjective@@UAE@XZ 0044b4b0 f   collectdumpedobjective.obj
 0001:0004a4c0       ?BindCollectibleToWaypoint@CollectDumpedObjective@@QAEXHI@Z 0044b4c0 f   collectdumpedobjective.obj
 0001:0004a4e0       ?SetDumpVehicle@CollectDumpedObjective@@QAEXPAVVehicle@@@Z 0044b4e0 f   collectdumpedobjective.obj
 0001:0004a4f0       ?HandleEvent@CollectDumpedObjective@@UAEXW4EventEnum@@PAX@Z 0044b4f0 f   collectdumpedobjective.obj
 0001:0004a790       ?OnInitCollectibleObjective@CollectDumpedObjective@@MAEXXZ 0044b790 f   collectdumpedobjective.obj
 0001:0004a9f0       ?OnFinalizeCollectibleObjective@CollectDumpedObjective@@MAEXXZ 0044b9f0 f   collectdumpedobjective.obj
 0001:0004aa80       ?OnCollection@CollectDumpedObjective@@MAE_NIAA_N@Z 0044ba80 f   collectdumpedobjective.obj
 0001:0004ab50       ?OnUpdateCollectibleObjective@CollectDumpedObjective@@MAEXI@Z 0044bb50 f   collectdumpedobjective.obj
 0001:0004adc0       ?FindFreeSlot@CollectDumpedObjective@@IAEHXZ 0044bdc0 f   collectdumpedobjective.obj
 0001:0004adf0       ??0CollectibleLocatorData@CollectibleObjective@@QAE@XZ 0044bdf0 f i collectibleobjective.obj
 0001:0004aea0       ??0CollectibleObjective@@QAE@XZ 0044bea0 f   collectibleobjective.obj
 0001:0004af30       ??_GCollectibleObjective@@UAEPAXI@Z 0044bf30 f i collectibleobjective.obj
 0001:0004af30       ??_ECollectibleObjective@@UAEPAXI@Z 0044bf30 f i collectibleobjective.obj
 0001:0004af50       ??1CollectibleLocatorData@CollectibleObjective@@QAE@XZ 0044bf50 f i collectibleobjective.obj
 0001:0004af70       ??1CollectibleObjective@@UAE@XZ 0044bf70 f   collectibleobjective.obj
 0001:0004aff0       ?MoveCollectible@CollectibleObjective@@QAEXIABVVector@RadicalMathLibrary@@@Z 0044bff0 f   collectibleobjective.obj
 0001:0004b080       ?AddCollectibleLocatorName@CollectibleObjective@@QAEXPAD0IM@Z 0044c080 f   collectibleobjective.obj
 0001:0004b0f0       ?SetCollectEffectName@CollectibleObjective@@QAEXPAD@Z 0044c0f0 f   collectibleobjective.obj
 0001:0004b110       ?HandleEvent@CollectibleObjective@@UAEXW4EventEnum@@PAX@Z 0044c110 f   collectibleobjective.obj
 0001:0004b150       ?OnUpdate@CollectibleObjective@@MAEXI@Z 0044c150 f   collectibleobjective.obj
 0001:0004b1c0       ?OnInitialize@CollectibleObjective@@MAEXXZ 0044c1c0 f   collectibleobjective.obj
 0001:0004b4b0       ?GetCollectiblePathInfo@CollectibleObjective@@IAEXIAAUPathElement@RoadManager@@AAM@Z 0044c4b0 f   collectibleobjective.obj
 0001:0004b4e0       ?OnFinalize@CollectibleObjective@@MAEXXZ 0044c4e0 f   collectibleobjective.obj
 0001:0004b570       ?CheckCollectibleLocators@CollectibleObjective@@MAE_NPAVLocator@@@Z 0044c570 f   collectibleobjective.obj
 0001:0004b5e0       ?Collect@CollectibleObjective@@IAEXI_N@Z 0044c5e0 f   collectibleobjective.obj
 0001:0004b740       ?Activate@CollectibleObjective@@IAEXI_N0W4eIconType@HudMapIcon@@0@Z 0044c740 f   collectibleobjective.obj
 0001:0004b7d0       ?SetFocus@CollectibleObjective@@IAEXI@Z 0044c7d0 f   collectibleobjective.obj
 0001:0004b850       ?ResetCollectibles@CollectibleObjective@@IAEXXZ 0044c850 f   collectibleobjective.obj
 0001:0004b8b0       ?DumpCollectible@CollectibleObjective@@IAEXHPAVVehicle@@0_N@Z 0044c8b0 f   collectibleobjective.obj
 0001:0004bd10       ?GetAnyCollectedID@CollectibleObjective@@IBEHXZ 0044cd10 f   collectibleobjective.obj
 0001:0004bd40       ?Uncollect@CollectibleObjective@@IAEXH@Z 0044cd40 f   collectibleobjective.obj
 0001:0004bd80       ??0DeliveryObjective@@QAE@XZ 0044cd80 f   deliveryobjective.obj
 0001:0004bda0       ??_GDeliveryObjective@@UAEPAXI@Z 0044cda0 f i deliveryobjective.obj
 0001:0004bda0       ??_EDeliveryObjective@@UAEPAXI@Z 0044cda0 f i deliveryobjective.obj
 0001:0004bdc0       ??1DeliveryObjective@@UAE@XZ 0044cdc0 f   deliveryobjective.obj
 0001:0004bdd0       ?HandleEvent@DeliveryObjective@@UAEXW4EventEnum@@PAX@Z 0044cdd0 f   deliveryobjective.obj
 0001:0004be80       ?OnInitCollectibles@DeliveryObjective@@MAEXXZ 0044ce80 f   deliveryobjective.obj
 0001:0004bed0       ?OnInitCollectibleObjective@DeliveryObjective@@MAEXXZ 0044ced0 f   deliveryobjective.obj
 0001:0004bf30       ?OnFinalizeCollectibleObjective@DeliveryObjective@@MAEXXZ 0044cf30 f   deliveryobjective.obj
 0001:0004bf80       ?OnCollection@DeliveryObjective@@MAE_NIAA_N@Z 0044cf80 f   deliveryobjective.obj
 0001:0004bff0       ?OnUpdateCollectibleObjective@DeliveryObjective@@MAEXI@Z 0044cff0 f   deliveryobjective.obj
 0001:0004c030       ?SetButtonHandlersEnabled@DeliveryObjective@@IAEX_N@Z 0044d030 f   deliveryobjective.obj
 0001:0004c0d0       ?SetStatePropState@DeliveryObjective@@IAEXH@Z 0044d0d0 f   deliveryobjective.obj
 0001:0004c150       ?SetStatePropHUDIconEnable@DeliveryObjective@@IAEX_N@Z 0044d150 f   deliveryobjective.obj
 0001:0004c1f0       ??0DestroyBossObjective@@QAE@XZ 0044d1f0 f   destroybossobjective.obj
 0001:0004c200       ??_EDestroyBossObjective@@UAEPAXI@Z 0044d200 f i destroybossobjective.obj
 0001:0004c200       ??_GDestroyBossObjective@@UAEPAXI@Z 0044d200 f i destroybossobjective.obj
 0001:0004c220       ??1DestroyBossObjective@@UAE@XZ 0044d220 f   destroybossobjective.obj
 0001:0004c230       ?SetTarget@DestroyBossObjective@@QAEXPAVActor@@@Z 0044d230 f   destroybossobjective.obj
 0001:0004c240       ?OnInitialize@DestroyBossObjective@@MAEXXZ 0044d240 f   destroybossobjective.obj
 0001:0004c270       ?OnFinalize@DestroyBossObjective@@MAEXXZ 0044d270 f   destroybossobjective.obj
 0001:0004c2a0       ?HandleEvent@DestroyBossObjective@@UAEXW4EventEnum@@PAX@Z 0044d2a0 f   destroybossobjective.obj
 0001:0004c2c0       ??0DestroyObjective@@QAE@XZ 0044d2c0 f   destroyobjective.obj
 0001:0004c2e0       ??_EDestroyObjective@@UAEPAXI@Z 0044d2e0 f i destroyobjective.obj
 0001:0004c2e0       ??_GDestroyObjective@@UAEPAXI@Z 0044d2e0 f i destroyobjective.obj
 0001:0004c300       ??1DestroyObjective@@UAE@XZ 0044d300 f   destroyobjective.obj
 0001:0004c310       ?OnInitialize@DestroyObjective@@MAEXXZ 0044d310 f   destroyobjective.obj
 0001:0004c440       ?OnFinalize@DestroyObjective@@MAEXXZ 0044d440 f   destroyobjective.obj
 0001:0004c4a0       ?HandleEvent@DestroyObjective@@UAEXW4EventEnum@@PAX@Z 0044d4a0 f   destroyobjective.obj
 0001:0004c510       ?SetTargetVehicle@DestroyObjective@@QAEXPAVVehicle@@@Z 0044d510 f   destroyobjective.obj
 0001:0004c520       ??0DialogueObjective@@QAE@XZ 0044d520 f   dialogueobjective.obj
 0001:0004c5e0       ??_EDialogueObjective@@UAEPAXI@Z 0044d5e0 f i dialogueobjective.obj
 0001:0004c5e0       ??_GDialogueObjective@@UAEPAXI@Z 0044d5e0 f i dialogueobjective.obj
 0001:0004c600       ??1DialogueObjective@@UAE@XZ 0044d600 f   dialogueobjective.obj
 0001:0004c6c0       ?HandleEvent@DialogueObjective@@UAEXW4EventEnum@@PAX@Z 0044d6c0 f   dialogueobjective.obj
 0001:0004c6d0       ?SetPositions@DialogueObjective@@QAEXPAVCarStartLocator@@00@Z 0044d6d0 f   dialogueobjective.obj
 0001:0004c740       ?CharactersReset@DialogueObjective@@QAE_NXZ 0044d740 f   dialogueobjective.obj
 0001:0004c750       ?SetChar1Name@DialogueObjective@@QAEXPBD@Z 0044d750 f   dialogueobjective.obj
 0001:0004c7a0       ?SetChar2Name@DialogueObjective@@QAEXPBD@Z 0044d7a0 f   dialogueobjective.obj
 0001:0004c7f0       ?SetDialogueName@DialogueObjective@@QAEXPBD@Z 0044d7f0 f   dialogueobjective.obj
 0001:0004c820       ?OnInitialize@DialogueObjective@@MAEXXZ 0044d820 f   dialogueobjective.obj
 0001:0004cae0       ?OnFinalize@DialogueObjective@@MAEXXZ 0044dae0 f   dialogueobjective.obj
 0001:0004cb60       ?ResetCharacterPositions@DialogueObjective@@AAEXXZ 0044db60 f   dialogueobjective.obj
 0001:0004cc90       ??0FMVObjective@@QAE@XZ    0044dc90 f   fmvobjective.obj
 0001:0004ccc0       ??_GFMVObjective@@UAEPAXI@Z 0044dcc0 f i fmvobjective.obj
 0001:0004ccc0       ??_EFMVObjective@@UAEPAXI@Z 0044dcc0 f i fmvobjective.obj
 0001:0004cce0       ??1FMVObjective@@UAE@XZ    0044dce0 f   fmvobjective.obj
 0001:0004cd00       ?OnPresentationEventEnd@FMVObjective@@MAEXPAVPresentationEvent@@@Z 0044dd00 f   fmvobjective.obj
 0001:0004cd30       ?OnInitialize@FMVObjective@@MAEXXZ 0044dd30 f   fmvobjective.obj
 0001:0004cd60       ?SetFileName@FMVObjective@@QAEXPBD@Z 0044dd60 f   fmvobjective.obj
 0001:0004cd80       ??0FollowObjective@@QAE@XZ 0044dd80 f   followobjective.obj
 0001:0004cda0       ??_GFollowObjective@@UAEPAXI@Z 0044dda0 f i followobjective.obj
 0001:0004cda0       ??_EFollowObjective@@UAEPAXI@Z 0044dda0 f i followobjective.obj
 0001:0004cdc0       ??1FollowObjective@@UAE@XZ 0044ddc0 f   followobjective.obj
 0001:0004cdd0       ?OnInitialize@FollowObjective@@MAEXXZ 0044ddd0 f   followobjective.obj
 0001:0004ced0       ?OnFinalize@FollowObjective@@MAEXXZ 0044ded0 f   followobjective.obj
 0001:0004cf10       ?OnUpdate@DestroyObjective@@MAEXI@Z 0044df10 f   destroyobjective.obj
 0001:0004cf10       ?OnUpdate@FollowObjective@@MAEXI@Z 0044df10 f   followobjective.obj
 0001:0004cfa0       ?HandleEvent@FollowObjective@@UAEXW4EventEnum@@PAX@Z 0044dfa0 f   followobjective.obj
 0001:0004cfc0       ??0GetInObjective@@QAE@XZ  0044dfc0 f   getinobjective.obj
 0001:0004d000       ??_GGetInObjective@@UAEPAXI@Z 0044e000 f i getinobjective.obj
 0001:0004d000       ??_EGetInObjective@@UAEPAXI@Z 0044e000 f i getinobjective.obj
 0001:0004d020       ??1GetInObjective@@UAE@XZ  0044e020 f   getinobjective.obj
 0001:0004d040       ?OnInitialize@GetInObjective@@MAEXXZ 0044e040 f   getinobjective.obj
 0001:0004d100       ?OnFinalize@GetInObjective@@MAEXXZ 0044e100 f   getinobjective.obj
 0001:0004d140       ?OnUpdate@GetInObjective@@MAEXI@Z 0044e140 f   getinobjective.obj
 0001:0004d1d0       ?HandleEvent@GetInObjective@@UAEXW4EventEnum@@PAX@Z 0044e1d0 f   getinobjective.obj
 0001:0004d200       ?GetPosition@GetInObjective@@UAEXPAVVector@RadicalMathLibrary@@@Z 0044e200 f   getinobjective.obj
 0001:0004d220       ?GetHeading@GetInObjective@@UAEXPAVVector@RadicalMathLibrary@@@Z 0044e220 f   getinobjective.obj
 0001:0004d240       ??0GoToObjective@@QAE@XZ   0044e240 f   gotoobjective.obj
 0001:0004d330       ??_GGoToObjective@@UAEPAXI@Z 0044e330 f i gotoobjective.obj
 0001:0004d330       ??_EGoToObjective@@UAEPAXI@Z 0044e330 f i gotoobjective.obj
 0001:0004d350       ??1GoToObjective@@UAE@XZ   0044e350 f   gotoobjective.obj
 0001:0004d3e0       ?OnInitialize@GoToObjective@@MAEXXZ 0044e3e0 f   gotoobjective.obj
 0001:0004d630       ?OnFinalize@GoToObjective@@MAEXXZ 0044e630 f   gotoobjective.obj
 0001:0004d710       ?OnUpdate@GoToObjective@@MAEXI@Z 0044e710 f   gotoobjective.obj
 0001:0004d770       ?HandleEvent@GoToObjective@@UAEXW4EventEnum@@PAX@Z 0044e770 f   gotoobjective.obj
 0001:0004d8b0       ?SetDestinationNames@GoToObjective@@QAEXPAD0M@Z 0044e8b0 f   gotoobjective.obj
 0001:0004d8f0       ?SetCollectEffectName@GoToObjective@@QAEXPAD@Z 0044e8f0 f   gotoobjective.obj
 0001:0004d910       ??0InteriorObjective@@QAE@XZ 0044e910 f   interiorobjective.obj
 0001:0004d9e0       ??_EInteriorObjective@@UAEPAXI@Z 0044e9e0 f i interiorobjective.obj
 0001:0004d9e0       ??_GInteriorObjective@@UAEPAXI@Z 0044e9e0 f i interiorobjective.obj
 0001:0004da00       ??1InteriorObjective@@UAE@XZ 0044ea00 f   interiorobjective.obj
 0001:0004da50       ?OnInitialize@InteriorObjective@@MAEXXZ 0044ea50 f   interiorobjective.obj
 0001:0004db40       ?OnFinalize@InteriorObjective@@MAEXXZ 0044eb40 f   interiorobjective.obj
 0001:0004dba0       ?OnUpdate@InteriorObjective@@MAEXI@Z 0044eba0 f   interiorobjective.obj
 0001:0004dbd0       ?HandleEvent@InteriorObjective@@UAEXW4EventEnum@@PAX@Z 0044ebd0 f   interiorobjective.obj
 0001:0004dc10       ?GetPosition@InteriorObjective@@UAEXPAVVector@RadicalMathLibrary@@@Z 0044ec10 f   interiorobjective.obj
 0001:0004dc30       ?GetHeading@InteriorObjective@@UAEXPAVVector@RadicalMathLibrary@@@Z 0044ec30 f   interiorobjective.obj
 0001:0004dc50       ?SetDestination@InteriorObjective@@QAEXPBD@Z 0044ec50 f   interiorobjective.obj
 0001:0004dc70       ?SetIcon@InteriorObjective@@QAEXPBD@Z 0044ec70 f   interiorobjective.obj
 0001:0004dcb0       ??0LoadVehicleObjective@@QAE@XZ 0044ecb0 f   loadvehicleobjective.obj
 0001:0004dcd0       ??_ELoadVehicleObjective@@UAEPAXI@Z 0044ecd0 f i loadvehicleobjective.obj
 0001:0004dcd0       ??_GLoadVehicleObjective@@UAEPAXI@Z 0044ecd0 f i loadvehicleobjective.obj
 0001:0004dcf0       ??1LoadVehicleObjective@@UAE@XZ 0044ecf0 f   loadvehicleobjective.obj
 0001:0004dd10       ?OnInitialize@LoadVehicleObjective@@MAEXXZ 0044ed10 f   loadvehicleobjective.obj
 0001:0004ddb0       ?OnProcessRequestsComplete@LoadDisposableCarAsyncCallback@LoadVehicleObjective@@UAEXPAX@Z 0044edb0 f   loadvehicleobjective.obj
 0001:0004de70       ??0LoseObjective@@QAE@XZ   0044ee70 f   loseobjective.obj
 0001:0004dea0       ??_GLoseObjective@@UAEPAXI@Z 0044eea0 f i loseobjective.obj
 0001:0004dea0       ??_ELoseObjective@@UAEPAXI@Z 0044eea0 f i loseobjective.obj
 0001:0004dec0       ??1LoseObjective@@UAE@XZ   0044eec0 f   loseobjective.obj
 0001:0004ded0       ?OnInitialize@LoseObjective@@MAEXXZ 0044eed0 f   loseobjective.obj
 0001:0004dfd0       ?OnFinalize@LoseObjective@@MAEXXZ 0044efd0 f   loseobjective.obj
 0001:0004e010       ?OnUpdate@LoseObjective@@MAEXI@Z 0044f010 f   loseobjective.obj
 0001:0004e150       ??0NPCStruct@MissionObjective@@QAE@XZ 0044f150 f i missionobjective.obj
 0001:0004e1c0       ??0MissionObjective@@QAE@XZ 0044f1c0 f   missionobjective.obj
 0001:0004e240       ??_EMissionObjective@@UAEPAXI@Z 0044f240 f i missionobjective.obj
 0001:0004e240       ??_GMissionObjective@@UAEPAXI@Z 0044f240 f i missionobjective.obj
 0001:0004e260       ??1NPCStruct@MissionObjective@@QAE@XZ 0044f260 f i missionobjective.obj
 0001:0004e2c0       ??1MissionObjective@@UAE@XZ 0044f2c0 f   missionobjective.obj
 0001:0004e320       ?AddNPCWaypoint@MissionObjective@@QAE_NPBD0@Z 0044f320 f   missionobjective.obj
 0001:0004e3c0       ?Initialize@MissionObjective@@QAEXXZ 0044f3c0 f   missionobjective.obj
 0001:0004e6c0       ?Finalize@MissionObjective@@QAEXXZ 0044f6c0 f   missionobjective.obj
 0001:0004e740       ?Update@MissionObjective@@QAEXI@Z 0044f740 f   missionobjective.obj
 0001:0004e750       ?AddNPC@MissionObjective@@QAEXPBD00@Z 0044f750 f   missionobjective.obj
 0001:0004e7f0       ?RegisterLocator@MissionObjective@@IAEXPAVLocator@@AAH_NW4eIconType@HudMapIcon@@@Z 0044f7f0 f   missionobjective.obj
 0001:0004e830       ?RegisterPosition@MissionObjective@@IAEXABVVector@RadicalMathLibrary@@AAH_NW4eIconType@HudMapIcon@@PAUIHudMapIconLocator@@@Z 0044f830 f   missionobjective.obj
 0001:0004e880       ?UnregisterLocator@MissionObjective@@IAEXAAH@Z 0044f880 f   missionobjective.obj
 0001:0004e8b0       ?UnregisterPosition@MissionObjective@@IAEXAAH@Z 0044f8b0 f   missionobjective.obj
 0001:0004e8c0       ?GetObjectiveType@MissionObjective@@QBE?AW4ObjectiveTypeEnum@1@XZ 0044f8c0 f   missionobjective.obj
 0001:0004e8c0       ?GetDrawable@Transition@GuiSFX@@QAEPAVDrawable@Scrooby@@XZ 0044f8c0 f   transitions.obj
 0001:0004e8c0       ?GetNitroRespawnTime@RespawnManager@@QAEHXZ 0044f8c0 f   respawnmanager.obj
 0001:0004e8d0       ?SetObjectiveType@MissionObjective@@QAEXW4ObjectiveTypeEnum@1@@Z 0044f8d0 f   missionobjective.obj
 0001:0004e8e0       ?UnlightPath@MissionObjective@@IAEXAAV?$SwapArray@UPathElement@RoadManager@@@@@Z 0044f8e0 f   missionobjective.obj
 0001:0004e9b0       ?LightPathRightWay@MissionObjective@@IAEXAAV?$SwapArray@UPathElement@RoadManager@@@@@Z 0044f9b0 f   missionobjective.obj
 0001:0004ea90       ?LightPathWrongWay@MissionObjective@@IAEXAAV?$SwapArray@UPathElement@RoadManager@@@@@Z 0044fa90 f   missionobjective.obj
 0001:0004eb70       ?UpdateLightPath@MissionObjective@@IAEXAAV?$SwapArray@UPathElement@RoadManager@@@@@Z 0044fb70 f   missionobjective.obj
 0001:0004ec30       ?UpdateGroundHeights@MissionObjective@@IAEXAAV?$SwapArray@UPathElement@RoadManager@@@@@Z 0044fc30 f   missionobjective.obj
 0001:0004ec90       ?UpdateLongRoadArrows@MissionObjective@@IAEXAAV?$SwapArray@UPathElement@RoadManager@@@@@Z 0044fc90 f   missionobjective.obj
 0001:0004f010       ?FindNearestRoadIconAhead@MissionObjective@@IAE_NAAV?$SwapArray@UPathElement@RoadManager@@@@AAVVector@RadicalMathLibrary@@11@Z 00450010 f   missionobjective.obj
 0001:0004f230       ?LightPath@MissionObjective@@IAEXAAVVector@RadicalMathLibrary@@AAV?$SwapArray@UPathElement@RoadManager@@@@@Z 00450230 f   missionobjective.obj
 0001:0004f930       ?UpdateAnimPosition@MissionObjective@@IAEXPAVAnimEntityDSG@@AAVVector@RadicalMathLibrary@@@Z 00450930 f   missionobjective.obj
 0001:0004f9b0       ?IsPattyAndSelmaDialog@MissionObjective@@QBE_NXZ 004509b0 f   missionobjective.obj
 0001:0004f9f0       ?IsRaceDialog@MissionObjective@@QBE_NXZ 004509f0 f   missionobjective.obj
 0001:0004fa50       ?find@?$@VCarStartLocator@@@p3d@@YAPAVCarStartLocator@@_K@Z 00450a50 f i missionobjective.obj
 0001:0004fac0       ??0PickupItemObjective@@QAE@XZ 00450ac0 f   pickupitemobjective.obj
 0001:0004fad0       ??_EPickupItemObjective@@UAEPAXI@Z 00450ad0 f i pickupitemobjective.obj
 0001:0004fad0       ??_GPickupItemObjective@@UAEPAXI@Z 00450ad0 f i pickupitemobjective.obj
 0001:0004faf0       ??1PickupItemObjective@@UAE@XZ 00450af0 f   pickupitemobjective.obj
 0001:0004fb00       ?SetTarget@PickupItemObjective@@QAEXPBD@Z 00450b00 f   pickupitemobjective.obj
 0001:0004fb20       ?OnInitialize@PickupItemObjective@@MAEXXZ 00450b20 f   pickupitemobjective.obj
 0001:0004fbc0       ?HandleEvent@PickupItemObjective@@MAEXW4EventEnum@@PAX@Z 00450bc0 f   pickupitemobjective.obj
 0001:0004fc10       ?find@?$@VStatePropCollectible@@@p3d@@YAPAVStatePropCollectible@@_K@Z 00450c10 f i pickupitemobjective.obj
 0001:0004fc80       ?find@?$@VStatePropCollectible@@@p3d@@YAPAVStatePropCollectible@@PAVtEntityStore@@ABVtName@@@Z 00450c80 f i pickupitemobjective.obj
 0001:0004fd10       ?safe_cast@?$SafeCast@VStatePropCollectible@@@radLoadInventory@@UAEPAUIRefCount@@PAU3@@Z 00450d10 f i pickupitemobjective.obj
 0001:0004fd30       ??0RaceObjective@@QAE@XZ   00450d30 f   raceobjective.obj
 0001:0004fdc0       ??_GRaceObjective@@UAEPAXI@Z 00450dc0 f i raceobjective.obj
 0001:0004fdc0       ??_ERaceObjective@@UAEPAXI@Z 00450dc0 f i raceobjective.obj
 0001:0004fde0       ??1RaceObjective@@UAE@XZ   00450de0 f   raceobjective.obj
 0001:0004fdf0       ?OnInitialize@RaceObjective@@MAEXXZ 00450df0 f   raceobjective.obj
 0001:0004ff70       ?OnInitCollectibles@RaceObjective@@MAEXXZ 00450f70 f   raceobjective.obj
 0001:00050020       ?OnInitCollectibleObjective@RaceObjective@@MAEXXZ 00451020 f   raceobjective.obj
 0001:00050320       ?OnFinalizeCollectibleObjective@RaceObjective@@MAEXXZ 00451320 f   raceobjective.obj
 0001:00050400       ?OnCollection@RaceObjective@@MAE_NIAA_N@Z 00451400 f   raceobjective.obj
 0001:00050540       ?OnUpdateCollectibleObjective@RaceObjective@@MAEXI@Z 00451540 f   raceobjective.obj
 0001:00050680       ?QueryIsGambleRace@RaceObjective@@QAE_NXZ 00451680 f   raceobjective.obj
 0001:00050690       ?SetGambleRace@RaceObjective@@QAEX_N@Z 00451690 f   raceobjective.obj
 0001:000506a0       ?SetParTime@RaceObjective@@QAEXH@Z 004516a0 f   raceobjective.obj
 0001:000506c0       ?GetParTime@RaceObjective@@QAEHXZ 004516c0 f   raceobjective.obj
 0001:000506d0       ?CalculatePosition@RaceObjective@@AAEXXZ 004516d0 f   raceobjective.obj
 0001:00050c00       ??0TalkToObjective@@QAE@XZ 00451c00 f   talktoobjective.obj
 0001:00050d00       ??_ETalkToObjective@@UAEPAXI@Z 00451d00 f i talktoobjective.obj
 0001:00050d00       ??_GTalkToObjective@@UAEPAXI@Z 00451d00 f i talktoobjective.obj
 0001:00050d20       ??1TalkToObjective@@UAE@XZ 00451d20 f   talktoobjective.obj
 0001:00050d70       ?SetTalkToTarget@TalkToObjective@@QAEXPBDW4IconType@1@MM@Z 00451d70 f   talktoobjective.obj
 0001:00050de0       ?GetPosition@TalkToObjective@@UAEXPAVVector@RadicalMathLibrary@@@Z 00451de0 f   talktoobjective.obj
 0001:00050e30       ?GetHeading@TalkToObjective@@UAEXPAVVector@RadicalMathLibrary@@@Z 00451e30 f   talktoobjective.obj
 0001:00050e50       ?OnInitialize@TalkToObjective@@MAEXXZ 00451e50 f   talktoobjective.obj
 0001:00051100       ?OnFinalize@TalkToObjective@@MAEXXZ 00452100 f   talktoobjective.obj
 0001:000511c0       ?HandleEvent@TalkToObjective@@UAEXW4EventEnum@@PAX@Z 004521c0 f   talktoobjective.obj
 0001:00051200       ?OnUpdate@TalkToObjective@@MAEXI@Z 00452200 f   talktoobjective.obj
 0001:00051340       ??0TimerObjective@@QAE@XZ  00452340 f   timerobjective.obj
 0001:00051360       ??_ETimerObjective@@UAEPAXI@Z 00452360 f i timerobjective.obj
 0001:00051360       ??_GTimerObjective@@UAEPAXI@Z 00452360 f i timerobjective.obj
 0001:00051380       ??1TimerObjective@@UAE@XZ  00452380 f   timerobjective.obj
 0001:00051390       ?SetTimer@TimerObjective@@QAEXI@Z 00452390 f   timerobjective.obj
 0001:000513a0       ?OnUpdate@TimerObjective@@MAEXI@Z 004523a0 f   timerobjective.obj
 0001:000513d0       ??0DamageCondition@@QAE@XZ 004523d0 f   damagecondition.obj
 0001:00051400       ??_EDamageCondition@@UAEPAXI@Z 00452400 f i damagecondition.obj
 0001:00051400       ??_GDamageCondition@@UAEPAXI@Z 00452400 f i damagecondition.obj
 0001:00051420       ??1DamageCondition@@UAE@XZ 00452420 f   damagecondition.obj
 0001:00051430       ?OnInitialize@DamageCondition@@MAEXXZ 00452430 f   damagecondition.obj
 0001:000514c0       ?HandleEvent@DamageCondition@@UAEXW4EventEnum@@PAX@Z 004524c0 f   damagecondition.obj
 0001:00051610       ??0FollowCondition@@QAE@XZ 00452610 f   followcondition.obj
 0001:00051630       ??_GFollowCondition@@UAEPAXI@Z 00452630 f i followcondition.obj
 0001:00051630       ??_EFollowCondition@@UAEPAXI@Z 00452630 f i followcondition.obj
 0001:00051650       ??1FollowCondition@@UAE@XZ 00452650 f   followcondition.obj
 0001:00051660       ?Update@FollowCondition@@UAEXI@Z 00452660 f   followcondition.obj
 0001:000516f0       ?OnInitialize@FollowCondition@@MAEXXZ 004526f0 f   followcondition.obj
 0001:00051750       ?CalculateDistanceToTarget@FollowCondition@@AAEMXZ 00452750 f   followcondition.obj
 0001:000517c0       ??0GetOutOfCarCondition@@QAE@XZ 004527c0 f   getoutofcarcondition.obj
 0001:000517f0       ??_GGetOutOfCarCondition@@UAEPAXI@Z 004527f0 f i getoutofcarcondition.obj
 0001:000517f0       ??_EGetOutOfCarCondition@@UAEPAXI@Z 004527f0 f i getoutofcarcondition.obj
 0001:00051810       ??1GetOutOfCarCondition@@UAE@XZ 00452810 f   getoutofcarcondition.obj
 0001:00051820       ?Update@GetOutOfCarCondition@@UAEXI@Z 00452820 f   getoutofcarcondition.obj
 0001:00051850       ?HandleEvent@GetOutOfCarCondition@@UAEXW4EventEnum@@PAX@Z 00452850 f   getoutofcarcondition.obj
 0001:000519a0       ?IsClose@GetOutOfCarCondition@@UAE_NXZ 004529a0 f   getoutofcarcondition.obj
 0001:000519c0       ?OnInitialize@GetOutOfCarCondition@@MAEXXZ 004529c0 f   getoutofcarcondition.obj
 0001:000519f0       ?OnFinalize@GetOutOfCarCondition@@MAEXXZ 004529f0 f   getoutofcarcondition.obj
 0001:00051a50       ??0LeaveInteriorCondition@@QAE@XZ 00452a50 f   leaveinteriorcondition.obj
 0001:00051a70       ??_ELeaveInteriorCondition@@UAEPAXI@Z 00452a70 f i leaveinteriorcondition.obj
 0001:00051a70       ??_GLeaveInteriorCondition@@UAEPAXI@Z 00452a70 f i leaveinteriorcondition.obj
 0001:00051a90       ??1LeaveInteriorCondition@@UAE@XZ 00452a90 f   leaveinteriorcondition.obj
 0001:00051aa0       ?HandleEvent@LeaveInteriorCondition@@UAEXW4EventEnum@@PAX@Z 00452aa0 f   leaveinteriorcondition.obj
 0001:00051ab0       ?OnInitialize@LeaveInteriorCondition@@MAEXXZ 00452ab0 f   leaveinteriorcondition.obj
 0001:00051ad0       ?OnFinalize@LeaveInteriorCondition@@MAEXXZ 00452ad0 f   leaveinteriorcondition.obj
 0001:00051af0       ??0MissionCondition@@QAE@XZ 00452af0 f   missioncondition.obj
 0001:00051b10       ??_GMissionCondition@@UAEPAXI@Z 00452b10 f i missioncondition.obj
 0001:00051b10       ??_EMissionCondition@@UAEPAXI@Z 00452b10 f i missioncondition.obj
 0001:00051b30       ??1MissionCondition@@UAE@XZ 00452b30 f   missioncondition.obj
 0001:00051b40       ?Initialize@MissionCondition@@QAEXXZ 00452b40 f   missioncondition.obj
 0001:00051b60       ?Finalize@MissionCondition@@QAEXXZ 00452b60 f   missioncondition.obj
 0001:00051b70       ??0NotAbductedCondition@@QAE@XZ 00452b70 f   notabductedcondition.obj
 0001:00051b80       ??_GNotAbductedCondition@@UAEPAXI@Z 00452b80 f i notabductedcondition.obj
 0001:00051b80       ??_ENotAbductedCondition@@UAEPAXI@Z 00452b80 f i notabductedcondition.obj
 0001:00051ba0       ??1NotAbductedCondition@@UAE@XZ 00452ba0 f   notabductedcondition.obj
 0001:00051bb0       ?HandleEvent@NotAbductedCondition@@MAEXW4EventEnum@@PAX@Z 00452bb0 f   notabductedcondition.obj
 0001:00051be0       ??0OutOfBoundsCondition@@QAE@XZ 00452be0 f   outofboundscondition.obj
 0001:00051c00       ??_EOutOfBoundsCondition@@UAEPAXI@Z 00452c00 f i outofboundscondition.obj
 0001:00051c00       ??_GOutOfBoundsCondition@@UAEPAXI@Z 00452c00 f i outofboundscondition.obj
 0001:00051c20       ??1OutOfBoundsCondition@@UAE@XZ 00452c20 f   outofboundscondition.obj
 0001:00051c30       ?OnInitialize@OutOfBoundsCondition@@MAEXXZ 00452c30 f   outofboundscondition.obj
 0001:00051c50       ?OnFinalize@OutOfBoundsCondition@@MAEXXZ 00452c50 f   outofboundscondition.obj
 0001:00051c70       ?HandleEvent@OutOfBoundsCondition@@UAEXW4EventEnum@@PAX@Z 00452c70 f   outofboundscondition.obj
 0001:00051c90       ??0PositionCondition@@QAE@XZ 00452c90 f   positioncondition.obj
 0001:00051cc0       ??_EPositionCondition@@UAEPAXI@Z 00452cc0 f i positioncondition.obj
 0001:00051cc0       ??_GPositionCondition@@UAEPAXI@Z 00452cc0 f i positioncondition.obj
 0001:00051ce0       ??1PositionCondition@@UAE@XZ 00452ce0 f   positioncondition.obj
 0001:00051cf0       ?HandleEvent@PositionCondition@@UAEXW4EventEnum@@PAX@Z 00452cf0 f   positioncondition.obj
 0001:00051d10       ?OnInitialize@PositionCondition@@EAEXXZ 00452d10 f   positioncondition.obj
 0001:00051d30       ?OnFinalize@PositionCondition@@EAEXXZ 00452d30 f   positioncondition.obj
 0001:00051d50       ??0RaceCondition@@QAE@XZ   00452d50 f   racecondition.obj
 0001:00051d70       ??_ERaceCondition@@UAEPAXI@Z 00452d70 f i racecondition.obj
 0001:00051d70       ??_GRaceCondition@@UAEPAXI@Z 00452d70 f i racecondition.obj
 0001:00051d90       ??1RaceCondition@@UAE@XZ   00452d90 f   racecondition.obj
 0001:00051da0       ?OnInitialize@RaceCondition@@MAEXXZ 00452da0 f   racecondition.obj
 0001:00051dd0       ?OnFinalize@RaceCondition@@MAEXXZ 00452dd0 f   racecondition.obj
 0001:00051e00       ?HandleEvent@RaceCondition@@UAEXW4EventEnum@@PAX@Z 00452e00 f   racecondition.obj
 0001:00051e40       ?IsClose@RaceCondition@@UAE_NXZ 00452e40 f   racecondition.obj
 0001:00051e50       ??0TimeOutCondition@@QAE@XZ 00452e50 f   timeoutcondition.obj
 0001:00051e70       ??_GTimeOutCondition@@UAEPAXI@Z 00452e70 f i timeoutcondition.obj
 0001:00051e70       ??_ETimeOutCondition@@UAEPAXI@Z 00452e70 f i timeoutcondition.obj
 0001:00051e90       ??1TimeOutCondition@@UAE@XZ 00452e90 f   timeoutcondition.obj
 0001:00051ea0       ?Update@TimeOutCondition@@UAEXI@Z 00452ea0 f   timeoutcondition.obj
 0001:00051ed0       ?IsClose@TimeOutCondition@@UAE_NXZ 00452ed0 f   timeoutcondition.obj
 0001:00051ef0       ??0VehicleCarryingStateProp@@QAE@XZ 00452ef0 f   vehiclecarryingstateprop.obj
 0001:00051f00       ??_GVehicleCarryingStateProp@@UAEPAXI@Z 00452f00 f i vehiclecarryingstateprop.obj
 0001:00051f00       ??_EVehicleCarryingStateProp@@UAEPAXI@Z 00452f00 f i vehiclecarryingstateprop.obj
 0001:00051f20       ??1VehicleCarryingStateProp@@UAE@XZ 00452f20 f   vehiclecarryingstateprop.obj
 0001:00051f30       ?HandleEvent@VehicleCarryingStateProp@@UAEXW4EventEnum@@PAX@Z 00452f30 f   vehiclecarryingstateprop.obj
 0001:00051f70       ?OnInitialize@VehicleCarryingStateProp@@MAEXXZ 00452f70 f   vehiclecarryingstateprop.obj
 0001:00051f90       ?OnFinalize@VehicleCarryingStateProp@@MAEXXZ 00452f90 f   vehiclecarryingstateprop.obj
 0001:00051f90       ?OnFinalize@PickupItemObjective@@MAEXXZ 00452f90 f   pickupitemobjective.obj
 0001:00051fb0       ??0VehicleCondition@@QAE@XZ 00452fb0 f   vehiclecondition.obj
 0001:00051fd0       ??_EVehicleCondition@@UAEPAXI@Z 00452fd0 f i vehiclecondition.obj
 0001:00051fd0       ??_GVehicleCondition@@UAEPAXI@Z 00452fd0 f i vehiclecondition.obj
 0001:00051ff0       ??1VehicleCondition@@UAE@XZ 00452ff0 f   vehiclecondition.obj
 0001:00052000       ??_GSafeZone@@UAEPAXI@Z    00453000 f i safezone.obj
 0001:00052000       ??_ESafeZone@@UAEPAXI@Z    00453000 f i safezone.obj
 0001:00052020       ??1SafeZone@@UAE@XZ        00453020 f   safezone.obj
 0001:00052030       ??0SafeZone@@QAE@PAVCarStartLocator@@I@Z 00453030 f   safezone.obj
 0001:00052040       ?InsideZone@SafeZone@@QAE_NVVector@RadicalMathLibrary@@@Z 00453040 f   safezone.obj
 0001:000520b0       ??0Merchandise@@QAE@XZ     004530b0 f   merchandise.obj
 0001:000520d0       ??_EMerchandise@@UAEPAXI@Z 004530d0 f i merchandise.obj
 0001:000520d0       ??_GMerchandise@@UAEPAXI@Z 004530d0 f i merchandise.obj
 0001:000520f0       ??1Merchandise@@UAE@XZ     004530f0 f   merchandise.obj
 0001:00052100       ??0Reward@@QAE@XZ          00453100 f   reward.obj
 0001:00052160       ??_GReward@@UAEPAXI@Z      00453160 f i reward.obj
 0001:00052160       ??_EReward@@UAEPAXI@Z      00453160 f i reward.obj
 0001:00052180       ??1Reward@@UAE@XZ          00453180 f   reward.obj
 0001:00052190       ?SetName@Reward@@QAEXPAD@Z 00453190 f   reward.obj
 0001:000521b0       ?SetRewardType@Reward@@QAEXW4eRewardType@1@@Z 004531b0 f   reward.obj
 0001:000521c0       ?SetQuestType@Reward@@QAEXW4eQuestType@1@@Z 004531c0 f   reward.obj
 0001:000521d0       ?SetFilename@Reward@@QAEXPAD@Z 004531d0 f   reward.obj
 0001:000521f0       ?UnlockReward@Reward@@QAEXXZ 004531f0 f   reward.obj
 0001:00052230       ?CreateInstance@RewardsManager@@SAPAV1@XZ 00453230 f   rewardsmanager.obj
 0001:000522a0       ?GetInstance@RewardsManager@@SAPAV1@XZ 004532a0 f   rewardsmanager.obj
 0001:000522b0       ?DestroyInstance@RewardsManager@@SAXXZ 004532b0 f   rewardsmanager.obj
 0001:000522d0       ?InitRewards@RewardsManager@@QAEXXZ 004532d0 f   rewardsmanager.obj
 0001:000523c0       ?ClearRewards@RewardsManager@@QAEXXZ 004533c0 f   rewardsmanager.obj
 0001:00052440       ?OnProcessRequestsComplete@RewardsManager@@UAEXPAX@Z 00453440 f   rewardsmanager.obj
 0001:00052450       ?LoadScript@RewardsManager@@QAEXXZ 00453450 f   rewardsmanager.obj
 0001:00052470       ?BindReward@RewardsManager@@QAEHPAD0W4eRewardType@Reward@@W4eQuestType@3@H@Z 00453470 f   rewardsmanager.obj
 0001:00052560       ?GetReward@RewardsManager@@QAEPAVReward@@HW4eQuestType@2@@Z 00453560 f   rewardsmanager.obj
 0001:000525e0       ?SetCarAttributes@RewardsManager@@QAEHPADHHHH@Z 004535e0 f   rewardsmanager.obj
 0001:00052680       ?InitCarAttributeRecords@RewardsManager@@QAEXXZ 00453680 f   rewardsmanager.obj
 0001:000526d0       ?GetCarAttributeRecord@RewardsManager@@QAEPAUCarAttributeRecord@@PAD@Z 004536d0 f   rewardsmanager.obj
 0001:00052740       ?InitTokenStore@RewardsManager@@QAEXXZ 00453740 f   rewardsmanager.obj
 0001:000527e0       ?AddMerchandise@RewardsManager@@QAEHPAD0W4eRewardType@Reward@@HHW4eSellerType@Merchandise@@@Z 004537e0 f   rewardsmanager.obj
 0001:000528a0       ?GetMerchandise@RewardsManager@@QAEPAVMerchandise@@HPBD@Z 004538a0 f   rewardsmanager.obj
 0001:00052930       ?GetMerchandise@RewardsManager@@QAEPAVMerchandise@@HH@Z 00453930 f   rewardsmanager.obj
 0001:00052960       ?GetMerchandiseIndex@RewardsManager@@QAEHHPBD@Z 00453960 f   rewardsmanager.obj
 0001:000529e0       ?FindFirstMerchandise@RewardsManager@@QAEPAVMerchandise@@HW4eSellerType@2@@Z 004539e0 f   rewardsmanager.obj
 0001:00052a00       ?FindNextMerchandise@RewardsManager@@QAEPAVMerchandise@@HW4eSellerType@2@@Z 00453a00 f   rewardsmanager.obj
 0001:00052a50       ?BuyMerchandise@RewardsManager@@QAE_NHPBD@Z 00453a50 f   rewardsmanager.obj
 0001:00052ac0       ??0RewardsManager@@AAE@XZ  00453ac0 f   rewardsmanager.obj
 0001:00052af0       ??_ERewardsManager@@EAEPAXI@Z 00453af0 f i rewardsmanager.obj
 0001:00052af0       ??_GRewardsManager@@EAEPAXI@Z 00453af0 f i rewardsmanager.obj
 0001:00052b10       ??1RewardsManager@@EAE@XZ  00453b10 f   rewardsmanager.obj
 0001:00052bc0       ?LevelCheck@RewardsManager@@AAE_NH@Z 00453bc0 f   rewardsmanager.obj
 0001:00052be0       ?IncUpdateQue@RewardsManager@@QAEXXZ 00453be0 f   rewardsmanager.obj
 0001:00052bf0       ?SynchWithCharacterSheet@RewardsManager@@QAEHXZ 00453bf0 f   rewardsmanager.obj
 0001:00052c10       ?SetTotalGags@RewardsManager@@QAEXHH@Z 00453c10 f   rewardsmanager.obj
 0001:00052c20       ?GetTotalGags@RewardsManager@@QBEHH@Z 00453c20 f   rewardsmanager.obj
 0001:00052c30       ?SetTotalWasps@RewardsManager@@QAEXHH@Z 00453c30 f   rewardsmanager.obj
 0001:00052c40       ?GetTotalWasps@RewardsManager@@QBEHH@Z 00453c40 f   rewardsmanager.obj
 0001:00052c50       ?ResetData@CharacterSheetManager@@UAEXXZ 00453c50 f i charactersheetmanager.obj
 0001:00052c60       ?CreateInstance@CharacterSheetManager@@SAPAV1@XZ 00453c60 f   charactersheetmanager.obj
 0001:00052cd0       ?GetInstance@CharacterSheetManager@@SAPAV1@XZ 00453cd0 f   charactersheetmanager.obj
 0001:00052ce0       ?DestroyInstance@CharacterSheetManager@@SAXXZ 00453ce0 f   charactersheetmanager.obj
 0001:00052d00       ?SetMissionComplete@CharacterSheetManager@@QAEXW4LevelEnum@RenderEnums@@PAD_N@Z 00453d00 f   charactersheetmanager.obj
 0001:00052e10       ?IncrementMissionAttempt@CharacterSheetManager@@QAEXW4LevelEnum@RenderEnums@@PAD@Z 00453e10 f   charactersheetmanager.obj
 0001:00052e30       ?QueryNumberOfAttempts@CharacterSheetManager@@QAEHW4LevelEnum@RenderEnums@@H@Z 00453e30 f   charactersheetmanager.obj
 0001:00052e60       ?QueryMissionStatus@CharacterSheetManager@@QAEPAUMissionRecord@@W4LevelEnum@RenderEnums@@H@Z 00453e60 f   charactersheetmanager.obj
 0001:00052e70       ?QueryStreetRaceStatus@CharacterSheetManager@@QAEPAUMissionRecord@@W4LevelEnum@RenderEnums@@PAD@Z 00453e70 f   charactersheetmanager.obj
 0001:00052e80       ?QueryBonusMissionStatus@CharacterSheetManager@@QAEPAUMissionRecord@@W4LevelEnum@RenderEnums@@PAD@Z 00453e80 f   charactersheetmanager.obj
 0001:00052e90       ?QueryAllCardsCollected@CharacterSheetManager@@QAE_NW4LevelEnum@RenderEnums@@@Z 00453e90 f   charactersheetmanager.obj
 0001:00052ec0       ?QueryBonusMissionCompleted@CharacterSheetManager@@QAE_NW4LevelEnum@RenderEnums@@@Z 00453ec0 f   charactersheetmanager.obj
 0001:00052ee0       ?QueryAllStreetRacesCompleted@CharacterSheetManager@@QAE_NW4LevelEnum@RenderEnums@@@Z 00453ee0 f   charactersheetmanager.obj
 0001:00052f10       ?InitCharacterSheet@CharacterSheetManager@@QAEXXZ 00453f10 f   charactersheetmanager.obj
 0001:000530f0       ?AddMission@CharacterSheetManager@@QAEHW4LevelEnum@RenderEnums@@PAD@Z 004540f0 f   charactersheetmanager.obj
 0001:000531a0       ?AddStreetRace@CharacterSheetManager@@QAEHW4LevelEnum@RenderEnums@@PAD@Z 004541a0 f   charactersheetmanager.obj
 0001:00053250       ?AddBonusMission@CharacterSheetManager@@QAEHW4LevelEnum@RenderEnums@@PAD@Z 00454250 f   charactersheetmanager.obj
 0001:000532d0       ?AddCard@CharacterSheetManager@@QAEHW4LevelEnum@RenderEnums@@H@Z 004542d0 f   charactersheetmanager.obj
 0001:00053330       ?LoadData@CharacterSheetManager@@UAEXPBEI@Z 00454330 f   charactersheetmanager.obj
 0001:00053360       ?SaveData@CharacterSheetManager@@UAEXPAEI@Z 00454360 f   charactersheetmanager.obj
 0001:00053380       ?SetCurrentMission@CharacterSheetManager@@QAEXW4LevelEnum@RenderEnums@@W4MissionEnum@3@@Z 00454380 f   charactersheetmanager.obj
 0001:000533c0       ?GetNumberOfTokens@CharacterSheetManager@@QAEHW4LevelEnum@RenderEnums@@@Z 004543c0 f   charactersheetmanager.obj
 0001:000533d0       ?AddTokens@CharacterSheetManager@@QAEXW4LevelEnum@RenderEnums@@H@Z 004543d0 f   charactersheetmanager.obj
 0001:000533f0       ?SubtractTokens@CharacterSheetManager@@QAEXW4LevelEnum@RenderEnums@@H@Z 004543f0 f   charactersheetmanager.obj
 0001:00053410       ?QueryCurrentMission@CharacterSheetManager@@QAE?AUCurrentMissionStruct@@XZ 00454410 f   charactersheetmanager.obj
 0001:00053430       ?QueryHighestMission@CharacterSheetManager@@QAE?AUCurrentMissionStruct@@XZ 00454430 f   charactersheetmanager.obj
 0001:00053450       ?QueryNavSystemSetting@CharacterSheetManager@@QAE_NXZ 00454450 f   charactersheetmanager.obj
 0001:00053460       ?SetNavSystemOn@CharacterSheetManager@@QAEX_N@Z 00454460 f   charactersheetmanager.obj
 0001:00053470       ?SetPurchasedRewards@CharacterSheetManager@@QAEXW4LevelEnum@RenderEnums@@H@Z 00454470 f   charactersheetmanager.obj
 0001:000534c0       ?AddCarToInventory@CharacterSheetManager@@QAEHPBD@Z 004544c0 f   charactersheetmanager.obj
 0001:00053580       ?GetCarIndex@CharacterSheetManager@@QAEHPBD@Z 00454580 f   charactersheetmanager.obj
 0001:000535f0       ?GetCarDamageState@CharacterSheetManager@@QAE?AW4CarDamageStateEnum@@H@Z 004545f0 f   charactersheetmanager.obj
 0001:00053640       ?GetCarHealth@CharacterSheetManager@@QAEMH@Z 00454640 f   charactersheetmanager.obj
 0001:00053660       ?UpdateCarHealth@CharacterSheetManager@@QAEXHM@Z 00454660 f   charactersheetmanager.obj
 0001:00053680       ??0CharacterSheetManager@@AAE@XZ 00454680 f   charactersheetmanager.obj
 0001:000536b0       ??_ECharacterSheetManager@@EAEPAXI@Z 004546b0 f i charactersheetmanager.obj
 0001:000536b0       ??_GCharacterSheetManager@@EAEPAXI@Z 004546b0 f i charactersheetmanager.obj
 0001:000536d0       ??1CharacterSheetManager@@EAE@XZ 004546d0 f   charactersheetmanager.obj
 0001:000536e0       ?GetMissionRecord@CharacterSheetManager@@AAEPAUMissionRecord@@W4LevelEnum@RenderEnums@@PAD@Z 004546e0 f   charactersheetmanager.obj
 0001:00053760       ?GetMissionRecord@CharacterSheetManager@@AAEPAUMissionRecord@@W4LevelEnum@RenderEnums@@H@Z 00454760 f   charactersheetmanager.obj
 0001:00053790       ?GetStreetRaceRecord@CharacterSheetManager@@AAEPAUMissionRecord@@W4LevelEnum@RenderEnums@@PAD@Z 00454790 f   charactersheetmanager.obj
 0001:00053810       ?GetBonusMissionRecord@CharacterSheetManager@@AAEPAUMissionRecord@@W4LevelEnum@RenderEnums@@PAD@Z 00454810 f   charactersheetmanager.obj
 0001:00053880       ?GetCollectableRecord@CharacterSheetManager@@AAEPAURecord@@W4LevelEnum@RenderEnums@@W4eCollectableType@1@H@Z 00454880 f   charactersheetmanager.obj
 0001:000538b0       ?QueryFMVUnlocked@CharacterSheetManager@@QAE_NW4LevelEnum@RenderEnums@@@Z 004548b0 f   charactersheetmanager.obj
 0001:000538d0       ?SetFMVUnlocked@CharacterSheetManager@@QAEXW4LevelEnum@RenderEnums@@@Z 004548d0 f   charactersheetmanager.obj
 0001:000538f0       ?QueryNumMissionsCompleted@CharacterSheetManager@@QAEHW4LevelEnum@RenderEnums@@@Z 004548f0 f   charactersheetmanager.obj
 0001:00053940       ?QueryNumWaspsDestroyed@CharacterSheetManager@@QAEHW4LevelEnum@RenderEnums@@@Z 00454940 f   charactersheetmanager.obj
 0001:00053950       ?QueryNumGagsViewed@CharacterSheetManager@@QAEHW4LevelEnum@RenderEnums@@@Z 00454950 f   charactersheetmanager.obj
 0001:00053960       ?QueryGagViewed@CharacterSheetManager@@QAE_NW4LevelEnum@RenderEnums@@I@Z 00454960 f   charactersheetmanager.obj
 0001:00053990       ?IncNumWaspsDestroyed@CharacterSheetManager@@QAEXW4LevelEnum@RenderEnums@@@Z 00454990 f   charactersheetmanager.obj
 0001:000539a0       ?AddGagViewed@CharacterSheetManager@@QAEXW4LevelEnum@RenderEnums@@I@Z 004549a0 f   charactersheetmanager.obj
 0001:000539e0       ?QueryNumCarUnlocked@CharacterSheetManager@@QAEHW4LevelEnum@RenderEnums@@@Z 004549e0 f   charactersheetmanager.obj
 0001:00053a30       ?QueryNumSkinsUnlocked@CharacterSheetManager@@QAEHW4LevelEnum@RenderEnums@@@Z 00454a30 f   charactersheetmanager.obj
 0001:00053a50       ?QueryNumStreetRacesCompleted@CharacterSheetManager@@QAEHW4LevelEnum@RenderEnums@@@Z 00454a50 f   charactersheetmanager.obj
 0001:00053a90       ?QueryNumCardsCollected@CharacterSheetManager@@QAEHW4LevelEnum@RenderEnums@@@Z 00454a90 f   charactersheetmanager.obj
 0001:00053ae0       ?QueryPercentLevelCompleted@CharacterSheetManager@@QBEMW4LevelEnum@RenderEnums@@@Z 00454ae0 f   charactersheetmanager.obj
 0001:00053b40       ?QueryPercentGameCompleted@CharacterSheetManager@@QBEMXZ 00454b40 f   charactersheetmanager.obj
 0001:00053bb0       ?UpdateRewardsManager@CharacterSheetManager@@QAEHXZ 00454bb0 f   charactersheetmanager.obj
 0001:00053c90       ?IsMiniGameUnlocked@CharacterSheetManager@@QBE_NXZ 00454c90 f   charactersheetmanager.obj
 0001:00053cb0       ?IsState@CharacterSheetManager@@QAE_NH@Z 00454cb0 f   charactersheetmanager.obj
 0001:00053ce0       ?SetState@CharacterSheetManager@@QAEXH_N@Z 00454ce0 f   charactersheetmanager.obj
 0001:00053d20       ??_ERespawnEntity@@UAEPAXI@Z 00454d20 f i respawnentity.obj
 0001:00053d20       ??_GRespawnEntity@@UAEPAXI@Z 00454d20 f i respawnentity.obj
 0001:00053d40       ??0RespawnEntity@@QAE@W4eRespawnEntity@0@@Z 00454d40 f   respawnentity.obj
 0001:00053d70       ??1RespawnEntity@@UAE@XZ   00454d70 f   respawnentity.obj
 0001:00053d80       ?Update@RespawnEntity@@UAEXI@Z 00454d80 f   respawnentity.obj
 0001:00053da0       ?EntityCollected@RespawnEntity@@QAEXXZ 00454da0 f   respawnentity.obj
 0001:00053db0       ?ShouldEntityRespawn@RespawnEntity@@QAE_NXZ 00454db0 f   respawnentity.obj
 0001:00053dd0       ??0RespawnManager@@QAE@XZ  00454dd0 f   respawnmanager.obj
 0001:00053df0       ?SetNitroRespawnTime@RespawnManager@@QAEHH@Z 00454df0 f   respawnmanager.obj
 0001:00053e00       ?SetWrenchRespawnTime@RespawnManager@@QAEHH@Z 00454e00 f   respawnmanager.obj
 0001:00053e10       ?SetWaspRespawnTime@RespawnManager@@QAEHH@Z 00454e10 f   respawnmanager.obj
 0001:00053e20       ?GetRespawnTime@RespawnManager@@QAEHW4eRespawnEntity@RespawnEntity@@@Z 00454e20 f   respawnmanager.obj
 0001:00053e40       ??0AnimationPlayer@@QAE@XZ 00454e40 f   animplayer.obj
 0001:00053e60       ??_EAnimationPlayer@@UAEPAXI@Z 00454e60 f i animplayer.obj
 0001:00053e60       ??_GAnimationPlayer@@UAEPAXI@Z 00454e60 f i animplayer.obj
 0001:00053e80       ??1AnimationPlayer@@UAE@XZ 00454e80 f   animplayer.obj
 0001:00053e90       ?LoadData@AnimationPlayer@@UAEXPBD_NPAX@Z 00454e90 f   animplayer.obj
 0001:00053f20       ?LoadData@AnimationPlayer@@UAEXPBDPAULoadDataCallBack@1@_NPAX@Z 00454f20 f   animplayer.obj
 0001:00053f40       ?OnProcessRequestsComplete@AnimationPlayer@@UAEXPAX@Z 00454f40 f   animplayer.obj
 0001:00054000       ?Play@AnimationPlayer@@UAEXXZ 00455000 f   animplayer.obj
 0001:00054030       ?Render@AnimationPlayer@@QAEXXZ 00455030 f   animplayer.obj
 0001:00054050       ?Stop@AnimationPlayer@@UAEXXZ 00455050 f   animplayer.obj
 0001:00054080       ?ClearData@AnimationPlayer@@UAEXXZ 00455080 f   animplayer.obj
 0001:000540a0       ?EnterExclusive@AnimationPlayer@@IAEXXZ 004550a0 f   animplayer.obj
 0001:000540e0       ?LeaveExclusive@AnimationPlayer@@IAEXXZ 004550e0 f   animplayer.obj
 0001:00054110       ??0Blinker@@QAE@XZ         00455110 f   blinker.obj
 0001:00054130       ??_GBlinker@@UAEPAXI@Z     00455130 f i blinker.obj
 0001:00054130       ??_EBlinker@@UAEPAXI@Z     00455130 f i blinker.obj
 0001:00054150       ??1Blinker@@UAE@XZ         00455150 f   blinker.obj
 0001:00054170       ?SetCharacter@Blinker@@QAEXPAVCharacter@@@Z 00455170 f   blinker.obj
 0001:00054220       ?Update@Blinker@@QAEXH@Z   00455220 f   blinker.obj
 0001:00054350       ??0CameraPlayer@@QAE@XZ    00455350 f   cameraplayer.obj
 0001:00054370       ??_GCameraPlayer@@UAEPAXI@Z 00455370 f i cameraplayer.obj
 0001:00054370       ??_ECameraPlayer@@UAEPAXI@Z 00455370 f i cameraplayer.obj
 0001:00054390       ??1CameraPlayer@@UAE@XZ    00455390 f   cameraplayer.obj
 0001:000543a0       ?ClearData@CameraPlayer@@UAEXXZ 004553a0 f   cameraplayer.obj
 0001:000543d0       ?DoLoaded@CameraPlayer@@MAEXXZ 004553d0 f   cameraplayer.obj
 0001:00054400       ?find@?$@VtAnimation@@@p3d@@YAPAVtAnimation@@PAVtEntityStore@@PBD@Z 00455400 f i cameraplayer.obj
 0001:00054470       ?find@?$@VtAnimation@@@p3d@@YAPAVtAnimation@@PAVtEntityStore@@ABVtName@@@Z 00455470 f i cameraplayer.obj
 0001:00054500       ?safe_cast@?$SafeCast@VtAnimation@@@radLoadInventory@@UAEPAUIRefCount@@PAU3@@Z 00455500 f i cameraplayer.obj
 0001:00054520       ?SetIsEnabled@PoseDriver@poser@@UAEX_N@Z 00455520 f i mouthflapper.obj
 0001:00054520       ?SetResourceLockdown@daSoundResourceManager@Sound@@UAEX_N@Z 00455520 f i soundresourcemanager.obj
 0001:00054530       ??1UsedModel@PedestrianManager@@QAE@XZ 00455530 f i pedestrianmanager.obj
 0001:00054530       ??1MouthFlapperDefaultSetting@@QAE@XZ 00455530 f i mouthflapper.obj
 0001:00054530       ??1tTextureGlyph@@QAE@XZ   00455530 f i pure3dwr:texturefont.obj
 0001:00054540       ??0MouthFlapper@@QAE@XZ    00455540 f   mouthflapper.obj
 0001:000545d0       ??_EMouthFlapper@@UAEPAXI@Z 004555d0 f i mouthflapper.obj
 0001:000545d0       ??_GMouthFlapper@@UAEPAXI@Z 004555d0 f i mouthflapper.obj
 0001:000545f0       ??1MouthFlapper@@UAE@XZ    004555f0 f   mouthflapper.obj
 0001:00054650       ?GetDefaultSettings@MouthFlapper@@QAEXABVtName@@@Z 00455650 f   mouthflapper.obj
 0001:00054710       ?GetNumberOfDefaultSettings@MouthFlapper@@KAIXZ 00455710 f   mouthflapper.obj
 0001:00054720       ?SetCharacter@MouthFlapper@@QAEXPAVCharacter@@@Z 00455720 f   mouthflapper.obj
 0001:00054790       ?Advance@MouthFlapper@@UAEXM@Z 00455790 f   mouthflapper.obj
 0001:000547a0       ?Update@MouthFlapper@@UAEXPAVPose@poser@@@Z 004557a0 f   mouthflapper.obj
 0001:000548d0       ?NeuSpeed@MouthFlapper@@AAEXXZ 004558d0 f   mouthflapper.obj
 0001:00054970       ??0MouthFlapperDefaultSetting@@QAE@ABVtName@@MMMMM@Z 00455970 f   mouthflapper.obj
 0001:000549a0       ??0MouthFlapperDefaultSetting@@QAE@ABV0@@Z 004559a0 f   mouthflapper.obj
 0001:000549f0       ?GetMaxDeviation@MouthFlapperDefaultSetting@@QBE?BMXZ 004559f0 f   mouthflapper.obj
 0001:000549f0       ?GetYCorrectionValue@Wheel@@AAEMXZ 004559f0 f   wheel.obj
 0001:00054a00       ?GetMaxOpen@MouthFlapperDefaultSetting@@QBE?BMXZ 00455a00 f   mouthflapper.obj
 0001:00054a10       ?GetMaxSpeed@MouthFlapperDefaultSetting@@QBE?BMXZ 00455a10 f   mouthflapper.obj
 0001:00054a20       ?GetMinOpen@MouthFlapperDefaultSetting@@QBE?BMXZ 00455a20 f   mouthflapper.obj
 0001:00054a30       ?GetMinSpeed@MouthFlapperDefaultSetting@@QBE?BMXZ 00455a30 f   mouthflapper.obj
 0001:00054a40       ??4MouthFlapperDefaultSetting@@QAEAAV0@ABV0@@Z 00455a40 f   mouthflapper.obj
 0001:00054a70       ??0NISPlayer@@QAE@XZ       00455a70 f   nisplayer.obj
 0001:00054a90       ??_ENISPlayer@@UAEPAXI@Z   00455a90 f i nisplayer.obj
 0001:00054a90       ??_GNISPlayer@@UAEPAXI@Z   00455a90 f i nisplayer.obj
 0001:00054ab0       ??1NISPlayer@@UAE@XZ       00455ab0 f   nisplayer.obj
 0001:00054ac0       ?ClearData@NISPlayer@@UAEXXZ 00455ac0 f   nisplayer.obj
 0001:00054b00       ?DoLoaded@NISPlayer@@MAEXXZ 00455b00 f   nisplayer.obj
 0001:00054ba0       ?DoRender@NISPlayer@@MAEXXZ 00455ba0 f   nisplayer.obj
 0001:00054bc0       ?find@?$@VScenegraph@0@@p3d@@YAPAVScenegraph@2@PAVtEntityStore@@PBD@Z 00455bc0 f i nisplayer.obj
 0001:00054c30       ?find@?$@VtCompositeDrawable@@@p3d@@YAPAVtCompositeDrawable@@PAVtEntityStore@@PBD@Z 00455c30 f i nisplayer.obj
 0001:00054ca0       ?find@?$@VScenegraph@0@@p3d@@YAPAVScenegraph@2@PAVtEntityStore@@ABVtName@@@Z 00455ca0 f i nisplayer.obj
 0001:00054d30       ?find@?$@VtCompositeDrawable@@@p3d@@YAPAVtCompositeDrawable@@PAVtEntityStore@@ABVtName@@@Z 00455d30 f i nisplayer.obj
 0001:00054dc0       ?safe_cast@?$SafeCast@VScenegraph@1@@radLoadInventory@@UAEPAUIRefCount@@PAU3@@Z 00455dc0 f i nisplayer.obj
 0001:00054de0       ?safe_cast@?$SafeCast@VtCompositeDrawable@@@radLoadInventory@@UAEPAUIRefCount@@PAU3@@Z 00455de0 f i nisplayer.obj
 0001:00054e00       ??0PlayerDrawable@@QAE@XZ  00455e00 f   playerdrawable.obj
 0001:00054e20       ?Display@PlayerDrawable@@UAEXXZ 00455e20 f   playerdrawable.obj
 0001:00054e30       ?CreateInstance@PresentationManager@@SAPAV1@XZ 00455e30 f   presentation.obj
 0001:00054eb0       ?GetInstance@PresentationManager@@SAPAV1@XZ 00455eb0 f   presentation.obj
 0001:00054ec0       ?DestroyInstance@PresentationManager@@SAXXZ 00455ec0 f   presentation.obj
 0001:00054ee0       ??0PresentationManager@@AAE@XZ 00455ee0 f   presentation.obj
 0001:00055170       ??_GPresentationManager@@EAEPAXI@Z 00456170 f i presentation.obj
 0001:00055170       ??_EPresentationManager@@EAEPAXI@Z 00456170 f i presentation.obj
 0001:00055190       ??1PresentationManager@@EAE@XZ 00456190 f   presentation.obj
 0001:00055280       ?Initialize@PresentationManager@@QAEXXZ 00456280 f   presentation.obj
 0001:000553d0       ?Finalize@PresentationManager@@QAEXXZ 004563d0 f   presentation.obj
 0001:000554e0       ?InitializePlayerDrawable@PresentationManager@@QAEXXZ 004564e0 f   presentation.obj
 0001:00055520       ?FinalizePlayerDrawable@PresentationManager@@QAEXXZ 00456520 f   presentation.obj
 0001:00055550       ?GetAnimatorNpc@PresentationManager@@QAEPAVPresentationAnimator@@XZ 00456550 f   presentation.obj
 0001:00055560       ?GetAnimatorPc@PresentationManager@@QAEPAVPresentationAnimator@@XZ 00456560 f   presentation.obj
 0001:00055560       ?GetNumLanes@RoadSegmentData@@QBEIXZ 00456560 f   roadsegmentdata.obj
 0001:00055570       ?PlayFMV@PresentationManager@@QAEXPBDPAUPresentationEventCallBack@PresentationEvent@@@Z 00456570 f   presentation.obj
 0001:00055690       ?OnPresentationEventBegin@PresentationManager@@MAEXPAVPresentationEvent@@@Z 00456690 f   presentation.obj
 0001:00055710       ?OnPresentationEventLoadComplete@PresentationManager@@MAEXPAVPresentationEvent@@@Z 00456710 f   presentation.obj
 0001:00055730       ?OnPresentationEventEnd@PresentationManager@@MAEXPAVPresentationEvent@@@Z 00456730 f   presentation.obj
 0001:000557f0       ?OnProcessRequestsComplete@PresentationManager@@MAEXPAX@Z 004567f0 f   presentation.obj
 0001:000558c0       ?QueueFMV@PresentationManager@@QAEXPAPAVFMVEvent@@PAUPresentationEventCallBack@PresentationEvent@@@Z 004568c0 f   presentation.obj
 0001:000558f0       ?Update@PresentationManager@@QAEXI@Z 004568f0 f   presentation.obj
 0001:00055a00       ?GetCameraTargetForLineOfDialog@PresentationManager@@IBE?BVtName@@I@Z 00456a00 f   presentation.obj
 0001:00055a50       ?HandleEvent@PresentationManager@@UAEXW4EventEnum@@PAX@Z 00456a50 f   presentation.obj
 0001:00055f40       ?AddToQueue@PresentationManager@@IAEXPAVPresentationEvent@@@Z 00456f40 f   presentation.obj
 0001:00055f60       ?ReturnToPool@PresentationManager@@IAEXPAVPresentationEvent@@@Z 00456f60 f   presentation.obj
 0001:00055f80       ?GetFirst@PresentationManager@@IAEPAVPresentationEvent@@XZ 00456f80 f   presentation.obj
 0001:00055fb0       ?OnGameplayStart@PresentationManager@@QAEXXZ 00456fb0 f   presentation.obj
 0001:00055fd0       ?SetCamerasForLineOfDialog@PresentationManager@@QAEXABV?$vector@VtName@@V?$s2alloc@VtName@@@@@std@@@Z 00456fd0 f   presentation.obj
 0001:00056020       ?InConversation@PresentationManager@@QBE_NXZ 00457020 f   presentation.obj
 0001:00056030       ?StopAll@PresentationManager@@QAEXXZ 00457030 f   presentation.obj
 0001:00056050       ??0PresentationOverlay@@QAE@XZ 00457050 f   presentation.obj
 0001:00056090       ??_GPresentationOverlay@@UAEPAXI@Z 00457090 f i presentation.obj
 0001:00056090       ??_EPlayerDrawable@@UAEPAXI@Z 00457090 f i playerdrawable.obj
 0001:00056090       ??_GtOpticEffect@@MAEPAXI@Z 00457090 f i pure3dwr:optic.obj
 0001:00056090       ??_EtOpticEffect@@MAEPAXI@Z 00457090 f i pure3dwr:optic.obj
 0001:00056090       ??_EtDrawable@@MAEPAXI@Z   00457090 f i actionbuttonhandler.obj
 0001:00056090       ??_GPlayerDrawable@@UAEPAXI@Z 00457090 f i playerdrawable.obj
 0001:00056090       ??_EPresentationOverlay@@UAEPAXI@Z 00457090 f i presentation.obj
 0001:00056090       ??_GFrustrumDrawable@@UAEPAXI@Z 00457090 f i supercamcentral.obj
 0001:00056090       ??_GtDrawable@@MAEPAXI@Z   00457090 f i actionbuttonhandler.obj
 0001:00056090       ??_EFrustrumDrawable@@UAEPAXI@Z 00457090 f i supercamcentral.obj
 0001:000560b0       ?Update@PresentationOverlay@@QAEXI@Z 004570b0 f   presentation.obj
 0001:00056130       ?Display@PresentationOverlay@@UAEXXZ 00457130 f   presentation.obj
 0001:00056410       ?_Construct_n@?$vector@VtName@@V?$s2alloc@VtName@@@@@std@@QAEXIABVtName@@@Z 00457410 f i presentation.obj
 0001:00056480       ??0?$AllocPool@VFMVEvent@@@@QAE@W4GameMemoryAllocator@@I@Z 00457480 f i presentation.obj
 0001:00056520       ??1?$AllocPool@VFMVEvent@@@@UAE@XZ 00457520 f i presentation.obj
 0001:00056570       ?AllocateFromPool@?$AllocPool@VFMVEvent@@@@QAEPAVFMVEvent@@XZ 00457570 f i presentation.obj
 0001:000565b0       ?ReturnToPool@?$AllocPool@VFMVEvent@@@@QAEXI@Z 004575b0 f i presentation.obj
 0001:000565f0       ??0?$AllocPool@VNISEvent@@@@QAE@W4GameMemoryAllocator@@I@Z 004575f0 f i presentation.obj
 0001:000566a0       ??1?$AllocPool@VNISEvent@@@@UAE@XZ 004576a0 f i presentation.obj
 0001:000566f0       ?ReturnToPool@?$AllocPool@VNISEvent@@@@QAEXI@Z 004576f0 f i presentation.obj
 0001:00056730       ??0?$AllocPool@VTransitionEvent@@@@QAE@W4GameMemoryAllocator@@I@Z 00457730 f i presentation.obj
 0001:000567d0       ??1?$AllocPool@VTransitionEvent@@@@UAE@XZ 004577d0 f i presentation.obj
 0001:00056820       ?ReturnToPool@?$AllocPool@VTransitionEvent@@@@QAEXI@Z 00457820 f i presentation.obj
 0001:00056860       ?Initialize@?$AllocPool@VNISEvent@@@@MAEXXZ 00457860 f i presentation.obj
 0001:00056860       ?Initialize@?$AllocPool@VFMVEvent@@@@MAEXXZ 00457860 f i presentation.obj
 0001:00056860       ?Initialize@?$AllocPool@VTransitionEvent@@@@MAEXXZ 00457860 f i presentation.obj
 0001:00056880       ??_G?$AllocPool@VFMVEvent@@@@UAEPAXI@Z 00457880 f i presentation.obj
 0001:00056880       ??_E?$AllocPool@VFMVEvent@@@@UAEPAXI@Z 00457880 f i presentation.obj
 0001:000568a0       ??_EFMVEvent@@UAEPAXI@Z    004578a0 f i presentation.obj
 0001:00056900       ??_E?$AllocPool@VNISEvent@@@@UAEPAXI@Z 00457900 f i presentation.obj
 0001:00056900       ??_G?$AllocPool@VNISEvent@@@@UAEPAXI@Z 00457900 f i presentation.obj
 0001:00056920       ??_ENISEvent@@UAEPAXI@Z    00457920 f i presentation.obj
 0001:00056980       ??_G?$AllocPool@VTransitionEvent@@@@UAEPAXI@Z 00457980 f i presentation.obj
 0001:00056980       ??_E?$AllocPool@VTransitionEvent@@@@UAEPAXI@Z 00457980 f i presentation.obj
 0001:000569a0       ??_ETransitionEvent@@UAEPAXI@Z 004579a0 f i presentation.obj
 0001:00056a00       ??0TransitionEvent@@QAE@XZ 00457a00 f i presentation.obj
 0001:00056a10       ??1TransitionEvent@@UAE@XZ 00457a10 f i presentation.obj
 0001:00056a20       ?_Insert@?$vector@VtName@@V?$s2alloc@VtName@@@@@std@@QAEXV?$_Ptrit@VtName@@HPAV1@AAV1@PAV1@AAV1@@2@V?$_Ptrit@VtName@@HPBV1@ABV1@PAV1@AAV1@@2@1Uforward_iterator_tag@2@@Z 00457a20 f i presentation.obj
 0001:00056d10       ?copy@std@@YA?AV?$_Ptrit@VtName@@HPAV1@AAV1@PAV1@AAV1@@1@V?$_Ptrit@VtName@@HPBV1@ABV1@PAV1@AAV1@@1@0V21@@Z 00457d10 f i presentation.obj
 0001:00056d40       ?_Copy_opt@std@@YA?AV?$_Ptrit@VtName@@HPAV1@AAV1@PAV1@AAV1@@1@V?$_Ptrit@VtName@@HPBV1@ABV1@PAV1@AAV1@@1@0V21@U_Nonscalar_ptr_iterator_tag@1@@Z 00457d40 f i presentation.obj
 0001:00056d40       ?_Copy_opt@std@@YA?AV?$_Ptrit@VtName@@HPAV1@AAV1@PAV1@AAV1@@1@V21@00U_Nonscalar_ptr_iterator_tag@1@@Z 00457d40 f i presentationanimator.obj
 0001:00056d90       ?_Uninit_copy@std@@YAPAVtName@@V?$_Ptrit@VtName@@HPAV1@AAV1@PAV1@AAV1@@1@0PAV2@AAV?$s2alloc@VtName@@@@U_Nonscalar_ptr_iterator_tag@1@@Z 00457d90 f i missionstage.obj
 0001:00056d90       ?_Uninit_copy@std@@YAPAVtName@@V?$_Ptrit@VtName@@HPBV1@ABV1@PAV1@AAV1@@1@0PAV2@AAV?$s2alloc@VtName@@@@U_Nonscalar_ptr_iterator_tag@1@@Z 00457d90 f i presentation.obj
 0001:00056e20       ??0PresentationAnimator@@QAE@XZ 00457e20 f   presentationanimator.obj
 0001:00056ea0       ??_EPresentationAnimator@@UAEPAXI@Z 00457ea0 f i presentationanimator.obj
 0001:00056ea0       ??_GPresentationAnimator@@UAEPAXI@Z 00457ea0 f i presentationanimator.obj
 0001:00056ec0       ??1PresentationAnimator@@UAE@XZ 00457ec0 f   presentationanimator.obj
 0001:00056f20       ?AddAmbientAnimations@PresentationAnimator@@QAEXABV?$vector@VtName@@V?$s2alloc@VtName@@@@@std@@@Z 00457f20 f   presentationanimator.obj
 0001:00056f80       ?ClearAmbientAnimations@PresentationAnimator@@QAEXXZ 00457f80 f   presentationanimator.obj
 0001:00056fb0       ?ChooseNextAnimation@PresentationAnimator@@AAE?BVtName@@XZ 00457fb0 f   presentationanimator.obj
 0001:00057060       ?ChooseRandomAnimation@PresentationAnimator@@ABE?BVtName@@XZ 00458060 f   presentationanimator.obj
 0001:000570b0       ?SetCharacter@PresentationAnimator@@QAEXPAVCharacter@@@Z 004580b0 f   presentationanimator.obj
 0001:000570c0       ?PlaySpecialAmbientAnimation@PresentationAnimator@@QAEXXZ 004580c0 f   presentationanimator.obj
 0001:00057240       ?SetRandomSelection@PresentationAnimator@@QAEX_N@Z 00458240 f   presentationanimator.obj
 0001:00057250       ?GetRandomSelection@PresentationAnimator@@QBE?B_NXZ 00458250 f   presentationanimator.obj
 0001:00057260       ?StartTalking@PresentationAnimator@@QAEXXZ 00458260 f   presentationanimator.obj
 0001:00057290       ?StopTalking@PresentationAnimator@@QAEXXZ 00458290 f   presentationanimator.obj
 0001:000572c0       ?TalkFor@PresentationAnimator@@QAEXH@Z 004582c0 f   presentationanimator.obj
 0001:000572d0       ?Update@PresentationAnimator@@QAEXH@Z 004582d0 f   presentationanimator.obj
 0001:00057300       ?erase@?$vector@VtName@@V?$s2alloc@VtName@@@@@std@@QAE?AV?$_Ptrit@VtName@@HPAV1@AAV1@PAV1@AAV1@@2@V32@@Z 00458300 f i presentationanimator.obj
 0001:00057360       ??0SimpleAnimationPlayer@@QAE@XZ 00458360 f   simpleanimationplayer.obj
 0001:000573b0       ??_ESimpleAnimationPlayer@@UAEPAXI@Z 004583b0 f i simpleanimationplayer.obj
 0001:000573b0       ??_GSimpleAnimationPlayer@@UAEPAXI@Z 004583b0 f i simpleanimationplayer.obj
 0001:000573d0       ??1SimpleAnimationPlayer@@UAE@XZ 004583d0 f   simpleanimationplayer.obj
 0001:000573e0       ?Update@SimpleAnimationPlayer@@UAEXI@Z 004583e0 f   simpleanimationplayer.obj
 0001:000574a0       ?Rewind@SimpleAnimationPlayer@@QAEXXZ 004584a0 f   simpleanimationplayer.obj
 0001:000574d0       ?ClearData@SimpleAnimationPlayer@@UAEXXZ 004584d0 f   simpleanimationplayer.obj
 0001:00057520       ?SetNameData@SimpleAnimationPlayer@@QAEXPAD00@Z 00458520 f   simpleanimationplayer.obj
 0001:00057560       ?DoLoaded@SimpleAnimationPlayer@@MAEXXZ 00458560 f   simpleanimationplayer.obj
 0001:00057680       ?DoRender@SimpleAnimationPlayer@@MAEXXZ 00458680 f   simpleanimationplayer.obj
 0001:00057750       ?SetIntroLoop@SimpleAnimationPlayer@@QAEXI@Z 00458750 f   simpleanimationplayer.obj
 0001:00057760       ?SetOutroLoop@SimpleAnimationPlayer@@QAEXI@Z 00458760 f   simpleanimationplayer.obj
 0001:00057770       ?Play@SimpleAnimationPlayer@@UAEXXZ 00458770 f   simpleanimationplayer.obj
 0001:00057790       ?DoneIntro@SimpleAnimationPlayer@@QAEXXZ 00458790 f   simpleanimationplayer.obj
 0001:000577e0       ?find@?$@VtCamera@@@p3d@@YAPAVtCamera@@PAVtEntityStore@@PBD@Z 004587e0 f i simpleanimationplayer.obj
 0001:00057850       ??0TransitionPlayer@@QAE@XZ 00458850 f   transitionplayer.obj
 0001:00057870       ??_GTransitionPlayer@@UAEPAXI@Z 00458870 f i transitionplayer.obj
 0001:00057870       ??_ETransitionPlayer@@UAEPAXI@Z 00458870 f i transitionplayer.obj
 0001:00057890       ??1TransitionPlayer@@UAE@XZ 00458890 f   transitionplayer.obj
 0001:000578a0       ?SetTransition@TransitionPlayer@@QAEXPAUTransitionInfo@1@@Z 004588a0 f   transitionplayer.obj
 0001:000578f0       ?Update@TransitionPlayer@@UAEXI@Z 004588f0 f   transitionplayer.obj
 0001:00057960       ?DoUpdate@TransitionPlayer@@MAEXI@Z 00458960 f   transitionplayer.obj
 0001:000579e0       ?CreateInstance@TutorialManager@@SAPAV1@XZ 004589e0 f   tutorialmanager.obj
 0001:00057a50       ?GetInstance@TutorialManager@@SAPAV1@XZ 00458a50 f   tutorialmanager.obj
 0001:00057a60       ?AddToQueue@TutorialManager@@IAEXW4TutorialMode@@@Z 00458a60 f   tutorialmanager.obj
 0001:00057a80       ?DestroyInstance@TutorialManager@@SAXXZ 00458a80 f   tutorialmanager.obj
 0001:00057aa0       ??0TutorialManager@@AAE@XZ 00458aa0 f   tutorialmanager.obj
 0001:00057b90       ??_GTutorialManager@@EAEPAXI@Z 00458b90 f i tutorialmanager.obj
 0001:00057b90       ??_ETutorialManager@@EAEPAXI@Z 00458b90 f i tutorialmanager.obj
 0001:00057bb0       ??1TutorialManager@@EAE@XZ 00458bb0 f   tutorialmanager.obj
 0001:00057c00       ?HandleEvent@TutorialManager@@UAEXW4EventEnum@@PAX@Z 00458c00 f   tutorialmanager.obj
 0001:00057f90       ?Initialize@TutorialManager@@QAEXXZ 00458f90 f   tutorialmanager.obj
 0001:000580c0       ?MarkDialogFinished@TutorialManager@@QAEXXZ 004590c0 f   tutorialmanager.obj
 0001:000580d0       ?ProcessQueue@TutorialManager@@IAEXXZ 004590d0 f   tutorialmanager.obj
 0001:00058330       ?Update@TutorialManager@@QAEXM@Z 00459330 f   tutorialmanager.obj
 0001:00058380       ?LoadData@TutorialManager@@UAEXPBEI@Z 00459380 f   tutorialmanager.obj
 0001:000583b0       ?SaveData@TutorialManager@@UAEXPAEI@Z 004593b0 f   tutorialmanager.obj
 0001:000583d0       ?ResetData@TutorialManager@@UAEXXZ 004593d0 f   tutorialmanager.obj
 0001:00058400       ?QueryTutorialSeen@TutorialManager@@IAE_NW4TutorialMode@@@Z 00459400 f   tutorialmanager.obj
 0001:00058420       ?SetTutorialSeen@TutorialManager@@IAEXW4TutorialMode@@_N@Z 00459420 f   tutorialmanager.obj
 0001:00058420       ?SetFlag@AnimatedIcon@@AAEXW4Flag@1@_N@Z 00459420 f   animatedicon.obj
 0001:00058440       ?reserve@?$vector@PAVSelectableDialog@@V?$s2alloc@PAVSelectableDialog@@@@@std@@QAEXI@Z 00459440 f i dialogselectiongroup.obj
 0001:00058440       ?reserve@?$vector@PAVEventListener@@V?$s2alloc@PAVEventListener@@@@@std@@QAEXI@Z 00459440 f i eventmanager.obj
 0001:00058440       ?reserve@?$vector@PAVCollisionObject@sim@@V?$s2alloc@PAVCollisionObject@sim@@@@@std@@QAEXI@Z 00459440 f i intersectionlist.obj
 0001:00058440       ?reserve@?$vector@PAVIEntityDSG@@V?$s2alloc@PAVIEntityDSG@@@@@std@@QAEXI@Z 00459440 f i WorldScene.obj
 0001:00058440       ?reserve@?$vector@W4TutorialMode@@V?$s2alloc@W4TutorialMode@@@@@std@@QAEXI@Z 00459440 f i tutorialmanager.obj
 0001:00058530       ?erase@?$vector@W4TutorialMode@@V?$s2alloc@W4TutorialMode@@@@@std@@QAE?AV?$_Ptrit@W4TutorialMode@@HPAW41@AAW41@PAW41@AAW41@@2@V32@@Z 00459530 f i tutorialmanager.obj
 0001:00058560       ?GetUserData@FMVEvent@@MAEPAXXZ 00459560 f i fmvevent.obj
 0001:00058570       ??0FMVEvent@@QAE@XZ        00459570 f   fmvevent.obj
 0001:00058590       ??1FMVEvent@@UAE@XZ        00459590 f   fmvevent.obj
 0001:000585a0       ?GetPlayer@FMVEvent@@UAEPAVAnimationPlayer@@XZ 004595a0 f   fmvevent.obj
 0001:000585b0       ??0FMVEventData@FMVEvent@@QAE@XZ 004595b0 f   fmvevent.obj
 0001:000585c0       ??0NISEvent@@QAE@XZ        004595c0 f   nisevent.obj
 0001:000585e0       ??1NISEvent@@UAE@XZ        004595e0 f   nisevent.obj
 0001:000585f0       ?Init@NISEvent@@UAEXXZ     004595f0 f   nisevent.obj
 0001:00058600       ?Start@NISEvent@@UAEXXZ    00459600 f   nisevent.obj
 0001:00058620       ?GetPlayer@NISEvent@@UAEPAVAnimationPlayer@@XZ 00459620 f   nisevent.obj
 0001:00058640       ?SetNames@NISEvent@@AAEXXZ 00459640 f   nisevent.obj
 0001:000586b0       ??0PresentationEvent@@QAE@XZ 004596b0 f   presentationevent.obj
 0001:000586c0       ??_GPresentationEvent@@UAEPAXI@Z 004596c0 f i presentationevent.obj
 0001:000586c0       ??_EPresentationEvent@@UAEPAXI@Z 004596c0 f i presentationevent.obj
 0001:000586e0       ??1PresentationEvent@@UAE@XZ 004596e0 f   presentationevent.obj
 0001:000586f0       ?OnLoadDataComplete@PresentationEvent@@UAEXXZ 004596f0 f   presentationevent.obj
 0001:00058700       ?Update@PresentationEvent@@QAE_NI@Z 00459700 f   presentationevent.obj
 0001:00058730       ?Start@PresentationEvent@@UAEXXZ 00459730 f   presentationevent.obj
 0001:00058770       ?Stop@PresentationEvent@@UAEXXZ 00459770 f   presentationevent.obj
 0001:00058790       ?Init@PresentationEvent@@UAEXXZ 00459790 f   presentationevent.obj
 0001:000587b0       ?GetPlayer@TransitionEvent@@UAEPAVAnimationPlayer@@XZ 004597b0 f   transevent.obj
 0001:000587c0       ?Start@TransitionEvent@@UAEXXZ 004597c0 f   transevent.obj
 0001:000587e0       ??0CGuiEntity@@QAE@PAV0@@Z 004597e0 f   guientity.obj
 0001:000587f0       ??_GCGuiEntity@@UAEPAXI@Z  004597f0 f i guientity.obj
 0001:000587f0       ??_ECGuiEntity@@UAEPAXI@Z  004597f0 f i guientity.obj
 0001:00058810       ??1CGuiEntity@@UAE@XZ      00459810 f   guientity.obj
 0001:00058820       ??0CGuiManager@@QAE@PAVProject@Scrooby@@PAVCGuiEntity@@@Z 00459820 f   guimanager.obj
 0001:000588b0       ??_GCGuiManager@@UAEPAXI@Z 004598b0 f i guimanager.obj
 0001:000588b0       ??_ECGuiManager@@UAEPAXI@Z 004598b0 f i guimanager.obj
 0001:000588d0       ??1CGuiManager@@UAE@XZ     004598d0 f   guimanager.obj
 0001:00058940       ?HandleMessage@CGuiManager@@UAEXW4eGuiMessage@@II@Z 00459940 f   guimanager.obj
 0001:00058ad0       ?OnGotoScreenComplete@CGuiManager@@UAEXXZ 00459ad0 f   guimanager.obj
 0001:00058b20       ?FindWindowByID@CGuiManager@@QAEPAVCGuiWindow@@W4eGuiWindowID@2@@Z 00459b20 f   guimanager.obj
 0001:00058b40       ?DisplayMessage@CGuiManager@@QAEXHPAVCGuiEntity@@@Z 00459b40 f   guimanager.obj
 0001:00058b60       ?DisplayPrompt@CGuiManager@@QAEXHPAVCGuiEntity@@W4eGenericPromptType@@_N@Z 00459b60 f   guimanager.obj
 0001:00058bd0       ?DisplayErrorPrompt@CGuiManager@@QAEXHPAVCGuiEntity@@H@Z 00459bd0 f   guimanager.obj
 0001:00058c60       ?GetPreviousScreen@CGuiManager@@QBE?AW4eGuiWindowID@CGuiWindow@@H@Z 00459c60 f   guimanager.obj
 0001:00058c80       ?GetCurrentScreen@CGuiManager@@QBE?AW4eGuiWindowID@CGuiWindow@@XZ 00459c80 f   guimanager.obj
 0001:00058c90       ?AddWindow@CGuiManager@@IAEXW4eGuiWindowID@CGuiWindow@@PAV3@@Z 00459c90 f   guimanager.obj
 0001:00058ca0       ?RemoveAllWindows@CGuiManager@@IAEXXZ 00459ca0 f   guimanager.obj
 0001:00058ce0       ?PushScreenHistory@CGuiManager@@IAEXW4eGuiWindowID@CGuiWindow@@@Z 00459ce0 f   guimanager.obj
 0001:00058d00       ?PopScreenHistory@CGuiManager@@IAE?AW4eGuiWindowID@CGuiWindow@@XZ 00459d00 f   guimanager.obj
 0001:00058d20       ??_ECGuiManager@@WBA@AEPAXI@Z 00459d20 f i guimanager.obj
 0001:00058d30       ??0CGuiMenu@@QAE@PAVCGuiEntity@@HW4eMenuType@@H@Z 00459d30 f   guimenu.obj
 0001:00058de0       ??_ECGuiMenu@@UAEPAXI@Z    00459de0 f i guimenu.obj
 0001:00058de0       ??_GCGuiMenu@@UAEPAXI@Z    00459de0 f i guimenu.obj
 0001:00058e00       ??1CGuiMenu@@UAE@XZ        00459e00 f   guimenu.obj
 0001:00058e90       ?HandleMessage@CGuiMenu@@UAEXW4eGuiMessage@@II@Z 00459e90 f   guimenu.obj
 0001:00058f40       ?AddMenuItem@CGuiMenu@@QAEXPAVBoundedDrawable@Scrooby@@0PAVPolygon@3@PAVSprite@3@22H@Z 00459f40 f   guimenu.obj
 0001:00059080       ?SetMenuItemEnabled@CGuiMenu@@QAEXH_N0@Z 0045a080 f   guimenu.obj
 0001:000591e0       ?Reset@CGuiMenu@@QAEXH@Z   0045a1e0 f   guimenu.obj
 0001:00059200       ?SetHighlightColour@CGuiMenu@@QAEX_NUpddiColour@@@Z 0045a200 f   guimenu.obj
 0001:00059220       ?SetSelectionValue@CGuiMenu@@QAEXHH@Z 0045a220 f   guimenu.obj
 0001:00059250       ?SetSelectionValueCount@CGuiMenu@@QAEXHH@Z 0045a250 f   guimenu.obj
 0001:000592e0       ?MakeSelection@CGuiMenu@@QAEXXZ 0045a2e0 f   guimenu.obj
 0001:00059340       ?SelectItem@CGuiMenu@@IAEXH@Z 0045a340 f   guimenu.obj
 0001:00059400       ?UnselectItem@CGuiMenu@@IAEXH@Z 0045a400 f   guimenu.obj
 0001:000594f0       ?ChangeSelection@CGuiMenu@@IAEXH_N@Z 0045a4f0 f   guimenu.obj
 0001:00059570       ?IncrementSelectionValue@CGuiMenu@@IAEX_N@Z 0045a570 f   guimenu.obj
 0001:000595f0       ?DecrementSelectionValue@CGuiMenu@@IAEX_N@Z 0045a5f0 f   guimenu.obj
 0001:00059680       ?UpdateCurrentSelection@CGuiMenu@@AAEXH@Z 0045a680 f   guimenu.obj
 0001:00059a70       ?MoveCursor@CGuiMenu@@AAEXHH@Z 0045aa70 f   guimenu.obj
 0001:00059b00       ??0CGuiMenu2D@@QAE@PAVCGuiEntity@@HHW4eMenuType@@H@Z 0045ab00 f   guimenu.obj
 0001:00059b20       ??_ECGuiMenu2D@@UAEPAXI@Z  0045ab20 f i guimenu.obj
 0001:00059b20       ??_GCGuiMenu2D@@UAEPAXI@Z  0045ab20 f i guimenu.obj
 0001:00059b40       ??1CGuiMenu2D@@UAE@XZ      0045ab40 f   guimenu.obj
 0001:00059b50       ?HandleMessage@CGuiMenu2D@@UAEXW4eGuiMessage@@II@Z 0045ab50 f   guimenu.obj
 0001:00059bd0       ??0CGuiMenuPrompt@@QAE@PAVCGuiEntity@@PAVPage@Scrooby@@HH@Z 0045abd0 f   guimenu.obj
 0001:00059cc0       ??_ECGuiMenuPrompt@@UAEPAXI@Z 0045acc0 f i guimenu.obj
 0001:00059cc0       ??_GCGuiMenuPrompt@@UAEPAXI@Z 0045acc0 f i guimenu.obj
 0001:00059ce0       ??1CGuiMenuPrompt@@UAE@XZ  0045ace0 f   guimenu.obj
 0001:00059cf0       ?SetNumResponses@CGuiMenuPrompt@@QAEXH@Z 0045acf0 f   guimenu.obj
 0001:00059d20       ?SetResponse@CGuiMenuPrompt@@QAEXHW4ePromptResponse@1@@Z 0045ad20 f   guimenu.obj
 0001:00059d50       ?GetResponse@CGuiMenuPrompt@@QBE?AW4ePromptResponse@1@H@Z 0045ad50 f   guimenu.obj
 0001:00059d80       ?GetItem@GuiMenuItemText@@UBEPAVBoundedDrawable@Scrooby@@XZ 0045ad80 f i guimenuitem.obj
 0001:00059d80       ?GetItem@GuiMenuItemSprite@@UBEPAVBoundedDrawable@Scrooby@@XZ 0045ad80 f i guimenuitem.obj
 0001:00059da0       ?GetItemValue@GuiMenuItemText@@UBEPAVBoundedDrawable@Scrooby@@XZ 0045ada0 f i guimenuitem.obj
 0001:00059da0       ?GetItemValue@GuiMenuItemSprite@@UBEPAVBoundedDrawable@Scrooby@@XZ 0045ada0 f i guimenuitem.obj
 0001:00059dc0       ??0GuiMenuItem@@QAE@XZ     0045adc0 f   guimenuitem.obj
 0001:00059df0       ??_EGuiMenuItem@@UAEPAXI@Z 0045adf0 f i guimenuitem.obj
 0001:00059df0       ??_GGuiMenuItem@@UAEPAXI@Z 0045adf0 f i guimenuitem.obj
 0001:00059e10       ??1GuiMenuItem@@UAE@XZ     0045ae10 f   guimenuitem.obj
 0001:00059e20       ??0GuiMenuItemText@@QAE@XZ 0045ae20 f   guimenuitem.obj
 0001:00059e40       ??1GuiMenuItemSprite@@UAE@XZ 0045ae40 f i guimenuitem.obj
 0001:00059e40       ??1GuiMenuItemText@@UAE@XZ 0045ae40 f i guimenuitem.obj
 0001:00059e50       ?SetItem@GuiMenuItemText@@UAEXPAVBoundedDrawable@Scrooby@@@Z 0045ae50 f   guimenuitem.obj
 0001:00059e80       ?SetItemValue@GuiMenuItemText@@UAEXPAVBoundedDrawable@Scrooby@@@Z 0045ae80 f   guimenuitem.obj
 0001:00059eb0       ?SetItemValueIndex@GuiMenuItemText@@UAEXH@Z 0045aeb0 f   guimenuitem.obj
 0001:00059ec0       ?GetItemValueIndex@GuiMenuItemText@@UBEHXZ 0045aec0 f   guimenuitem.obj
 0001:00059ec0       ?GetItemValueIndex@GuiMenuItemSprite@@UBEHXZ 0045aec0 f   guimenuitem.obj
 0001:00059ed0       ?SetDisplayOutline@GuiMenuItemText@@UAEX_N@Z 0045aed0 f   guimenuitem.obj
 0001:00059f00       ?SetOutlineColour@GuiMenuItemText@@UAEXUpddiColour@@@Z 0045af00 f   guimenuitem.obj
 0001:00059f30       ?GetOutlineColour@GuiMenuItemText@@UBE?AUpddiColour@@XZ 0045af30 f   guimenuitem.obj
 0001:00059f50       ??0GuiMenuItemSprite@@QAE@XZ 0045af50 f   guimenuitem.obj
 0001:00059f70       ??_EGuiMenuItemSprite@@UAEPAXI@Z 0045af70 f i guimenuitem.obj
 0001:00059f70       ??_GGuiMenuItemText@@UAEPAXI@Z 0045af70 f i guimenuitem.obj
 0001:00059f70       ??_GGuiMenuItemSprite@@UAEPAXI@Z 0045af70 f i guimenuitem.obj
 0001:00059f70       ??_EGuiMenuItemText@@UAEPAXI@Z 0045af70 f i guimenuitem.obj
 0001:00059f90       ?SetItem@GuiMenuItemSprite@@UAEXPAVBoundedDrawable@Scrooby@@@Z 0045af90 f   guimenuitem.obj
 0001:00059fc0       ?SetItemValue@GuiMenuItemSprite@@UAEXPAVBoundedDrawable@Scrooby@@@Z 0045afc0 f   guimenuitem.obj
 0001:00059ff0       ?SetItemValueIndex@GuiMenuItemSprite@@UAEXH@Z 0045aff0 f   guimenuitem.obj
 0001:0005a000       ?GetOutlineColour@GuiMenuItemSprite@@UBE?AUpddiColour@@XZ 0045b000 f   guimenuitem.obj
 0001:0005a010       ??0CGuiScreen@@QAE@PAVScreen@Scrooby@@PAVCGuiEntity@@W4eGuiWindowID@CGuiWindow@@I@Z 0045b010 f   guiscreen.obj
 0001:0005a290       ??_ECGuiScreen@@UAEPAXI@Z  0045b290 f i guiscreen.obj
 0001:0005a290       ??_GCGuiScreen@@UAEPAXI@Z  0045b290 f i guiscreen.obj
 0001:0005a2b0       ??1CGuiScreen@@UAE@XZ      0045b2b0 f   guiscreen.obj
 0001:0005a310       ?HandleMessage@CGuiScreen@@UAEXW4eGuiMessage@@II@Z 0045b310 f   guiscreen.obj
 0001:0005a850       ?SetFadingEnabled@CGuiScreen@@QAEX_N@Z 0045b850 f   guiscreen.obj
 0001:0005a8a0       ?SetZoomingEnabled@CGuiScreen@@QAEX_N@Z 0045b8a0 f   guiscreen.obj
 0001:0005a8e0       ?SetSlidingEnabled@CGuiScreen@@QAEXW4eScreenEffect@@_N@Z 0045b8e0 f   guiscreen.obj
 0001:0005a900       ?SetIrisWipeEnabled@CGuiScreen@@QAEX_N0@Z 0045b900 f   guiscreen.obj
 0001:0005a930       ?Reset3dFEMultiController@CGuiScreen@@SAXXZ 0045b930 f   guiscreen.obj
 0001:0005a950       ?SetButtonVisible@CGuiScreen@@QAEXW4eButtonIcon@@_N@Z 0045b950 f   guiscreen.obj
 0001:0005a970       ?IsButtonVisible@CGuiScreen@@QBE_NW4eButtonIcon@@@Z 0045b970 f   guiscreen.obj
 0001:0005a990       ?StartTransitionAnimation@CGuiScreen@@QAEXHH_N@Z 0045b990 f   guiscreen.obj
 0001:0005aa10       ?ReloadScreen@CGuiScreen@@QAEXXZ 0045ba10 f   guiscreen.obj
 0001:0005aa30       ?RestoreScreenCover@CGuiScreen@@QAEXXZ 0045ba30 f   guiscreen.obj
 0001:0005aa80       ?RestoreButtons@CGuiScreen@@QAEXXZ 0045ba80 f   guiscreen.obj
 0001:0005aab0       ?ApplyWideScreenCorrectionScale@CGuiScreen@@SAXPAVDrawable@Scrooby@@@Z 0045bab0 f   guiscreen.obj
 0001:0005ab00       ?RestoreDefaultFadeTime@CGuiScreen@@IAEXXZ 0045bb00 f   guiscreen.obj
 0001:0005ab10       ?IrisWipeOpen@CGuiScreen@@IAEXXZ 0045bb10 f   guiscreen.obj
 0001:0005ab30       ?SetAlphaForLayers@CGuiScreen@@IAEXMPAPAVLayer@Scrooby@@H@Z 0045bb30 f   guiscreen.obj
 0001:0005ab60       ?AutoScaleFrame@CGuiScreen@@IAEXPAVPage@Scrooby@@@Z 0045bb60 f   guiscreen.obj
 0001:0005ad20       ?FadeIn@CGuiScreen@@AAEXM@Z 0045bd20 f   guiscreen.obj
 0001:0005adf0       ?FadeOut@CGuiScreen@@AAEXM@Z 0045bdf0 f   guiscreen.obj
 0001:0005aed0       ?ZoomIn@CGuiScreen@@AAEXM@Z 0045bed0 f   guiscreen.obj
 0001:0005af60       ?ZoomOut@CGuiScreen@@AAEXM@Z 0045bf60 f   guiscreen.obj
 0001:0005aff0       ?SlideIn@CGuiScreen@@AAEXM@Z 0045bff0 f   guiscreen.obj
 0001:0005b0f0       ?SlideOut@CGuiScreen@@AAEXM@Z 0045c0f0 f   guiscreen.obj
 0001:0005b1f0       ?OnIrisWipeClosed@CGuiScreen@@AAEXXZ 0045c1f0 f   guiscreen.obj
 0001:0005b220       ??0CGuiScreenMemCardCheck@@QAE@PAVScreen@Scrooby@@PAVCGuiEntity@@@Z 0045c220 f   guiscreenmemcardcheck.obj
 0001:0005b300       ??_ECGuiScreenMemCardCheck@@UAEPAXI@Z 0045c300 f i guiscreenmemcardcheck.obj
 0001:0005b300       ??_GCGuiScreenMemCardCheck@@UAEPAXI@Z 0045c300 f i guiscreenmemcardcheck.obj
 0001:0005b320       ??1CGuiScreenMemCardCheck@@UAE@XZ 0045c320 f   guiscreenmemcardcheck.obj
 0001:0005b340       ?HandleMessage@CGuiScreenMemCardCheck@@UAEXW4eGuiMessage@@II@Z 0045c340 f   guiscreenmemcardcheck.obj
 0001:0005b510       ?OnFormatOperationComplete@CGuiScreenMemCardCheck@@UAEXW4radFileError@@@Z 0045c510 f   guiscreenmemcardcheck.obj
 0001:0005b530       ?OnMemoryCardCheckDone@CGuiScreenMemCardCheck@@UAEXW4radFileError@@W4MediaState@MediaInfo@IRadDrive@@HH@Z 0045c530 f   guiscreenmemcardcheck.obj
 0001:0005b5e0       ?InitIntro@CGuiScreenMemCardCheck@@MAEXXZ 0045c5e0 f   guiscreenmemcardcheck.obj
 0001:0005b600       ?InitRunning@CGuiScreenMemCardCheck@@MAEXXZ 0045c600 f   guiscreenmemcardcheck.obj
 0001:0005b620       ??0CGuiScreenLoadSave@@QAE@PAVScreen@Scrooby@@@Z 0045c620 f   guiscreenmemorycard.obj
 0001:0005b6f0       ??_GCGuiScreenLoadSave@@UAEPAXI@Z 0045c6f0 f i guiscreenmemorycard.obj
 0001:0005b6f0       ??_ECGuiScreenLoadSave@@UAEPAXI@Z 0045c6f0 f i guiscreenmemorycard.obj
 0001:0005b710       ??1CGuiScreenLoadSave@@UAE@XZ 0045c710 f   guiscreenmemorycard.obj
 0001:0005b720       ?HandleMessage@CGuiScreenLoadSave@@UAEXW4eGuiMessage@@II@Z 0045c720 f   guiscreenmemorycard.obj
 0001:0005b770       ?FormatCurrentDrive@CGuiScreenLoadSave@@IAEXXZ 0045c770 f   guiscreenmemorycard.obj
 0001:0005b7a0       ?OnFormatOperationComplete@CGuiScreenLoadSave@@UAEXW4radFileError@@@Z 0045c7a0 f   guiscreenmemorycard.obj
 0001:0005b7c0       ?UpdateCurrentMemoryDevice@CGuiScreenLoadSave@@IAEXXZ 0045c7c0 f   guiscreenmemorycard.obj
 0001:0005b8d0       ??0CGuiScreenMemoryCard@@QAE@PAVScreen@Scrooby@@PAVCGuiEntity@@@Z 0045c8d0 f   guiscreenmemorycard.obj
 0001:0005bbb0       ??_GCGuiScreenMemoryCard@@UAEPAXI@Z 0045cbb0 f i guiscreenmemorycard.obj
 0001:0005bbb0       ??_ECGuiScreenMemoryCard@@UAEPAXI@Z 0045cbb0 f i guiscreenmemorycard.obj
 0001:0005bbd0       ??1CGuiScreenMemoryCard@@UAE@XZ 0045cbd0 f   guiscreenmemorycard.obj
 0001:0005bc40       ?HandleMessage@CGuiScreenMemoryCard@@UAEXW4eGuiMessage@@II@Z 0045cc40 f   guiscreenmemorycard.obj
 0001:0005bdd0       ?InitIntro@CGuiScreenMemoryCard@@MAEXXZ 0045cdd0 f   guiscreenmemorycard.obj
 0001:0005be50       ?UpdateDeviceList@CGuiScreenMemoryCard@@AAEX_N@Z 0045ce50 f   guiscreenmemorycard.obj
 0001:0005c050       ?UpdateFreeSpace@CGuiScreenMemoryCard@@AAEXI@Z 0045d050 f   guiscreenmemorycard.obj
 0001:0005c0e0       ??0CGuiScreenMessage@@QAE@PAVScreen@Scrooby@@PAVCGuiEntity@@@Z 0045d0e0 f   guiscreenmessage.obj
 0001:0005c1c0       ??_ECGuiScreenMessage@@UAEPAXI@Z 0045d1c0 f i guiscreenmessage.obj
 0001:0005c1c0       ??_GCGuiScreenMessage@@UAEPAXI@Z 0045d1c0 f i guiscreenmessage.obj
 0001:0005c1e0       ??1CGuiScreenMessage@@UAE@XZ 0045d1e0 f   guiscreenmessage.obj
 0001:0005c250       ?HandleMessage@CGuiScreenMessage@@UAEXW4eGuiMessage@@II@Z 0045d250 f   guiscreenmessage.obj
 0001:0005c380       ?Display@CGuiScreenMessage@@SAXHPAVCGuiEntity@@@Z 0045d380 f   guiscreenmessage.obj
 0001:0005c390       ?FormatMessage@CGuiScreenMessage@@SAXPAVText@Scrooby@@PAGH@Z 0045d390 f   guiscreenmessage.obj
 0001:0005c3b0       ?InitIntro@CGuiScreenMessage@@MAEXXZ 0045d3b0 f   guiscreenmessage.obj
 0001:0005c410       ?InitRunning@CGuiScreenMessage@@MAEXXZ 0045d410 f   guiscreenmessage.obj
 0001:0005c430       ??0CGuiScreenPrompt@@QAE@PAVScreen@Scrooby@@PAVCGuiEntity@@W4eGuiWindowID@CGuiWindow@@@Z 0045d430 f   guiscreenprompt.obj
 0001:0005c640       ??_GCGuiScreenPrompt@@UAEPAXI@Z 0045d640 f i guiscreenprompt.obj
 0001:0005c640       ??_ECGuiScreenPrompt@@UAEPAXI@Z 0045d640 f i guiscreenprompt.obj
 0001:0005c660       ??1CGuiScreenPrompt@@UAE@XZ 0045d660 f   guiscreenprompt.obj
 0001:0005c6d0       ?HandleMessage@CGuiScreenPrompt@@UAEXW4eGuiMessage@@II@Z 0045d6d0 f   guiscreenprompt.obj
 0001:0005c8f0       ?Display@CGuiScreenPrompt@@SAXHPAVCGuiEntity@@HPAW4ePromptResponse@CGuiMenuPrompt@@@Z 0045d8f0 f   guiscreenprompt.obj
 0001:0005c940       ?InitIntro@CGuiScreenPrompt@@MAEXXZ 0045d940 f   guiscreenprompt.obj
 0001:0005ca00       ?CreateInstance@CGuiSystem@@SAPAV1@XZ 0045da00 f   guisystem.obj
 0001:0005ca60       ?DestroyInstance@CGuiSystem@@SAXXZ 0045da60 f   guisystem.obj
 0001:0005ca80       ?GetInstance@CGuiSystem@@SAPAV1@XZ 0045da80 f   guisystem.obj
 0001:0005ca90       ??0CGuiSystem@@AAE@XZ      0045da90 f   guisystem.obj
 0001:0005cb50       ??_ECGuiSystem@@EAEPAXI@Z  0045db50 f i guisystem.obj
 0001:0005cb50       ??_GCGuiSystem@@EAEPAXI@Z  0045db50 f i guisystem.obj
 0001:0005cb70       ??1CGuiSystem@@EAE@XZ      0045db70 f   guisystem.obj
 0001:0005cc90       ?Init@CGuiSystem@@QAEXXZ   0045dc90 f   guisystem.obj
 0001:0005ce30       ?Update@CGuiSystem@@QAEXI@Z 0045de30 f   guisystem.obj
 0001:0005ce90       ?HandleMessage@CGuiSystem@@UAEXW4eGuiMessage@@II@Z 0045de90 f   guisystem.obj
 0001:0005d030       ?OnProjectLoadComplete@CGuiSystem@@UAEXPAVProject@Scrooby@@@Z 0045e030 f   guisystem.obj
 0001:0005d2d0       ?GotoScreen@CGuiSystem@@QAEXIIII@Z 0045e2d0 f   guisystem.obj
 0001:0005d310       ?GetCurrentManager@CGuiSystem@@QBEPAVCGuiManager@@XZ 0045e310 f   guisystem.obj
 0001:0005d370       ?RegisterUserInputHandlers@CGuiSystem@@QAEXH@Z 0045e370 f   guisystem.obj
 0001:0005d3c0       ?UnregisterUserInputHandlers@CGuiSystem@@QAEXH@Z 0045e3c0 f   guisystem.obj
 0001:0005d410       ?GetUserInputHandler@CGuiSystem@@QBEPAVCGuiUserInputHandler@@H@Z 0045e410 f   guisystem.obj
 0001:0005d430       ?LoadData@CGuiSystem@@UAEXPBEI@Z 0045e430 f   guisystem.obj
 0001:0005d450       ?SaveData@CGuiSystem@@UAEXPAEI@Z 0045e450 f   guisystem.obj
 0001:0005d460       ?ResetData@CGuiSystem@@UAEXXZ 0045e460 f   guisystem.obj
 0001:0005d470       ?OnReleaseBootUp@CGuiSystem@@AAEXXZ 0045e470 f   guisystem.obj
 0001:0005d4d0       ?OnInitFrontEnd@CGuiSystem@@AAEXXZ 0045e4d0 f   guisystem.obj
 0001:0005d500       ?OnReleaseFrontEnd@CGuiSystem@@AAEXXZ 0045e500 f   guisystem.obj
 0001:0005d560       ?OnInitMiniGame@CGuiSystem@@AAEXXZ 0045e560 f   guisystem.obj
 0001:0005d5a0       ?OnReleaseMiniGame@CGuiSystem@@AAEXXZ 0045e5a0 f   guisystem.obj
 0001:0005d600       ?OnInitInGame@CGuiSystem@@AAEXXZ 0045e600 f   guisystem.obj
 0001:0005d680       ?OnReleaseInGame@CGuiSystem@@AAEXXZ 0045e680 f   guisystem.obj
 0001:0005d700       ??0CGuiTextBible@@QAE@XZ   0045e700 f   guitextbible.obj
 0001:0005d710       ??_GCGuiTextBible@@UAEPAXI@Z 0045e710 f i guitextbible.obj
 0001:0005d710       ??_ECGuiTextBible@@UAEPAXI@Z 0045e710 f i guitextbible.obj
 0001:0005d730       ??1CGuiTextBible@@UAE@XZ   0045e730 f   guitextbible.obj
 0001:0005d750       ?SetTextBible@CGuiTextBible@@QAEXPBD@Z 0045e750 f   guitextbible.obj
 0001:0005d770       ?GetLocalizedText@CGuiTextBible@@SAPAGPBD@Z 0045e770 f   guitextbible.obj
 0001:0005d780       ?SetCurrentLanguage@CGuiTextBible@@SAXW4XLLanguage@Scrooby@@@Z 0045e780 f   guitextbible.obj
 0001:0005d7a0       ??0CGuiUserInputHandler@@QAE@XZ 0045e7a0 f   guiuserinputhandler.obj
 0001:0005d7d0       ??_ECGuiUserInputHandler@@UAEPAXI@Z 0045e7d0 f i guiuserinputhandler.obj
 0001:0005d7d0       ??_GCGuiUserInputHandler@@UAEPAXI@Z 0045e7d0 f i guiuserinputhandler.obj
 0001:0005d7f0       ??1CGuiUserInputHandler@@UAE@XZ 0045e7f0 f   guiuserinputhandler.obj
 0001:0005d800       ?Left@CGuiUserInputHandler@@QAEXH@Z 0045e800 f   guiuserinputhandler.obj
 0001:0005d820       ?Right@CGuiUserInputHandler@@QAEXH@Z 0045e820 f   guiuserinputhandler.obj
 0001:0005d840       ?Up@CGuiUserInputHandler@@QAEXH@Z 0045e840 f   guiuserinputhandler.obj
 0001:0005d860       ?Down@CGuiUserInputHandler@@QAEXH@Z 0045e860 f   guiuserinputhandler.obj
 0001:0005d880       ?Start@CGuiUserInputHandler@@QAEXH@Z 0045e880 f   guiuserinputhandler.obj
 0001:0005d8a0       ?Select@CGuiUserInputHandler@@QAEXH@Z 0045e8a0 f   guiuserinputhandler.obj
 0001:0005d8c0       ?Back@CGuiUserInputHandler@@QAEXH@Z 0045e8c0 f   guiuserinputhandler.obj
 0001:0005d8e0       ?AuxX@CGuiUserInputHandler@@QAEXH@Z 0045e8e0 f   guiuserinputhandler.obj
 0001:0005d900       ?AuxY@CGuiUserInputHandler@@QAEXH@Z 0045e900 f   guiuserinputhandler.obj
 0001:0005d920       ?L1@CGuiUserInputHandler@@QAEXH@Z 0045e920 f   guiuserinputhandler.obj
 0001:0005d940       ?R1@CGuiUserInputHandler@@QAEXH@Z 0045e940 f   guiuserinputhandler.obj
 0001:0005d960       ?OnControllerDisconnect@CGuiUserInputHandler@@UAEXH@Z 0045e960 f   guiuserinputhandler.obj
 0001:0005d990       ?OnControllerConnect@CGuiUserInputHandler@@UAEXH@Z 0045e990 f   guiuserinputhandler.obj
 0001:0005d9b0       ?OnButton@CGuiUserInputHandler@@UAEXHHPBVButton@@@Z 0045e9b0 f   guiuserinputhandler.obj
 0001:0005db20       ?OnButtonUp@CGuiUserInputHandler@@UAEXHHPBVButton@@@Z 0045eb20 f   guiuserinputhandler.obj
 0001:0005db40       ?OnButtonDown@CGuiUserInputHandler@@UAEXHHPBVButton@@@Z 0045eb40 f   guiuserinputhandler.obj
 0001:0005dc30       ?LoadControllerMappings@CGuiUserInputHandler@@UAEXI@Z 0045ec30 f   guiuserinputhandler.obj
 0001:0005dc70       ?Update@CGuiUserInputHandler@@QAEXII@Z 0045ec70 f   guiuserinputhandler.obj
 0001:0005dde0       ?IsXAxisOnLeft@CGuiUserInputHandler@@QBE_NXZ 0045ede0 f   guiuserinputhandler.obj
 0001:0005de00       ?IsXAxisOnRight@CGuiUserInputHandler@@QBE_NXZ 0045ee00 f   guiuserinputhandler.obj
 0001:0005de20       ?IsYAxisOnUp@CGuiUserInputHandler@@QBE_NXZ 0045ee20 f   guiuserinputhandler.obj
 0001:0005de40       ?IsYAxisOnDown@CGuiUserInputHandler@@QBE_NXZ 0045ee40 f   guiuserinputhandler.obj
 0001:0005de60       ?ResetRepeatableButtons@CGuiUserInputHandler@@AAEXXZ 0045ee60 f   guiuserinputhandler.obj
 0001:0005dea0       ??0CGuiWindow@@QAE@W4eGuiWindowID@0@PAVCGuiEntity@@@Z 0045eea0 f   guiwindow.obj
 0001:0005dec0       ??_GCGuiWindow@@UAEPAXI@Z  0045eec0 f i guiwindow.obj
 0001:0005dec0       ??_ECGuiWindow@@UAEPAXI@Z  0045eec0 f i guiwindow.obj
 0001:0005dee0       ??1CGuiWindow@@UAE@XZ      0045eee0 f   guiwindow.obj
 0001:0005def0       ?HandleMessage@CGuiWindow@@UAEXW4eGuiMessage@@II@Z 0045eef0 f   guiwindow.obj
 0001:0005e000       ??0CGuiManagerBackEnd@@QAE@PAVProject@Scrooby@@PAVCGuiEntity@@@Z 0045f000 f   guimanagerbackend.obj
 0001:0005e030       ??_ECGuiManagerBackEnd@@UAEPAXI@Z 0045f030 f i guimanagerbackend.obj
 0001:0005e030       ??_GCGuiManagerBackEnd@@UAEPAXI@Z 0045f030 f i guimanagerbackend.obj
 0001:0005e050       ??1CGuiManagerBackEnd@@UAE@XZ 0045f050 f   guimanagerbackend.obj
 0001:0005e0d0       ?Populate@CGuiManagerBackEnd@@UAEXXZ 0045f0d0 f   guimanagerbackend.obj
 0001:0005e200       ?Start@CGuiManagerBackEnd@@UAEXW4eGuiWindowID@CGuiWindow@@@Z 0045f200 f   guimanagerbackend.obj
 0001:0005e210       ?HandleMessage@CGuiManagerBackEnd@@UAEXW4eGuiMessage@@II@Z 0045f210 f   guimanagerbackend.obj
 0001:0005e3f0       ?GotoLoadingScreen@CGuiManagerBackEnd@@AAEXI@Z 0045f3f0 f   guimanagerbackend.obj
 0001:0005e420       ??_ECGuiManagerBackEnd@@WBA@AEPAXI@Z 0045f420 f i guimanagerbackend.obj
 0001:0005e430       ??0CGuiScreenDemo@@QAE@PAVScreen@Scrooby@@PAVCGuiEntity@@@Z 0045f430 f   guiscreendemo.obj
 0001:0005e4c0       ??_ECGuiScreenDemo@@UAEPAXI@Z 0045f4c0 f i guiscreendemo.obj
 0001:0005e4c0       ??_GCGuiScreenDemo@@UAEPAXI@Z 0045f4c0 f i guiscreendemo.obj
 0001:0005e4e0       ??1CGuiScreenDemo@@UAE@XZ  0045f4e0 f   guiscreendemo.obj
 0001:0005e4f0       ?HandleMessage@CGuiScreenDemo@@UAEXW4eGuiMessage@@II@Z 0045f4f0 f   guiscreendemo.obj
 0001:0005e5e0       ?InitIntro@CGuiScreenDemo@@MAEXXZ 0045f5e0 f   guiscreendemo.obj
 0001:0005e620       ?InitOutro@CGuiScreenDemo@@MAEXXZ 0045f620 f   guiscreendemo.obj
 0001:0005e640       ??0CGuiScreenLoading@@QAE@PAVScreen@Scrooby@@PAVCGuiEntity@@@Z 0045f640 f   guiscreenloading.obj
 0001:0005e8e0       ??_ECGuiScreenLoading@@UAEPAXI@Z 0045f8e0 f i guiscreenloading.obj
 0001:0005e8e0       ??_GCGuiScreenLoading@@UAEPAXI@Z 0045f8e0 f i guiscreenloading.obj
 0001:0005e900       ??1CGuiScreenLoading@@UAE@XZ 0045f900 f   guiscreenloading.obj
 0001:0005e980       ?HandleMessage@CGuiScreenLoading@@UAEXW4eGuiMessage@@II@Z 0045f980 f   guiscreenloading.obj
 0001:0005ec40       ?LoadResources@CGuiScreenLoading@@QAEXXZ 0045fc40 f   guiscreenloading.obj
 0001:0005ecf0       ?OnProcessRequestsComplete@CGuiScreenLoading@@UAEXPAX@Z 0045fcf0 f   guiscreenloading.obj
 0001:0005edf0       ?InitIntro@CGuiScreenLoading@@MAEXXZ 0045fdf0 f   guiscreenloading.obj
 0001:0005eeb0       ?InitOutro@CGuiScreenLoading@@MAEXXZ 0045feb0 f   guiscreenloading.obj
 0001:0005ef80       ?find@?$@VtSprite@@@p3d@@YAPAVtSprite@@PAVtEntityStore@@PBD@Z 0045ff80 f i guiscreenloading.obj
 0001:0005efe0       ?find@?$@VtSprite@@@p3d@@YAPAVtSprite@@PAVtEntityStore@@ABVtName@@@Z 0045ffe0 f i guiscreenloading.obj
 0001:0005f070       ?safe_cast@?$SafeCast@VtSprite@@@radLoadInventory@@UAEPAUIRefCount@@PAU3@@Z 00460070 f i guiscreenloading.obj
 0001:0005f090       ??0CGuiScreenLoadingFE@@QAE@PAVScreen@Scrooby@@PAVCGuiEntity@@@Z 00460090 f   guiscreenloadingfe.obj
 0001:0005f290       ??_GCGuiScreenLoadingFE@@UAEPAXI@Z 00460290 f i guiscreenloadingfe.obj
 0001:0005f290       ??_ECGuiScreenLoadingFE@@UAEPAXI@Z 00460290 f i guiscreenloadingfe.obj
 0001:0005f2b0       ??1CGuiScreenLoadingFE@@UAE@XZ 004602b0 f   guiscreenloadingfe.obj
 0001:0005f330       ?HandleMessage@CGuiScreenLoadingFE@@UAEXW4eGuiMessage@@II@Z 00460330 f   guiscreenloadingfe.obj
 0001:0005f4f0       ?LoadResources@CGuiScreenLoadingFE@@QAEXXZ 004604f0 f   guiscreenloadingfe.obj
 0001:0005f580       ?OnProcessRequestsComplete@CGuiScreenLoadingFE@@UAEXPAX@Z 00460580 f   guiscreenloadingfe.obj
 0001:0005f690       ?InitIntro@CGuiScreenLoadingFE@@MAEXXZ 00460690 f   guiscreenloadingfe.obj
 0001:0005f710       ?InitOutro@CGuiScreenLoadingFE@@MAEXXZ 00460710 f   guiscreenloadingfe.obj
 0001:0005f7c0       ?GetCurrentMemoryUsage@CGuiScreenLoadingFE@@ABEMW4ContextEnum@@@Z 004607c0 f   guiscreenloadingfe.obj
 0001:0005f870       ??0CGuiManagerFrontEnd@@QAE@PAVProject@Scrooby@@PAVCGuiEntity@@@Z 00460870 f   guimanagerfrontend.obj
 0001:0005f8b0       ??_ECGuiManagerFrontEnd@@UAEPAXI@Z 004608b0 f i guimanagerfrontend.obj
 0001:0005f8b0       ??_GCGuiManagerFrontEnd@@UAEPAXI@Z 004608b0 f i guimanagerfrontend.obj
 0001:0005f8d0       ??1CGuiManagerFrontEnd@@UAE@XZ 004608d0 f   guimanagerfrontend.obj
 0001:0005f8f0       ?Populate@CGuiManagerFrontEnd@@UAEXXZ 004608f0 f   guimanagerfrontend.obj
 0001:000601c0       ?Start@CGuiManagerFrontEnd@@UAEXW4eGuiWindowID@CGuiWindow@@@Z 004611c0 f   guimanagerfrontend.obj
 0001:000602b0       ?HandleMessage@CGuiManagerFrontEnd@@UAEXW4eGuiMessage@@II@Z 004612b0 f   guimanagerfrontend.obj
 0001:000605c0       ?StartIntroMovie@CGuiManagerFrontEnd@@AAEXXZ 004615c0 f   guimanagerfrontend.obj
 0001:000605f0       ??_ECGuiManagerFrontEnd@@WBA@AEPAXI@Z 004615f0 f i guimanagerfrontend.obj
 0001:00060600       ??0CGuiScreenCardGallery@@QAE@PAVScreen@Scrooby@@PAVCGuiEntity@@W4eGuiWindowID@CGuiWindow@@@Z 00461600 f   guiscreencardgallery.obj
 0001:00060af0       ??_ECGuiScreenCardGallery@@UAEPAXI@Z 00461af0 f i guiscreencardgallery.obj
 0001:00060af0       ??_GCGuiScreenCardGallery@@UAEPAXI@Z 00461af0 f i guiscreencardgallery.obj
 0001:00060b10       ??1CGuiScreenCardGallery@@UAE@XZ 00461b10 f   guiscreencardgallery.obj
 0001:00060ba0       ?HandleMessage@CGuiScreenCardGallery@@UAEXW4eGuiMessage@@II@Z 00461ba0 f   guiscreencardgallery.obj
 0001:00060e80       ?InitIntro@CGuiScreenCardGallery@@MAEXXZ 00461e80 f   guiscreencardgallery.obj
 0001:00060ea0       ?UpdateCards@CGuiScreenCardGallery@@IAEXI@Z 00461ea0 f   guiscreencardgallery.obj
 0001:00060fa0       ?UpdateCardTransition@CGuiScreenCardGallery@@AAEXI_N@Z 00461fa0 f   guiscreencardgallery.obj
 0001:00061220       ?UpdateViewCard@CGuiScreenCardGallery@@AAEXI@Z 00462220 f   guiscreencardgallery.obj
 0001:000612b0       ?SetCurrentViewCard@CGuiScreenCardGallery@@AAEXI@Z 004622b0 f   guiscreencardgallery.obj
 0001:000613c0       ??0CGuiScreenController@@QAE@PAVScreen@Scrooby@@PAVCGuiEntity@@@Z 004623c0 f   guiscreencontroller.obj
 0001:00061610       ??_GCGuiScreenController@@UAEPAXI@Z 00462610 f i guiscreencontroller.obj
 0001:00061610       ??_ECGuiScreenController@@UAEPAXI@Z 00462610 f i guiscreencontroller.obj
 0001:00061630       ??1CGuiScreenController@@UAE@XZ 00462630 f   guiscreencontroller.obj
 0001:000616a0       ?HandleMessage@CGuiScreenController@@UAEXW4eGuiMessage@@II@Z 004626a0 f   guiscreencontroller.obj
 0001:000617c0       ?InitIntro@CGuiScreenController@@MAEXXZ 004627c0 f   guiscreencontroller.obj
 0001:000617f0       ?InitOutro@CGuiScreenController@@MAEXXZ 004627f0 f   guiscreencontroller.obj
 0001:00061830       ?UpdateLabels@CGuiScreenController@@AAEXXZ 00462830 f   guiscreencontroller.obj
 0001:00061870       ??0CGuiScreenLoadGame@@QAE@PAVScreen@Scrooby@@PAVCGuiEntity@@W4eGuiWindowID@CGuiWindow@@@Z 00462870 f   guiscreenloadgame.obj
 0001:00061a00       ??_ECGuiScreenLoadGame@@UAEPAXI@Z 00462a00 f i guiscreenloadgame.obj
 0001:00061a00       ??_GCGuiScreenLoadGame@@UAEPAXI@Z 00462a00 f i guiscreenloadgame.obj
 0001:00061a20       ??1CGuiScreenLoadGame@@UAE@XZ 00462a20 f   guiscreenloadgame.obj
 0001:00061ab0       ?HandleMessage@CGuiScreenLoadGame@@UAEXW4eGuiMessage@@II@Z 00462ab0 f   guiscreenloadgame.obj
 0001:00061d70       ?OnLoadGameComplete@CGuiScreenLoadGame@@UAEXW4radFileError@@@Z 00462d70 f   guiscreenloadgame.obj
 0001:00061db0       ?HandleErrorResponse@CGuiScreenLoadGame@@MAEXW4ePromptResponse@CGuiMenuPrompt@@@Z 00462db0 f   guiscreenloadgame.obj
 0001:00061de0       ?InitIntro@CGuiScreenLoadGame@@MAEXXZ 00462de0 f   guiscreenloadgame.obj
 0001:00062040       ?LoadGame@CGuiScreenLoadGame@@MAEXXZ 00463040 f   guiscreenloadgame.obj
 0001:00062040       ?LoadGame@CGuiScreenAutoLoad@@MAEXXZ 00463040 f   guiscreenloadgame.obj
 0001:00062060       ??0CGuiScreenAutoLoad@@QAE@PAVScreen@Scrooby@@PAVCGuiEntity@@@Z 00463060 f   guiscreenloadgame.obj
 0001:00062090       ??_GCGuiScreenAutoLoad@@UAEPAXI@Z 00463090 f i guiscreenloadgame.obj
 0001:00062090       ??_ECGuiScreenAutoLoad@@UAEPAXI@Z 00463090 f i guiscreenloadgame.obj
 0001:000620b0       ??1CGuiScreenAutoLoad@@UAE@XZ 004630b0 f   guiscreenloadgame.obj
 0001:000620d0       ?OnLoadGameComplete@CGuiScreenAutoLoad@@UAEXW4radFileError@@@Z 004630d0 f   guiscreenloadgame.obj
 0001:00062100       ?InitRunning@CGuiScreenAutoLoad@@MAEXXZ 00463100 f   guiscreenloadgame.obj
 0001:00062150       ?HandleErrorResponse@CGuiScreenAutoLoad@@MAEXW4ePromptResponse@CGuiMenuPrompt@@@Z 00463150 f   guiscreenloadgame.obj
 0001:00062190       ??_ECGuiScreenLoadGame@@WJI@AEPAXI@Z 00463190 f i guiscreenloadgame.obj
 0001:000621a0       ?HandleMessage@CGuiScreenLoadGame@@WJI@AEXW4eGuiMessage@@II@Z 004631a0 f i guiscreenloadgame.obj
 0001:000621b0       ??_ECGuiScreenAutoLoad@@WJI@AEPAXI@Z 004631b0 f i guiscreenloadgame.obj
 0001:000621c0       ??0CGuiScreenMainMenu@@QAE@PAVScreen@Scrooby@@PAVCGuiEntity@@@Z 004631c0 f   guiscreenmainmenu.obj
 0001:00062530       ??_ECGuiScreenMainMenu@@UAEPAXI@Z 00463530 f i guiscreenmainmenu.obj
 0001:00062530       ??_GCGuiScreenMainMenu@@UAEPAXI@Z 00463530 f i guiscreenmainmenu.obj
 0001:00062550       ??1CGuiScreenMainMenu@@UAE@XZ 00463550 f   guiscreenmainmenu.obj
 0001:000625c0       ?HandleMessage@CGuiScreenMainMenu@@UAEXW4eGuiMessage@@II@Z 004635c0 f   guiscreenmainmenu.obj
 0001:00062970       ?InitMenu@CGuiScreenMainMenu@@QAEXXZ 00463970 f   guiscreenmainmenu.obj
 0001:000629c0       ?InitIntro@CGuiScreenMainMenu@@MAEXXZ 004639c0 f   guiscreenmainmenu.obj
 0001:000629e0       ?InitRunning@CGuiScreenMainMenu@@MAEXXZ 004639e0 f   guiscreenmainmenu.obj
 0001:00062a30       ?InitOutro@CGuiScreenMainMenu@@MAEXXZ 00463a30 f   guiscreenmainmenu.obj
 0001:00062a60       ?UpdateIntro@CGuiScreenMainMenu@@IAEXI@Z 00463a60 f   guiscreenmainmenu.obj
 0001:00062ac0       ?UpdateRunning@CGuiScreenMainMenu@@IAEXI@Z 00463ac0 f   guiscreenmainmenu.obj
 0001:00062ad0       ?UpdateOutro@CGuiScreenMainMenu@@IAEXI@Z 00463ad0 f   guiscreenmainmenu.obj
 0001:00062c50       ?UpdateGags@CGuiScreenMainMenu@@AAEXI@Z 00463c50 f   guiscreenmainmenu.obj
 0001:00062f90       ?StopHomerIdleAnimation@CGuiScreenMainMenu@@AAEXXZ 00463f90 f   guiscreenmainmenu.obj
 0001:00063000       ?TurnOnGlowItems@CGuiScreenMainMenu@@AAEXI@Z 00464000 f   guiscreenmainmenu.obj
 0001:00063050       ?OnNewGameSelected@CGuiScreenMainMenu@@AAEXW4LevelEnum@RenderEnums@@W4MissionEnum@3@@Z 00464050 f   guiscreenmainmenu.obj
 0001:000630e0       ?OnResumeGameSelected@CGuiScreenMainMenu@@AAEXXZ 004640e0 f   guiscreenmainmenu.obj
 0001:00063110       ?OnMiniGameSelected@CGuiScreenMainMenu@@AAEXXZ 00464110 f   guiscreenmainmenu.obj
 0001:00063140       ?ToggleLevelMenu@CGuiScreenMainMenu@@AAEXXZ 00464140 f   guiscreenmainmenu.obj
 0001:000631b0       ??0CGuiScreenIntroTransition@@QAE@PAVScreen@Scrooby@@PAVCGuiEntity@@@Z 004641b0 f   guiscreenmainmenu.obj
 0001:00063280       ??_ECGuiScreenIntroTransition@@UAEPAXI@Z 00464280 f i guiscreenmainmenu.obj
 0001:00063280       ??_GCGuiScreenIntroTransition@@UAEPAXI@Z 00464280 f i guiscreenmainmenu.obj
 0001:000632a0       ??1CGuiScreenIntroTransition@@UAE@XZ 004642a0 f   guiscreenmainmenu.obj
 0001:000632b0       ?HandleMessage@CGuiScreenIntroTransition@@UAEXW4eGuiMessage@@II@Z 004642b0 f   guiscreenmainmenu.obj
 0001:00063420       ?InitIntro@CGuiScreenIntroTransition@@MAEXXZ 00464420 f   guiscreenmainmenu.obj
 0001:00063470       ?InitRunning@CGuiScreenIntroTransition@@MAEXXZ 00464470 f   guiscreenmainmenu.obj
 0001:000634c0       ??0CGuiScreenMissionGallery@@QAE@PAVScreen@Scrooby@@PAVCGuiEntity@@@Z 004644c0 f   guiscreenmissiongallery.obj
 0001:000637b0       ??_ECGuiScreenMissionGallery@@UAEPAXI@Z 004647b0 f i guiscreenmissiongallery.obj
 0001:000637b0       ??_GCGuiScreenMissionGallery@@UAEPAXI@Z 004647b0 f i guiscreenmissiongallery.obj
 0001:000637d0       ??1CGuiScreenMissionGallery@@UAE@XZ 004647d0 f   guiscreenmissiongallery.obj
 0001:00063860       ?HandleMessage@CGuiScreenMissionGallery@@UAEXW4eGuiMessage@@II@Z 00464860 f   guiscreenmissiongallery.obj
 0001:00063930       ?OnProcessRequestsComplete@CGuiScreenMissionGallery@@UAEXPAX@Z 00464930 f   guiscreenmissiongallery.obj
 0001:00063b00       ?InitIntro@CGuiScreenMissionGallery@@MAEXXZ 00464b00 f   guiscreenmissiongallery.obj
 0001:00063b20       ?InitOutro@CGuiScreenMissionGallery@@MAEXXZ 00464b20 f   guiscreenmissiongallery.obj
 0001:00063b30       ?OnUpdate@CGuiScreenMissionGallery@@AAEXI@Z 00464b30 f   guiscreenmissiongallery.obj
 0001:00063f60       ?OnMenuSelectionMade@CGuiScreenMissionGallery@@AAEXH@Z 00464f60 f   guiscreenmissiongallery.obj
 0001:00064080       ?OnStartMission@CGuiScreenMissionGallery@@AAEXXZ 00465080 f   guiscreenmissiongallery.obj
 0001:000640e0       ?SetMenuAlpha@CGuiScreenMissionGallery@@AAEXM@Z 004650e0 f   guiscreenmissiongallery.obj
 0001:00064130       ?LoadMissionImages@CGuiScreenMissionGallery@@AAEHXZ 00465130 f   guiscreenmissiongallery.obj
 0001:00064270       ?UnloadMissionImages@CGuiScreenMissionGallery@@AAEXXZ 00465270 f   guiscreenmissiongallery.obj
 0001:00064310       ??0CGuiScreenOptions@@QAE@PAVScreen@Scrooby@@PAVCGuiEntity@@@Z 00465310 f   guiscreenoptions.obj
 0001:00064600       ??_GCGuiScreenOptions@@UAEPAXI@Z 00465600 f i guiscreenoptions.obj
 0001:00064600       ??_ECGuiScreenOptions@@UAEPAXI@Z 00465600 f i guiscreenoptions.obj
 0001:00064620       ??1CGuiScreenOptions@@UAE@XZ 00465620 f   guiscreenoptions.obj
 0001:000646a0       ?HandleMessage@CGuiScreenOptions@@UAEXW4eGuiMessage@@II@Z 004656a0 f   guiscreenoptions.obj
 0001:000648f0       ?OnCheatEntered@CGuiScreenOptions@@UAEXW4eCheatID@@_N@Z 004658f0 f   guiscreenoptions.obj
 0001:00064930       ?InitIntro@CGuiScreenOptions@@MAEXXZ 00465930 f   guiscreenoptions.obj
 0001:00064960       ?InitOutro@CGuiScreenOptions@@MAEXXZ 00465960 f   guiscreenoptions.obj
 0001:00064960       ?InitOutro@CGuiScreenPauseOptions@@MAEXXZ 00465960 f   guiscreenpauseoptions.obj
 0001:00064970       ?UpdateCheatsDisplay@CGuiScreenOptions@@AAEXH@Z 00465970 f   guiscreenoptions.obj
 0001:00064ab0       ??0CGuiScreenPlayMovie@@QAE@PAVScreen@Scrooby@@PAVCGuiEntity@@W4eGuiWindowID@CGuiWindow@@@Z 00465ab0 f   guiscreenplaymovie.obj
 0001:00064b60       ??_ECGuiScreenPlayMovie@@UAEPAXI@Z 00465b60 f i guiscreenplaymovie.obj
 0001:00064b60       ??_GCGuiScreenPlayMovie@@UAEPAXI@Z 00465b60 f i guiscreenplaymovie.obj
 0001:00064b80       ??1CGuiScreenPlayMovie@@UAE@XZ 00465b80 f   guiscreenplaymovie.obj
 0001:00064ba0       ?HandleMessage@CGuiScreenPlayMovie@@UAEXW4eGuiMessage@@II@Z 00465ba0 f   guiscreenplaymovie.obj
 0001:00064c50       ?SetMovieToPlay@CGuiScreenPlayMovie@@QAEXPBD@Z 00465c50 f   guiscreenplaymovie.obj
 0001:00064cb0       ?OnPresentationEventBegin@CGuiScreenPlayMovie@@UAEXPAVPresentationEvent@@@Z 00465cb0 f   guiscreenplaymovie.obj
 0001:00064cc0       ?OnPresentationEventEnd@CGuiScreenPlayMovie@@UAEXPAVPresentationEvent@@@Z 00465cc0 f   guiscreenplaymovie.obj
 0001:00064d70       ?InitIntro@CGuiScreenPlayMovie@@MAEXXZ 00465d70 f   guiscreenplaymovie.obj
 0001:00064da0       ?InitRunning@CGuiScreenPlayMovie@@MAEXXZ 00465da0 f   guiscreenplaymovie.obj
 0001:00064de0       ?InitOutro@CGuiScreenPlayMovie@@MAEXXZ 00465de0 f   guiscreenplaymovie.obj
 0001:00064e10       ??0CGuiScreenScrapBook@@QAE@PAVScreen@Scrooby@@PAVCGuiEntity@@@Z 00465e10 f   guiscreenscrapbook.obj
 0001:00064f70       ??_ECGuiScreenScrapBook@@UAEPAXI@Z 00465f70 f i guiscreenscrapbook.obj
 0001:00064f70       ??_GCGuiScreenScrapBook@@UAEPAXI@Z 00465f70 f i guiscreenscrapbook.obj
 0001:00064f90       ??1CGuiScreenScrapBook@@UAE@XZ 00465f90 f   guiscreenscrapbook.obj
 0001:00065000       ?HandleMessage@CGuiScreenScrapBook@@UAEXW4eGuiMessage@@II@Z 00466000 f   guiscreenscrapbook.obj
 0001:00065060       ?InitIntro@CGuiScreenScrapBook@@MAEXXZ 00466060 f   guiscreenscrapbook.obj
 0001:000650a0       ?OnMenuSelectionMade@CGuiScreenScrapBook@@AAEXW4eMenuItem@1@@Z 004660a0 f   guiscreenscrapbook.obj
 0001:000650f0       ??0CGuiScreenScrapBookContents@@QAE@PAVScreen@Scrooby@@PAVCGuiEntity@@@Z 004660f0 f   guiscreenscrapbookcontents.obj
 0001:00065550       ??_GCGuiScreenScrapBookContents@@UAEPAXI@Z 00466550 f i guiscreenscrapbookcontents.obj
 0001:00065550       ??_ECGuiScreenScrapBookContents@@UAEPAXI@Z 00466550 f i guiscreenscrapbookcontents.obj
 0001:00065570       ??1CGuiScreenScrapBookContents@@UAE@XZ 00466570 f   guiscreenscrapbookcontents.obj
 0001:000655e0       ?HandleMessage@CGuiScreenScrapBookContents@@UAEXW4eGuiMessage@@II@Z 004665e0 f   guiscreenscrapbookcontents.obj
 0001:00065790       ?SetLevelBarVisible@CGuiScreenScrapBookContents@@QAEX_N@Z 00466790 f   guiscreenscrapbookcontents.obj
 0001:000657b0       ?InitIntro@CGuiScreenScrapBookContents@@MAEXXZ 004667b0 f   guiscreenscrapbookcontents.obj
 0001:000657f0       ?OnLevelSelectionChange@CGuiScreenScrapBookContents@@AAEXH@Z 004667f0 f   guiscreenscrapbookcontents.obj
 0001:00065a10       ?OnMenuSelectionMade@CGuiScreenScrapBookContents@@AAEXW4eMenuItem@1@@Z 00466a10 f   guiscreenscrapbookcontents.obj
 0001:00065aa0       ??0CGuiScreenScrapBookStats@@QAE@PAVScreen@Scrooby@@PAVCGuiEntity@@@Z 00466aa0 f   guiscreenscrapbookstats.obj
 0001:00065c40       ??_ECGuiScreenScrapBookStats@@UAEPAXI@Z 00466c40 f i guiscreenscrapbookstats.obj
 0001:00065c40       ??_GCGuiScreenScrapBookStats@@UAEPAXI@Z 00466c40 f i guiscreenscrapbookstats.obj
 0001:00065c60       ??1CGuiScreenScrapBookStats@@UAE@XZ 00466c60 f   guiscreenscrapbookstats.obj
 0001:00065c70       ?HandleMessage@CGuiScreenScrapBookStats@@UAEXW4eGuiMessage@@II@Z 00466c70 f   guiscreenscrapbookstats.obj
 0001:00065cb0       ?InitIntro@CGuiScreenScrapBookStats@@MAEXXZ 00466cb0 f   guiscreenscrapbookstats.obj
 0001:00065fd0       ??0CGuiScreenSkinGallery@@QAE@PAVScreen@Scrooby@@PAVCGuiEntity@@@Z 00466fd0 f   guiscreenskingallery.obj
 0001:000662a0       ??_GCGuiScreenSkinGallery@@UAEPAXI@Z 004672a0 f i guiscreenskingallery.obj
 0001:000662a0       ??_ECGuiScreenSkinGallery@@UAEPAXI@Z 004672a0 f i guiscreenskingallery.obj
 0001:000662c0       ??1CGuiScreenSkinGallery@@UAE@XZ 004672c0 f   guiscreenskingallery.obj
 0001:00066360       ?HandleMessage@CGuiScreenSkinGallery@@UAEXW4eGuiMessage@@II@Z 00467360 f   guiscreenskingallery.obj
 0001:00066450       ?OnProcessRequestsComplete@CGuiScreenSkinGallery@@UAEXPAX@Z 00467450 f   guiscreenskingallery.obj
 0001:000665a0       ?InitIntro@CGuiScreenSkinGallery@@MAEXXZ 004675a0 f   guiscreenskingallery.obj
 0001:000665d0       ?InitOutro@CGuiScreenSkinGallery@@MAEXXZ 004675d0 f   guiscreenskingallery.obj
 0001:000665f0       ?OnUpdate@CGuiScreenSkinGallery@@AAEXI@Z 004675f0 f   guiscreenskingallery.obj
 0001:00066aa0       ?OnModelSelectionChange@CGuiScreenSkinGallery@@AAEXH@Z 00467aa0 f   guiscreenskingallery.obj
 0001:00066af0       ?OnMenuSelectionMade@CGuiScreenSkinGallery@@AAEXH@Z 00467af0 f   guiscreenskingallery.obj
 0001:00066c60       ?Load3DModels@CGuiScreenSkinGallery@@AAEXXZ 00467c60 f   guiscreenskingallery.obj
 0001:00066d30       ?Unload3DModels@CGuiScreenSkinGallery@@AAEXXZ 00467d30 f   guiscreenskingallery.obj
 0001:00066db0       ??0CGuiScreenSound@@QAE@PAVScreen@Scrooby@@PAVCGuiEntity@@@Z 00467db0 f   guiscreensound.obj
 0001:00067090       ??_GCGuiScreenSound@@UAEPAXI@Z 00468090 f i guiscreensound.obj
 0001:00067090       ??_ECGuiScreenSound@@UAEPAXI@Z 00468090 f i guiscreensound.obj
 0001:000670b0       ??1CGuiScreenSound@@UAE@XZ 004680b0 f   guiscreensound.obj
 0001:00067120       ?HandleMessage@CGuiScreenSound@@UAEXW4eGuiMessage@@II@Z 00468120 f   guiscreensound.obj
 0001:00067260       ?InitIntro@CGuiScreenSound@@MAEXXZ 00468260 f   guiscreensound.obj
 0001:000673c0       ??0CGuiScreenSplash@@QAE@PAVScreen@Scrooby@@PAVCGuiEntity@@@Z 004683c0 f   guiscreensplash.obj
 0001:000674d0       ??_GCGuiScreenSplash@@UAEPAXI@Z 004684d0 f i guiscreensplash.obj
 0001:000674d0       ??_ECGuiScreenSplash@@UAEPAXI@Z 004684d0 f i guiscreensplash.obj
 0001:000674f0       ??1CGuiScreenSplash@@UAE@XZ 004684f0 f   guiscreensplash.obj
 0001:00067560       ?HandleMessage@CGuiScreenSplash@@UAEXW4eGuiMessage@@II@Z 00468560 f   guiscreensplash.obj
 0001:00067680       ?InitRunning@CGuiScreenSplash@@MAEXXZ 00468680 f   guiscreensplash.obj
 0001:00067690       ?StartDemoAsMovie@CGuiScreenSplash@@AAEXXZ 00468690 f   guiscreensplash.obj
 0001:000676c0       ??0CGuiScreenVehicleGallery@@QAE@PAVScreen@Scrooby@@PAVCGuiEntity@@@Z 004686c0 f   guiscreenvehiclegallery.obj
 0001:00067990       ??_GCGuiScreenVehicleGallery@@UAEPAXI@Z 00468990 f i guiscreenvehiclegallery.obj
 0001:00067990       ??_ECGuiScreenVehicleGallery@@UAEPAXI@Z 00468990 f i guiscreenvehiclegallery.obj
 0001:000679b0       ??1CGuiScreenVehicleGallery@@UAE@XZ 004689b0 f   guiscreenvehiclegallery.obj
 0001:00067a50       ?HandleMessage@CGuiScreenVehicleGallery@@UAEXW4eGuiMessage@@II@Z 00468a50 f   guiscreenvehiclegallery.obj
 0001:00067b40       ?OnProcessRequestsComplete@CGuiScreenVehicleGallery@@UAEXPAX@Z 00468b40 f   guiscreenvehiclegallery.obj
 0001:00067c90       ?InitIntro@CGuiScreenVehicleGallery@@MAEXXZ 00468c90 f   guiscreenvehiclegallery.obj
 0001:00067cc0       ?InitOutro@CGuiScreenVehicleGallery@@MAEXXZ 00468cc0 f   guiscreenvehiclegallery.obj
 0001:00067ce0       ?OnUpdate@CGuiScreenVehicleGallery@@AAEXI@Z 00468ce0 f   guiscreenvehiclegallery.obj
 0001:00068190       ?OnModelSelectionChange@CGuiScreenVehicleGallery@@AAEXH@Z 00469190 f   guiscreenvehiclegallery.obj
 0001:000681e0       ?OnMenuSelectionMade@CGuiScreenVehicleGallery@@AAEXH@Z 004691e0 f   guiscreenvehiclegallery.obj
 0001:00068350       ?Load3DModels@CGuiScreenVehicleGallery@@AAEXXZ 00469350 f   guiscreenvehiclegallery.obj
 0001:00068540       ?Unload3DModels@CGuiScreenVehicleGallery@@AAEXXZ 00469540 f   guiscreenvehiclegallery.obj
 0001:000685c0       ??0CGuiScreenViewCredits@@QAE@PAVScreen@Scrooby@@PAVCGuiEntity@@@Z 004695c0 f   guiscreenviewcredits.obj
 0001:000686b0       ??_ECGuiScreenViewCredits@@UAEPAXI@Z 004696b0 f i guiscreenviewcredits.obj
 0001:000686b0       ??_GCGuiScreenViewCredits@@UAEPAXI@Z 004696b0 f i guiscreenviewcredits.obj
 0001:000686d0       ??1CGuiScreenViewCredits@@UAE@XZ 004696d0 f   guiscreenviewcredits.obj
 0001:000686e0       ?HandleMessage@CGuiScreenViewCredits@@UAEXW4eGuiMessage@@II@Z 004696e0 f   guiscreenviewcredits.obj
 0001:00068820       ?InitIntro@CGuiScreenViewCredits@@MAEXXZ 00469820 f   guiscreenviewcredits.obj
 0001:00068830       ?FormatTextWithLineBreaks@CGuiScreenViewCredits@@AAEXPAVText@Scrooby@@@Z 00469830 f   guiscreenviewcredits.obj
 0001:000688f0       ?ResetScrolling@CGuiScreenViewCredits@@AAEXXZ 004698f0 f   guiscreenviewcredits.obj
 0001:00068910       ?ScrollCredits@CGuiScreenViewCredits@@AAE_NM@Z 00469910 f   guiscreenviewcredits.obj
 0001:000689b0       ??0CGuiScreenViewMovies@@QAE@PAVScreen@Scrooby@@PAVCGuiEntity@@@Z 004699b0 f   guiscreenviewmovies.obj
 0001:00068ac0       ??_ECGuiScreenViewMovies@@UAEPAXI@Z 00469ac0 f i guiscreenviewmovies.obj
 0001:00068ac0       ??_GCGuiScreenViewMovies@@UAEPAXI@Z 00469ac0 f i guiscreenviewmovies.obj
 0001:00068ae0       ??1CGuiScreenViewMovies@@UAE@XZ 00469ae0 f   guiscreenviewmovies.obj
 0001:00068b50       ?HandleMessage@CGuiScreenViewMovies@@UAEXW4eGuiMessage@@II@Z 00469b50 f   guiscreenviewmovies.obj
 0001:00068be0       ?InitIntro@CGuiScreenViewMovies@@MAEXXZ 00469be0 f   guiscreenviewmovies.obj
 0001:00068c40       ?IsHudScreen@CGuiManagerInGame@@ABE_NW4eGuiWindowID@CGuiWindow@@@Z 00469c40 f i guimanageringame.obj
 0001:00068c60       ?Activate@RestartCurrentMission@GuiSFX@@UAEXXZ 00469c60 f i guimanageringame.obj
 0001:00068c70       ??0CGuiManagerInGame@@QAE@PAVProject@Scrooby@@PAVCGuiEntity@@@Z 00469c70 f   guimanageringame.obj
 0001:00068ee0       ??_GCGuiManagerInGame@@UAEPAXI@Z 00469ee0 f i guimanageringame.obj
 0001:00068ee0       ??_ECGuiManagerInGame@@UAEPAXI@Z 00469ee0 f i guimanageringame.obj
 0001:00068f00       ??1CGuiManagerInGame@@UAE@XZ 00469f00 f   guimanageringame.obj
 0001:00069040       ?Populate@CGuiManagerInGame@@UAEXXZ 0046a040 f   guimanageringame.obj
 0001:00069890       ?Start@CGuiManagerInGame@@UAEXW4eGuiWindowID@CGuiWindow@@@Z 0046a890 f   guimanageringame.obj
 0001:000698d0       ?HandleMessage@CGuiManagerInGame@@UAEXW4eGuiMessage@@II@Z 0046a8d0 f   guimanageringame.obj
 0001:00069f00       ?HandleEvent@CGuiManagerInGame@@UAEXW4EventEnum@@PAX@Z 0046af00 f   guimanageringame.obj
 0001:0006a010       ?OnProjectLoadComplete@CGuiManagerInGame@@UAEXPAVProject@Scrooby@@@Z 0046b010 f   guimanageringame.obj
 0001:0006a040       ?OnMemcardInfoLoadComplete@CGuiManagerInGame@@UAEXXZ 0046b040 f   guimanageringame.obj
 0001:0006a060       ?UpdateDuringDynamicLoading@CGuiManagerInGame@@AAEXI@Z 0046b060 f   guimanageringame.obj
 0001:0006a150       ?UpdateDuringMissionLoading@CGuiManagerInGame@@AAEXI@Z 0046b150 f   guimanageringame.obj
 0001:0006a170       ?UpdateWhileLoadingNotDone@CGuiManagerInGame@@AAEXI@Z 0046b170 f   guimanageringame.obj
 0001:0006a1b0       ?GotoPauseScreen@CGuiManagerInGame@@AAEXXZ 0046b1b0 f   guimanageringame.obj
 0001:0006a1f0       ?GotoHUDScreen@CGuiManagerInGame@@AAEXXZ 0046b1f0 f   guimanageringame.obj
 0001:0006a2c0       ?QuitGame@CGuiManagerInGame@@AAEXXZ 0046b2c0 f   guimanageringame.obj
 0001:0006a350       ?OnControllerDisconnected@CGuiManagerInGame@@AAEXH@Z 0046b350 f   guimanageringame.obj
 0001:0006a380       ?OnControllerConnected@CGuiManagerInGame@@AAEXH@Z 0046b380 f   guimanageringame.obj
 0001:0006a3a0       ??_ECGuiManagerInGame@@WBA@AEPAXI@Z 0046b3a0 f i guimanageringame.obj
 0001:0006a3b0       ??0CGuiScreenHasTransitions@@QAE@XZ 0046b3b0 f   guiscreenhastransitions.obj
 0001:0006a3d0       ?AddTransition@CGuiScreenHasTransitions@@IAEXAAVTransition@GuiSFX@@@Z 0046b3d0 f   guiscreenhastransitions.obj
 0001:0006a3f0       ?DoneAddingTransitions@CGuiScreenHasTransitions@@IAEXXZ 0046b3f0 f   guiscreenhastransitions.obj
 0001:0006a400       ?ResetMovableObjects@CGuiScreenHasTransitions@@IAEXXZ 0046b400 f   guiscreenhastransitions.obj
 0001:0006a440       ?ResetTransitions@CGuiScreenHasTransitions@@IAEXXZ 0046b440 f   guiscreenhastransitions.obj
 0001:0006a460       ?UpdateTransitions@CGuiScreenHasTransitions@@IAEXM@Z 0046b460 f   guiscreenhastransitions.obj
 0001:0006a490       ??0MessageQueue@@QAE@XZ    0046b490 f   guiscreenhud.obj
 0001:0006a4b0       ??_GMessageQueue@@UAEPAXI@Z 0046b4b0 f i guiscreenhud.obj
 0001:0006a4b0       ??_EMessageQueue@@UAEPAXI@Z 0046b4b0 f i guiscreenhud.obj
 0001:0006a4d0       ??1MessageQueue@@UAE@XZ    0046b4d0 f   guiscreenhud.obj
 0001:0006a4e0       ?Enqueue@MessageQueue@@QAEXI@Z 0046b4e0 f   guiscreenhud.obj
 0001:0006a520       ?Dequeue@MessageQueue@@QAEIXZ 0046b520 f   guiscreenhud.obj
 0001:0006a560       ??0CGuiScreenHud@@QAE@PAVScreen@Scrooby@@PAVCGuiEntity@@@Z 0046b560 f   guiscreenhud.obj
 0001:0006af00       ??_GCGuiScreenHud@@UAEPAXI@Z 0046bf00 f i guiscreenhud.obj
 0001:0006af00       ??_ECGuiScreenHud@@UAEPAXI@Z 0046bf00 f i guiscreenhud.obj
 0001:0006af20       ??1CGuiScreenHud@@UAE@XZ   0046bf20 f   guiscreenhud.obj
 0001:0006afe0       ?HandleMessage@CGuiScreenHud@@UAEXW4eGuiMessage@@II@Z 0046bfe0 f   guiscreenhud.obj
 0001:0006b280       ?Update@CGuiScreenHud@@QAEXI@Z 0046c280 f   guiscreenhud.obj
 0001:0006b4d0       ?SetVisible@CGuiScreenHud@@QAEX_N@Z 0046c4d0 f   guiscreenhud.obj
 0001:0006b540       ?SetTimerBlinkingInterval@CGuiScreenHud@@QAEXHH@Z 0046c540 f   guiscreenhud.obj
 0001:0006b550       ?SetParTime@CGuiScreenHud@@QAEXH@Z 0046c550 f   guiscreenhud.obj
 0001:0006b5b0       ?SetCollectibles@CGuiScreenHud@@QAEXHH@Z 0046c5b0 f   guiscreenhud.obj
 0001:0006b630       ?SetRacePosition@CGuiScreenHud@@QAEXHH@Z 0046c630 f   guiscreenhud.obj
 0001:0006b6a0       ?SetLap@CGuiScreenHud@@QAEXHH@Z 0046c6a0 f   guiscreenhud.obj
 0001:0006b740       ?SetDamageMeter@CGuiScreenHud@@QAEXM@Z 0046c740 f   guiscreenhud.obj
 0001:0006b760       ?SetProximityMeter@CGuiScreenHud@@QAEXM@Z 0046c760 f   guiscreenhud.obj
 0001:0006b780       ?SetHitAndRunMeter@CGuiScreenHud@@QAEXM@Z 0046c780 f   guiscreenhud.obj
 0001:0006b8e0       ?DisplayMessage@CGuiScreenHud@@QAEX_NH@Z 0046c8e0 f   guiscreenhud.obj
 0001:0006b960       ?HandleEvent@CGuiScreenHud@@UAEXW4EventEnum@@PAX@Z 0046c960 f   guiscreenhud.obj
 0001:0006bb70       ?SetNumCoinsDisplay@CGuiScreenHud@@SAXPAVSprite@Scrooby@@@Z 0046cb70 f   guiscreenhud.obj
 0001:0006bbb0       ?UpdateNumCoinsDisplay@CGuiScreenHud@@SAXH_N@Z 0046cbb0 f   guiscreenhud.obj
 0001:0006bc60       ?InitIntro@CGuiScreenHud@@MAEXXZ 0046cc60 f   guiscreenhud.obj
 0001:0006bcb0       ?InitRunning@CGuiScreenHud@@MAEXXZ 0046ccb0 f   guiscreenhud.obj
 0001:0006bce0       ?InitOutro@CGuiScreenHud@@MAEXXZ 0046cce0 f   guiscreenhud.obj
 0001:0006bcf0       ?UpdateOverlays@CGuiScreenHud@@AAEXI@Z 0046ccf0 f   guiscreenhud.obj
 0001:0006c070       ?UpdateEventHandlers@CGuiScreenHud@@AAEXI@Z 0046d070 f   guiscreenhud.obj
 0001:0006c0b0       ?UpdateTimer@CGuiScreenHud@@AAEXI@Z 0046d0b0 f   guiscreenhud.obj
 0001:0006c280       ??_ECGuiScreenHud@@WCEE@AEPAXI@Z 0046d280 f i guiscreenhud.obj
 0001:0006c290       ??0CGuiScreenIrisWipe@@QAE@PAVScreen@Scrooby@@PAVCGuiEntity@@@Z 0046d290 f   guiscreeniriswipe.obj
 0001:0006c350       ??_ECGuiScreenIrisWipe@@UAEPAXI@Z 0046d350 f i guiscreeniriswipe.obj
 0001:0006c350       ??_GCGuiScreenIrisWipe@@UAEPAXI@Z 0046d350 f i guiscreeniriswipe.obj
 0001:0006c370       ??1CGuiScreenIrisWipe@@UAE@XZ 0046d370 f   guiscreeniriswipe.obj
 0001:0006c380       ?DoNotOpenOnNextOutro@CGuiScreenIrisWipe@@SAXXZ 0046d380 f   guiscreeniriswipe.obj
 0001:0006c390       ?HandleMessage@CGuiScreenIrisWipe@@UAEXW4eGuiMessage@@II@Z 0046d390 f   guiscreeniriswipe.obj
 0001:0006c400       ?InitIntro@CGuiScreenIrisWipe@@MAEXXZ 0046d400 f   guiscreeniriswipe.obj
 0001:0006c480       ?InitOutro@CGuiScreenIrisWipe@@MAEXXZ 0046d480 f   guiscreeniriswipe.obj
 0001:0006c500       ??0CGuiScreenLetterBox@@QAE@PAVScreen@Scrooby@@PAVCGuiEntity@@@Z 0046d500 f   guiscreenletterbox.obj
 0001:0006c950       ??_ECGuiScreenLetterBox@@UAEPAXI@Z 0046d950 f i guiscreenletterbox.obj
 0001:0006c950       ??_GCGuiScreenLetterBox@@UAEPAXI@Z 0046d950 f i guiscreenletterbox.obj
 0001:0006c970       ??1CGuiScreenLetterBox@@UAE@XZ 0046d970 f   guiscreenletterbox.obj
 0001:0006c980       ?HandleMessage@CGuiScreenLetterBox@@UAEXW4eGuiMessage@@II@Z 0046d980 f   guiscreenletterbox.obj
 0001:0006ca40       ?InitIntro@CGuiScreenLetterBox@@MAEXXZ 0046da40 f   guiscreenletterbox.obj
 0001:0006cb40       ?InitRunning@CGuiScreenLetterBox@@MAEXXZ 0046db40 f   guiscreenletterbox.obj
 0001:0006cb60       ?InitOutro@CGuiScreenLetterBox@@MAEXXZ 0046db60 f   guiscreenletterbox.obj
 0001:0006cc80       ??0CGuiScreenLevelEnd@@QAE@PAVScreen@Scrooby@@PAVCGuiEntity@@@Z 0046dc80 f   guiscreenlevelend.obj
 0001:0006cca0       ??_ECGuiScreenLevelEnd@@UAEPAXI@Z 0046dca0 f i guiscreenlevelend.obj
 0001:0006cca0       ??_GCGuiScreenLevelEnd@@UAEPAXI@Z 0046dca0 f i guiscreenlevelend.obj
 0001:0006ccc0       ??1CGuiScreenLevelEnd@@UAE@XZ 0046dcc0 f   guiscreenlevelend.obj
 0001:0006ccd0       ?HandleMessage@CGuiScreenLevelEnd@@UAEXW4eGuiMessage@@II@Z 0046dcd0 f   guiscreenlevelend.obj
 0001:0006cd20       ?InitIntro@CGuiScreenLevelEnd@@MAEXXZ 0046dd20 f   guiscreenlevelend.obj
 0001:0006cd60       ??0CGuiScreenLevelStats@@QAE@PAVScreen@Scrooby@@PAVCGuiEntity@@W4eGuiWindowID@CGuiWindow@@@Z 0046dd60 f   guiscreenlevelstats.obj
 0001:0006cf10       ??_GCGuiScreenLevelStats@@UAEPAXI@Z 0046df10 f i guiscreenlevelstats.obj
 0001:0006cf10       ??_ECGuiScreenLevelStats@@UAEPAXI@Z 0046df10 f i guiscreenlevelstats.obj
 0001:0006cf30       ??1CGuiScreenLevelStats@@UAE@XZ 0046df30 f   guiscreenlevelstats.obj
 0001:0006cf40       ?HandleMessage@CGuiScreenLevelStats@@UAEXW4eGuiMessage@@II@Z 0046df40 f   guiscreenlevelstats.obj
 0001:0006cf80       ?InitIntro@CGuiScreenLevelStats@@MAEXXZ 0046df80 f   guiscreenlevelstats.obj
 0001:0006cf90       ?UpdateLevelStats@CGuiScreenLevelStats@@IAEXXZ 0046df90 f   guiscreenlevelstats.obj
 0001:0006d200       ??0CGuiScreenMissionBase@@QAE@PAVScreen@Scrooby@@PAVCGuiEntity@@W4eGuiWindowID@CGuiWindow@@@Z 0046e200 f   guiscreenmissionbase.obj
 0001:0006dc10       ??_ECGuiScreenMissionBase@@UAEPAXI@Z 0046ec10 f i guiscreenmissionbase.obj
 0001:0006dc10       ??_GCGuiScreenMissionBase@@UAEPAXI@Z 0046ec10 f i guiscreenmissionbase.obj
 0001:0006dc30       ??1CGuiScreenMissionBase@@UAE@XZ 0046ec30 f   guiscreenmissionbase.obj
 0001:0006dcc0       ?GetAbortBitmap@CGuiScreenMissionBase@@IAEPAVGroup@Scrooby@@XZ 0046ecc0 f   guiscreenmissionbase.obj
 0001:0006dcd0       ?GetLoadCompletedGroup@CGuiScreenMissionBase@@IAEPAVGroup@Scrooby@@XZ 0046ecd0 f   guiscreenmissionbase.obj
 0001:0006dce0       ?GetMissionInfoText@CGuiScreenMissionBase@@IAEPAVText@Scrooby@@XZ 0046ece0 f   guiscreenmissionbase.obj
 0001:0006dcf0       ?GetTitleText@CGuiScreenMissionBase@@IAEPAVText@Scrooby@@XZ 0046ecf0 f   guiscreenmissionbase.obj
 0001:0006dd00       ?HandleMessage@CGuiScreenMissionBase@@UAEXW4eGuiMessage@@II@Z 0046ed00 f   guiscreenmissionbase.obj
 0001:0006de60       ?InitIntro@CGuiScreenMissionBase@@UAEXXZ 0046ee60 f   guiscreenmissionbase.obj
 0001:0006e1f0       ?InitOutro@CGuiScreenMissionBase@@UAEXXZ 0046f1f0 f   guiscreenmissionbase.obj
 0001:0006e2b0       ?IsCurrentBitmap@CGuiScreenMissionBase@@SA_NPBD@Z 0046f2b0 f   guiscreenmissionbase.obj
 0001:0006e300       ?RemoveAnimatedBitmap@CGuiScreenMissionBase@@KAXXZ 0046f300 f   guiscreenmissionbase.obj
 0001:0006e320       ?ReplaceBitmap@CGuiScreenMissionBase@@SAXXZ 0046f320 f   guiscreenmissionbase.obj
 0001:0006e3e0       ?SetBitmapName@CGuiScreenMissionBase@@SAXPBD@Z 0046f3e0 f   guiscreenmissionbase.obj
 0001:0006e4d0       ?SetPlayAnimatedCamera@CGuiScreenMissionBase@@IAEX_N@Z 0046f4d0 f   guiscreenmissionbase.obj
 0001:0006e4e0       ?UnloadBitmap@CGuiScreenMissionBase@@IAEXXZ 0046f4e0 f   guiscreenmissionbase.obj
 0001:0006e530       ?UpdateAnimatedBitmap@CGuiScreenMissionBase@@IAEXM@Z 0046f530 f   guiscreenmissionbase.obj
 0001:0006e7f0       ?UpdateGamblingInfo@CGuiScreenMissionBase@@IAEXXZ 0046f7f0 f   guiscreenmissionbase.obj
 0001:0006e990       ?IsContinueAllowed@CGuiScreenMissionBase@@IBE_NXZ 0046f990 f   guiscreenmissionbase.obj
 0001:0006e9b0       ??0?$Iterator@VEventLocator@@@tInventory@@QAE@PAV1@@Z 0046f9b0 f i supersprintmanager.obj
 0001:0006e9b0       ??0?$Iterator@VtEntity@@@tInventory@@QAE@PAV1@@Z 0046f9b0 f i guiscreenmissionbase.obj
 0001:0006ea30       ?Next@?$Iterator@VtEntity@@@tInventory@@QAEPAVtEntity@@XZ 0046fa30 f i guiscreenmissionbase.obj
 0001:0006ea70       ?safe_cast@?$SafeCast@VtEntity@@@radLoadInventory@@UAEPAUIRefCount@@PAU3@@Z 0046fa70 f i guiscreenmissionbase.obj
 0001:0006ea90       ??1UnderdampedTranslator@GuiSFX@@QAE@XZ 0046fa90 f i guiscreenmissionload.obj
 0001:0006eaa0       ??0CGuiScreenMissionLoad@@QAE@PAVScreen@Scrooby@@PAVCGuiEntity@@@Z 0046faa0 f   guiscreenmissionload.obj
 0001:0006ebe0       ??_ECGuiScreenMissionLoad@@UAEPAXI@Z 0046fbe0 f i guiscreenmissionload.obj
 0001:0006ebe0       ??_GCGuiScreenMissionLoad@@UAEPAXI@Z 0046fbe0 f i guiscreenmissionload.obj
 0001:0006ec00       ??1CGuiScreenMissionLoad@@UAE@XZ 0046fc00 f   guiscreenmissionload.obj
 0001:0006ec70       ?AddListeners@CGuiScreenMissionLoad@@MAEXXZ 0046fc70 f   guiscreenmissionload.obj
 0001:0006eca0       ?HandleEvent@CGuiScreenMissionLoad@@UAEXW4EventEnum@@PAX@Z 0046fca0 f   guiscreenmissionload.obj
 0001:0006ecf0       ?HandleMessage@CGuiScreenMissionLoad@@UAEXW4eGuiMessage@@II@Z 0046fcf0 f   guiscreenmissionload.obj
 0001:0006ede0       ?InitializePermanentVariables@CGuiScreenMissionLoad@@SAXXZ 0046fde0 f   guiscreenmissionload.obj
 0001:0006ee00       ?InitIntro@CGuiScreenMissionLoad@@UAEXXZ 0046fe00 f   guiscreenmissionload.obj
 0001:0006ee60       ?InitOutro@CGuiScreenMissionLoad@@UAEXXZ 0046fe60 f   guiscreenmissionload.obj
 0001:0006ee80       ??_ECGuiScreenMissionLoad@@WCBA@AEPAXI@Z 0046fe80 f i guiscreenmissionload.obj
 0001:0006ee90       ??0CGuiScreenMissionOver@@QAE@PAVScreen@Scrooby@@PAVCGuiEntity@@@Z 0046fe90 f   guiscreenmissionover.obj
 0001:0006f020       ??_ECGuiScreenMissionOver@@UAEPAXI@Z 00470020 f i guiscreenmissionover.obj
 0001:0006f020       ??_GCGuiScreenMissionOver@@UAEPAXI@Z 00470020 f i guiscreenmissionover.obj
 0001:0006f040       ??1CGuiScreenMissionOver@@UAE@XZ 00470040 f   guiscreenmissionover.obj
 0001:0006f0f0       ?HandleMessage@CGuiScreenMissionOver@@UAEXW4eGuiMessage@@II@Z 004700f0 f   guiscreenmissionover.obj
 0001:0006f170       ?HandleEvent@CGuiScreenMissionOver@@UAEXW4EventEnum@@PAX@Z 00470170 f   guiscreenmissionover.obj
 0001:0006f1c0       ?InitIntro@CGuiScreenMissionOver@@MAEXXZ 004701c0 f   guiscreenmissionover.obj
 0001:0006f240       ?SetFailureMessage@CGuiScreenMissionOver@@AAEXW4ConditionTypeEnum@MissionCondition@@@Z 00470240 f   guiscreenmissionover.obj
 0001:0006f300       ??_ECGuiScreenMissionOver@@WJI@AEPAXI@Z 00470300 f i guiscreenmissionover.obj
 0001:0006f310       ??0CGuiScreenMissionSelect@@QAE@PAVScreen@Scrooby@@PAVCGuiEntity@@@Z 00470310 f   guiscreenmissionselect.obj
 0001:0006f6e0       ??_GCGuiScreenMissionSelect@@UAEPAXI@Z 004706e0 f i guiscreenmissionselect.obj
 0001:0006f6e0       ??_ECGuiScreenMissionSelect@@UAEPAXI@Z 004706e0 f i guiscreenmissionselect.obj
 0001:0006f700       ??1CGuiScreenMissionSelect@@UAE@XZ 00470700 f   guiscreenmissionselect.obj
 0001:0006f780       ?HandleMessage@CGuiScreenMissionSelect@@UAEXW4eGuiMessage@@II@Z 00470780 f   guiscreenmissionselect.obj
 0001:0006f820       ?InitIntro@CGuiScreenMissionSelect@@MAEXXZ 00470820 f   guiscreenmissionselect.obj
 0001:0006f8b0       ?OnLevelSelectionChange@CGuiScreenMissionSelect@@AAEXH@Z 004708b0 f   guiscreenmissionselect.obj
 0001:0006f9e0       ?UpdateMissionStatus@CGuiScreenMissionSelect@@AAEXHPAUMissionRecord@@@Z 004709e0 f   guiscreenmissionselect.obj
 0001:0006fa30       ??0CGuiScreenMissionSuccess@@QAE@PAVScreen@Scrooby@@PAVCGuiEntity@@@Z 00470a30 f   guiscreenmissionsuccess.obj
 0001:0006fae0       ??_GCGuiScreenMissionSuccess@@UAEPAXI@Z 00470ae0 f i guiscreenmissionsuccess.obj
 0001:0006fae0       ??_ECGuiScreenMissionSuccess@@UAEPAXI@Z 00470ae0 f i guiscreenmissionsuccess.obj
 0001:0006fb00       ??1CGuiScreenMissionSuccess@@UAE@XZ 00470b00 f i guiscreenmissionsuccess.obj
 0001:0006fb10       ?HandleMessage@CGuiScreenMissionSuccess@@UAEXW4eGuiMessage@@II@Z 00470b10 f   guiscreenmissionsuccess.obj
 0001:0006fb50       ?InitIntro@CGuiScreenMissionSuccess@@UAEXXZ 00470b50 f   guiscreenmissionsuccess.obj
 0001:0006fd10       ??0CGuiScreenMultiHud@@QAE@PAVScreen@Scrooby@@PAVCGuiEntity@@W4eGuiWindowID@CGuiWindow@@H@Z 00470d10 f   guiscreenmultihud.obj
 0001:00070280       ??_ECGuiScreenMultiHud@@UAEPAXI@Z 00471280 f i guiscreenmultihud.obj
 0001:00070280       ??_GCGuiScreenMultiHud@@UAEPAXI@Z 00471280 f i guiscreenmultihud.obj
 0001:000702a0       ??1CGuiScreenMultiHud@@UAE@XZ 004712a0 f   guiscreenmultihud.obj
 0001:00070340       ?HandleMessage@CGuiScreenMultiHud@@UAEXW4eGuiMessage@@II@Z 00471340 f   guiscreenmultihud.obj
 0001:000704b0       ?GetHudMap@CGuiScreenMultiHud@@UBEPAVCHudMap@@I@Z 004714b0 f   guiscreenmultihud.obj
 0001:000704c0       ?InitIntro@CGuiScreenMultiHud@@MAEXXZ 004714c0 f   guiscreenmultihud.obj
 0001:00070520       ?RetrieveElements@CGuiScreenMultiHud@@IAEXPAVPage@Scrooby@@@Z 00471520 f   guiscreenmultihud.obj
 0001:00070b90       ?UpdateElements@CGuiScreenMultiHud@@IAEXI@Z 00471b90 f   guiscreenmultihud.obj
 0001:00070c70       ?TutorialBitmapHide@CGuiScreenMultiHud@@QAEXXZ 00471c70 f   guiscreenmultihud.obj
 0001:00070c90       ?UpdateTutorialMode@CGuiScreenMultiHud@@IAEXM@Z 00471c90 f   guiscreenmultihud.obj
 0001:00070d10       ??0ResetCar@@QAE@XZ        00471d10 f   guiscreenmultihud.obj
 0001:00070d20       ?Activate@ResetCar@@UAEXXZ 00471d20 f   guiscreenmultihud.obj
 0001:00070d60       ?SetVehicle@ResetCar@@QAEXPAVVehicle@@@Z 00471d60 f   guiscreenmultihud.obj
 0001:00070d70       ?SetScroobyText@?$NumericText@VText@Scrooby@@@@QAEXPAVGroup@Scrooby@@PBD@Z 00471d70 f i guiscreenmultihud.obj
 0001:00070e20       ?SetValue@?$NumericText@VText@Scrooby@@@@QAEXII@Z 00471e20 f i guiscreenmultihud.obj
 0001:00070f20       ??0CGuiScreenPause@@QAE@PAVScreen@Scrooby@@PAVCGuiEntity@@W4eGuiWindowID@CGuiWindow@@@Z 00471f20 f   guiscreenpause.obj
 0001:00071120       ??_GCGuiScreenPause@@UAEPAXI@Z 00472120 f i guiscreenpause.obj
 0001:00071120       ??_ECGuiScreenPause@@UAEPAXI@Z 00472120 f i guiscreenpause.obj
 0001:00071140       ??1CGuiScreenPause@@UAE@XZ 00472140 f   guiscreenpause.obj
 0001:000711b0       ?HandleMessage@CGuiScreenPause@@UAEXW4eGuiMessage@@II@Z 004721b0 f   guiscreenpause.obj
 0001:00071290       ?InitIntro@CGuiScreenPause@@MAEXXZ 00472290 f   guiscreenpause.obj
 0001:000713a0       ?InitRunning@CGuiScreenPause@@MAEXXZ 004723a0 f   guiscreenpause.obj
 0001:000713d0       ?InitOutro@CGuiScreenPause@@MAEXXZ 004723d0 f   guiscreenpause.obj
 0001:000713e0       ?HandleResumeGame@CGuiScreenPause@@IAEXII@Z 004723e0 f   guiscreenpause.obj
 0001:00071410       ?HandleQuitGame@CGuiScreenPause@@IAEXXZ 00472410 f   guiscreenpause.obj
 0001:00071430       ??0CGuiScreenPauseController@@QAE@PAVScreen@Scrooby@@PAVCGuiEntity@@@Z 00472430 f   guiscreenpausecontroller.obj
 0001:000714c0       ??_ECGuiScreenPauseController@@UAEPAXI@Z 004724c0 f i guiscreenpausecontroller.obj
 0001:000714c0       ??_GCGuiScreenPauseController@@UAEPAXI@Z 004724c0 f i guiscreenpausecontroller.obj
 0001:000714e0       ??1CGuiScreenPauseController@@UAE@XZ 004724e0 f   guiscreenpausecontroller.obj
 0001:000714f0       ?HandleMessage@CGuiScreenPauseController@@UAEXW4eGuiMessage@@II@Z 004724f0 f   guiscreenpausecontroller.obj
 0001:00071530       ?InitIntro@CGuiScreenPauseController@@MAEXXZ 00472530 f   guiscreenpausecontroller.obj
 0001:00071540       ?OnUnregisterDebugControls@KullCam@@EAEXXZ 00472540 f   kullcam.obj
 0001:00071540       ??1JointState@SimStateArticulated@sim@@IAE@XZ 00472540 f   simwr:simstatearticulated.obj
 0001:00071540       ?OnRegisterDebugControls@StaticCam@@MAEXXZ 00472540 f   staticcam.obj
 0001:00071540       ?OnSuspend@PauseContext@@MAEXXZ 00472540 f   pausecontext.obj
 0001:00071540       ?InitRunning@CGuiScreenPauseSound@@MAEXXZ 00472540 f   guiscreenpausesound.obj
 0001:00071540       ?OnReset@BonusObjective@@MAEXXZ 00472540 f   nocopbonusobjective.obj
 0001:00071540       ?AddRef@MemoryCardManager@@UAEXXZ 00472540 f   memorycardmanager.obj
 0001:00071540       ?InitRunning@CGuiScreenMiniPause@@MAEXXZ 00472540 f   guiscreenminipause.obj
 0001:00071540       ?OnFinalize@FollowCondition@@MAEXXZ 00472540 f   followcondition.obj
 0001:00071540       ?EndImage@ImageBuilder@@UAEXXZ 00472540 f   pure3dwr:imagefactory.obj
 0001:00071540       ?OnFinalize@MissionObjective@@MAEXXZ 00472540 f   missionobjective.obj
 0001:00071540       ?OnInitCollectibles@CollectDumpedObjective@@MAEXXZ 00472540 f   collectdumpedobjective.obj
 0001:00071540       ?SetDebugInfo@DownshiftEngineState@@UAEXXZ 00472540 f   vehiclesoundplayer.obj
 0001:00071540       ?SubmitAnimCollisions@NPCharacter@@UAEXXZ 00472540 f   character.obj
 0001:00071540       ?OnDialogLineComplete@DialogPriorityQueue@@UAEXXZ 00472540 f   dialogpriorityqueue.obj
 0001:00071540       ?ReleasePlayer@MusicSoundPlayer@Sound@@UAEXXZ 00472540 f   musicsoundplayer.obj
 0001:00071540       ?state_stopped_paused@radmusic@@YAXPAUstruct_music_engine@1@_N@Z 00472540 f   radmusicwr:music_engine_state_stopped.obj
 0001:00071540       ?InitRunning@CGuiScreenVehicleGallery@@MAEXXZ 00472540 f   guiscreenvehiclegallery.obj
 0001:00071540       ?InitRunning@CGuiScreenViewCards@@MAEXXZ 00472540 f   guiscreenviewcards.obj
 0001:00071540       ?bool_instance_destroy@ods@@YAXABVpointer@1@0@Z 00472540 f   radmusicwr:ods.obj
 0001:00071540       ?SetDebugInfo@UpshiftEngineState@@UAEXXZ 00472540 f   vehiclesoundplayer.obj
 0001:00071540       ?InitOutro@CGuiScreenMiniPause@@MAEXXZ 00472540 f   guiscreenminipause.obj
 0001:00071540       ?state_stopped_kill@radmusic@@YAXPAUstruct_music_engine@1@@Z 00472540 f   radmusicwr:music_engine_state_stopped.obj
 0001:00071540       ??1PhysicsRestingDetector@sim@@IAE@XZ 00472540 f   simwr:restingdetector.obj
 0001:00071540       ?OnSoundReady@VehicleSoundPlayer@@UAEXXZ 00472540 f   vehiclesoundplayer.obj
 0001:00071540       ?DoLoaded@TransitionPlayer@@MAEXXZ 00472540 f   transitionplayer.obj
 0001:00071540       ?Clear@JumpAction@@UAEXXZ  00472540 f   action.obj
 0001:00071540       ?OnReachedWaypoint@Pedestrian@@MAEXXZ 00472540 f   pedestrian.obj
 0001:00071540       ?InitRunning@CGuiScreenMissionSelect@@MAEXXZ 00472540 f   guiscreenmissionselect.obj
 0001:00071540       ?InitRunning@CGuiScreenSkinGallery@@MAEXXZ 00472540 f   guiscreenskingallery.obj
 0001:00071540       ?OnFinalize@FMVObjective@@MAEXXZ 00472540 f   fmvobjective.obj
 0001:00071540       ?rDebugPrintf@@YAXPBDZZ    00472540 f   actionbuttonmanager.obj
 0001:00071540       ?InitOutro@CGuiScreenMissionSelect@@MAEXXZ 00472540 f   guiscreenmissionselect.obj
 0001:00071540       ??1Collision@sim@@QAE@XZ   00472540 f   vehicleai.obj
 0001:00071540       ?OnUnregisterDebugControls@ChaseCam@@EAEXXZ 00472540 f   chasecam.obj
 0001:00071540       ?OnResume@FrontEndContext@@MAEXXZ 00472540 f   frontendcontext.obj
 0001:00071540       ?OnShutdown@SuperSprintCam@@MAEXXZ 00472540 f   supersprintcam.obj
 0001:00071540       ?InitRunning@CGuiScreenLoadGame@@MAEXXZ 00472540 f   guiscreenloadgame.obj
 0001:00071540       ?Release@GameDataManager@@UAEXXZ 00472540 f   gamedatamanager.obj
 0001:00071540       ?SetDebugInfo@EngineState@@UAEXXZ 00472540 f   vehiclesoundplayer.obj
 0001:00071540       ?OnPlaybackComplete@SoundFXLogic@@UAEXXZ 00472540 f   soundfxlogic.obj
 0001:00071540       ?OnResume@DemoContext@@MAEXXZ 00472540 f   democontext.obj
 0001:00071540       ?printf@p3d@@YAXPBDZZ      00472540 f   pure3dwr:utility.obj
 0001:00071540       ?OnSuspend@GameplayContext@@MAEXXZ 00472540 f   gameplaycontext.obj
 0001:00071540       ?InitRunning@CGuiScreenSaveGame@@MAEXXZ 00472540 f   guiscreensavegame.obj
 0001:00071540       ?ReleaseBehaviours@Projectile@@UAEXXZ 00472540 f   projectile.obj
 0001:00071540       ?DoLoaded@FMVPlayer@@MAEXXZ 00472540 f   fmvplayer.obj
 0001:00071540       ?OnTransitToAICtrl@DynaPhysDSG@@UAEXXZ 00472540 f   actordsg.obj
 0001:00071540       ?RegisterEventListeners@SoundFXPauseLogic@@UAEXXZ 00472540 f   soundfxpauselogic.obj
 0001:00071540       ?state_stopped_set_volume@radmusic@@YAXPAUstruct_music_engine@1@M@Z 00472540 f   radmusicwr:music_engine_state_stopped.obj
 0001:00071540       ?OnInitialize@MissionObjective@@MAEXXZ 00472540 f   missionobjective.obj
 0001:00071540       ?OnSuspend@LoadingContext@@MAEXXZ 00472540 f   loadingcontext.obj
 0001:00071540       ?RenderUpdate@IEntityDSG@@UAEXXZ 00472540 f   IEntityDSG.obj
 0001:00071540       ??0DSGFactory@@AAE@XZ      00472540 f   DSGFactory.obj
 0001:00071540       ?OnInit@SuperCam@@MAEXXZ   00472540 f   bumpercam.obj
 0001:00071540       ?InitOutro@CGuiScreenPauseSound@@MAEXXZ 00472540 f   guiscreenpausesound.obj
 0001:00071540       ?OnUnregisterDebugControls@FirstPersonCam@@MAEXXZ 00472540 f   firstpersoncam.obj
 0001:00071540       ?OnUnregisterDebugControls@StaticCam@@MAEXXZ 00472540 f   staticcam.obj
 0001:00071540       ?ServiceOncePerFrame@MusicSoundPlayer@Sound@@UAEXXZ 00472540 f   musicsoundplayer.obj
 0001:00071540       ?OnResume@LoadingGameplayContext@@MAEXXZ 00472540 f   loadinggameplaycontext.obj
 0001:00071540       ??1JointInfo@SkeletonInfo@sim@@QAE@XZ 00472540 f   simwr:skeletoninfo.obj
 0001:00071540       ?Clear@Action@@UAEXXZ      00472540 f   action.obj
 0001:00071540       ?state_stopped_enter@radmusic@@YAXPAUstruct_music_engine@1@@Z 00472540 f   radmusicwr:music_engine_state_stopped.obj
 0001:00071540       ?OnResume@ExitContext@@MAEXXZ 00472540 f   exitcontext.obj
 0001:00071540       ?InitRunning@CGuiScreenViewCredits@@MAEXXZ 00472540 f   guiscreenviewcredits.obj
 0001:00071540       ?state_stopped_set_pitch@radmusic@@YAXPAUstruct_music_engine@1@M@Z 00472540 f   radmusicwr:music_engine_state_stopped.obj
 0001:00071540       ?OnResume@PauseContext@@MAEXXZ 00472540 f   pausecontext.obj
 0001:00071540       ?InitRunning@CGuiScreenPauseOptions@@MAEXXZ 00472540 f   guiscreenpauseoptions.obj
 0001:00071540       ?Finalize@TimeRemainBonusObjective@@UAEXXZ 00472540 f   timeremainbonusobjective.obj
 0001:00071540       ?InitOutro@CGuiScreenIntroTransition@@MAEXXZ 00472540 f   guiscreenmainmenu.obj
 0001:00071540       ?InitOutro@CGuiScreenSound@@MAEXXZ 00472540 f   guiscreensound.obj
 0001:00071540       ?OnSoundReady@ActorPlayer@@UAEXXZ 00472540 f   actorplayer.obj
 0001:00071540       ?LoadMission@SuperSprintManager@@MAEXXZ 00472540 f   supersprintmanager.obj
 0001:00071540       ?OnStart@BonusObjective@@MAEXXZ 00472540 f   nocopbonusobjective.obj
 0001:00071540       ?InitOutro@CGuiScreenMemCardCheck@@MAEXXZ 00472540 f   guiscreenmemcardcheck.obj
 0001:00071540       ?OnRegisterDebugControls@ConversationCam@@EAEXXZ 00472540 f   conversationcam.obj
 0001:00071540       ??1Randomizer@RadicalMathLibrary@@QAE@XZ 00472540 f   radmathwr:random.obj
 0001:00071540       ?OnUnregisterDebugControls@BurnoutCam@@EAEXXZ 00472540 f   burnoutcam.obj
 0001:00071540       ?OnSuspend@LoadingSuperSprintContext@@MAEXXZ 00472540 f   loadingsupersprintcontext.obj
 0001:00071540       ?LinkActionToObject@MissionScriptLoader@@CAXHPAPAD@Z 00472540 f   missionscriptloader.obj
 0001:00071540       ?OnUnregisterDebugControls@FollowCam@@EAEXXZ 00472540 f   followcam.obj
 0001:00071540       ?DisplaySimpleShadow@Character@@UAEXXZ 00472540 f   character.obj
 0001:00071540       ?OnUnregisterDebugControls@BumperCam@@EAEXXZ 00472540 f   bumpercam.obj
 0001:00071540       ?ConvertToPlatformEndian@radSoundHalFileHeader@@QAEXXZ 00472540 f   radsoundwr:radsoundfile.obj
 0001:00071540       ?InitRunning@CGuiScreenLoading@@MAEXXZ 00472540 f   guiscreenloading.obj
 0001:00071540       ?OnUnregisterDebugControls@ReverseCam@@MAEXXZ 00472540 f   reversecam.obj
 0001:00071540       ?InitIntro@CGuiScreenLanguage@@MAEXXZ 00472540 f   guiscreenlanguage.obj
 0001:00071540       ?AddVehicleSelectInfo@ActionButtonManager@@SAXHPAPAD@Z 00472540 f   actionbuttonmanager.obj
 0001:00071540       ?ResetRestingDetector@SimulatedObject@sim@@UAEXXZ 00472540 f   simwr:simulatedobject.obj
 0001:00071540       ?InitRunning@CGuiScreenScrapBookStats@@MAEXXZ 00472540 f   guiscreenscrapbookstats.obj
 0001:00071540       ?OnStart@RacePositionBonusObjective@@MAEXXZ 00472540 f   racepositionbonusobjective.obj
 0001:00071540       ?float_instance_destroy@ods@@YAXABVpointer@1@0@Z 00472540 f   radmusicwr:ods.obj
 0001:00071540       ?RenderUpdate@StaticPhysDSG@@UAEXXZ 00472540 f   StaticPhysDSG.obj
 0001:00071540       ?ResetCache@PhysicsJoint0D@sim@@UAEXXZ 00472540 f   simwr:physicsjoint.obj
 0001:00071540       ?InitIntro@CGuiScreenLicense@@MAEXXZ 00472540 f   guiscreenlicense.obj
 0001:00071540       ?UpdateScale@ArticulatedPhysicsObject@sim@@UAEXXZ 00472540 f   simwr:articulatedphysicsobject.obj
 0001:00071540       ?Enter@NoState@CharacterAi@@MAEXXZ 00472540 f   statemanager.obj
 0001:00071540       ?UpdateFootPlant@NPCharacter@@EAEXXZ 00472540 f   character.obj
 0001:00071540       ??1BakedBillboardQuad@@QAE@XZ 00472540 f   pchsrr2.obj
 0001:00071540       ?OnReset@ButtonHandler@ActionButton@@MAEXXZ 00472540 f   actionbuttonhandler.obj
 0001:00071540       ?TriggerCallbacks@tLoadManager@@QAEXXZ 00472540 f   pure3dwr:loadmanager.obj
 0001:00071540       ?InitOutro@CGuiScreenSaveGame@@MAEXXZ 00472540 f   guiscreensavegame.obj
 0001:00071540       ?CreateAnimPhysObject@MissionScriptLoader@@CAXHPAPAD@Z 00472540 f   missionscriptloader.obj
 0001:00071540       ?InitOutro@CGuiScreenAutoLoad@@MAEXXZ 00472540 f   guiscreenloadgame.obj
 0001:00071540       ?Suspend@MusicSoundPlayer@Sound@@UAEXXZ 00472540 f   musicsoundplayer.obj
 0001:00071540       ?InitRunning@CGuiScreenMultiHud@@MAEXXZ 00472540 f   guiscreenmultihud.obj
 0001:00071540       ?Release@stream_graph_callback@radmusic@@UAEXXZ 00472540 f   radmusicwr:sequence_stream_graph.obj
 0001:00071540       ?SetDebugInfo@InAirEngineState@@UAEXXZ 00472540 f   vehiclesoundplayer.obj
 0001:00071540       ?InitIntro@CGuiScreenAutoLoad@@MAEXXZ 00472540 f   guiscreenloadgame.obj
 0001:00071540       ?OnStart@NoDamageBonusObjective@@MAEXXZ 00472540 f   nodamagebonusobjective.obj
 0001:00071540       ?OnPlaybackComplete@ActorPlayer@@UAEXXZ 00472540 f   actorplayer.obj
 0001:00071540       ?GetName@MouthFlapperDefaultSetting@@QBEABVtName@@XZ 00472540 f   mouthflapper.obj
 0001:00071540       ?AddRef@GameDataManager@@UAEXXZ 00472540 f   gamedatamanager.obj
 0001:00071540       ?ResetMachine@Win32Platform@@UAEXXZ 00472540 f   win32platform.obj
 0001:00071540       ?Initialize@TimeRemainBonusObjective@@UAEXXZ 00472540 f   timeremainbonusobjective.obj
 0001:00071540       ?InitRunning@CGuiScreenMiniSummary@@MAEXXZ 00472540 f   guiscreenminisummary.obj
 0001:00071540       ?InitOutro@CGuiScreenMemoryCard@@MAEXXZ 00472540 f   guiscreenmemorycard.obj
 0001:00071540       ?OnFinalize@MissionCondition@@MAEXXZ 00472540 f   missioncondition.obj
 0001:00071540       ?OnSuspend@BootupContext@@MAEXXZ 00472540 f   bootupcontext.obj
 0001:00071540       ?Activate@Actor@@UAEXXZ    00472540 f   actor.obj
 0001:00071540       ?RegisterDebugInfo@SineCosShaker@@UAEXXZ 00472540 f   sinecosshaker.obj
 0001:00071540       ?AddGlobalProp@MissionScriptLoader@@CAXHPAPAD@Z 00472540 f   missionscriptloader.obj
 0001:00071540       ?PrintStats@radLoadManager@@UAEXXZ 00472540 f   radcontentwr:manager.obj
 0001:00071540       ??1tName@@QAE@XZ           00472540 f   pure3dwr:entity.obj
 0001:00071540       ?InitOutro@CGuiScreenLevelEnd@@MAEXXZ 00472540 f   guiscreenlevelend.obj
 0001:00071540       ?InitRunning@CGuiScreenLanguage@@MAEXXZ 00472540 f   guiscreenlanguage.obj
 0001:00071540       ?Display@IntersectDSG@@UAEXXZ 00472540 f   IntersectDSG.obj
 0001:00071540       ?MemSetup@p3d@@YAXXZ       00472540 f   pure3dwr:memory.obj
 0001:00071540       ?InitOutro@CGuiScreenTutorial@@MAEXXZ 00472540 f   guiscreentutorial.obj
 0001:00071540       ?OnSuspend@ExitContext@@MAEXXZ 00472540 f   exitcontext.obj
 0001:00071540       ?CleanMissionData@SuperSprintManager@@UAEXXZ 00472540 f   supersprintmanager.obj
 0001:00071540       ?UnregisterDebugInfo@SineCosShaker@@UAEXXZ 00472540 f   sinecosshaker.obj
 0001:00071540       ?OnSuspend@LoadingGameplayContext@@MAEXXZ 00472540 f   loadinggameplaycontext.obj
 0001:00071540       ?DoPostDynaLoad@RenderLayer@@UAEXXZ 00472540 f   RenderLayer.obj
 0001:00071540       ?Pause@MusicSoundPlayer@Sound@@UAEXXZ 00472540 f   musicsoundplayer.obj
 0001:00071540       ?CapturePlayer@MusicSoundPlayer@Sound@@UAEXXZ 00472540 f   musicsoundplayer.obj
 0001:00071540       ?InitRunning@CGuiScreenMissionOver@@MAEXXZ 00472540 f   guiscreenmissionover.obj
 0001:00071540       ?OnRegisterDebugControls@FollowCam@@EAEXXZ 00472540 f   followcam.obj
 0001:00071540       ?state_stopped_start_layer@radmusic@@YAXPAUstruct_music_engine@1@PBD@Z 00472540 f   radmusicwr:music_engine_state_stopped.obj
 0001:00071540       ?OnInit@SuperSprintCam@@MAEXXZ 00472540 f   supersprintcam.obj
 0001:00071540       ?RenderUpdate@StaticEntityDSG@@UAEXXZ 00472540 f   StaticEntityDSG.obj
 0001:00071540       ?UpdateForPhysicsProperties@SimulatedObject@sim@@UAEXXZ 00472540 f   simwr:simulatedobject.obj
 0001:00071540       ?Continue@MusicSoundPlayer@Sound@@UAEXXZ 00472540 f   musicsoundplayer.obj
 0001:00071540       ?terminate@memory@@YAXXZ   00472540 f   radmusicwr:memory.obj
 0001:00071540       ?InitRunning@CGuiScreenSound@@MAEXXZ 00472540 f   guiscreensound.obj
 0001:00071540       ?InitRunning@IGuiScreenRewards@@MAEXXZ 00472540 f   guiscreenrewards.obj
 0001:00071540       ?Clear@CarDoorAction@@UAEXXZ 00472540 f   action.obj
 0001:00071540       ?OnSoundReady@SoundFXLogic@@UAEXXZ 00472540 f   soundfxlogic.obj
 0001:00071540       ?LaunchDashboard@Win32Platform@@UAEXXZ 00472540 f   win32platform.obj
 0001:00071540       ?InitRunning@CGuiScreenMissionGallery@@MAEXXZ 00472540 f   guiscreenmissiongallery.obj
 0001:00071540       ?OnSuspend@SuperSprintFEContext@@MAEXXZ 00472540 f   supersprintfecontext.obj
 0001:00071540       ?OnResume@SuperSprintFEContext@@MAEXXZ 00472540 f   supersprintfecontext.obj
 0001:00071540       ?OnUnregisterDebugControls@WrecklessCam@@EAEXXZ 00472540 f   wrecklesscam.obj
 0001:00071540       ?SetCarStartCamera@MissionScriptLoader@@CAXHPAPAD@Z 00472540 f   missionscriptloader.obj
 0001:00071540       ?RestartCurrentMission@GameplayManager@@UAEXXZ 00472540 f   gameplaymanager.obj
 0001:00071540       ?OnRegisterDebugControls@FirstPersonCam@@MAEXXZ 00472540 f   firstpersoncam.obj
 0001:00071540       ??1SelfCollision@CollisionObject@sim@@QAE@XZ 00472540 f   actionbuttonhandler.obj
 0001:00071540       ?RenderUpdate@WorldSphereDSG@@UAEXXZ 00472540 f   WorldSphereDSG.obj
 0001:00071540       ?OnResume@LoadingContext@@MAEXXZ 00472540 f   loadingcontext.obj
 0001:00071540       ?UsePermanentMem@p3d@@YAX_N@Z 00472540 f   pure3dwr:memory.obj
 0001:00071540       ?ReleaseTempVertices@tPrimGroup@@UAEXXZ 00472540 f   pure3dwr:primgroup.obj
 0001:00071540       ?SequenceAction@NoState@CharacterAi@@MAEXXZ 00472540 f   statemanager.obj
 0001:00071540       ?PrepareNewHeaps@LoadingSuperSprintContext@@MAEXXZ 00472540 f   loadingsupersprintcontext.obj
 0001:00071540       ?OnUnregisterDebugControls@DebugCam@@EAEXXZ 00472540 f   debugcam.obj
 0001:00071540       ?ResetDeformation@PhysicsJoint0D@sim@@UAEXXZ 00472540 f   simwr:physicsjoint.obj
 0001:00071540       ?SetRotation@CollisionVolume@sim@@MAEXXZ 00472540 f   simwr:collisionvolume.obj
 0001:00071540       ?Play@MusicSoundPlayer@Sound@@UAEXXZ 00472540 f   musicsoundplayer.obj
 0001:00071540       ?radSoundPrintBanner@@YAXXZ 00472540 f   radsoundwr:banner.obj
 0001:00071540       ?Activate@Behaviour@@UAEXXZ 00472540 f   attackbehaviour.obj
 0001:00071540       ?InitRunning@CGuiScreenLevelEnd@@MAEXXZ 00472540 f   guiscreenlevelend.obj
 0001:00071540       ?OnSuspend@EntryContext@@MAEXXZ 00472540 f   entrycontext.obj
 0001:00071540       ?AddCacheToDeformationSpeed@PhysicsJoint0D@sim@@MAEXXZ 00472540 f   simwr:physicsjoint.obj
 0001:00071540       ?OnFinalize@LoadVehicleObjective@@MAEXXZ 00472540 f   loadvehicleobjective.obj
 0001:00071540       ?OnRegisterDebugControls@RailCam@@MAEXXZ 00472540 f   railcam.obj
 0001:00071540       ?DoPostStaticLoad@WorldRenderLayer@@UAEXXZ 00472540 f   WorldRenderLayer.obj
 0001:00071540       ?ResetData@SoundManager@@UAEXXZ 00472540 f   soundmanager.obj
 0001:00071540       ?OnResume@SuperSprintContext@@MAEXXZ 00472540 f   supersprintcontext.obj
 0001:00071540       ?RenderUpdate@AnimEntityDSG@@UAEXXZ 00472540 f   animentitydsg.obj
 0001:00071540       ?InitOutro@CGuiScreenScrapBookStats@@MAEXXZ 00472540 f   guiscreenscrapbookstats.obj
 0001:00071540       ?InitLevelData@SuperSprintManager@@UAEXXZ 00472540 f   supersprintmanager.obj
 0001:00071540       ?OnStart@TimeRemainBonusObjective@@MAEXXZ 00472540 f   timeremainbonusobjective.obj
 0001:00071540       ?OnInit@AnimSwitch@ActionButton@@MAEXXZ 00472540 f   actionbuttonhandler.obj
 0001:00071540       ?Cleanup@SoundFXLogic@@UAEXXZ 00472540 f   soundfxlogic.obj
 0001:00071540       ?OnRegisterDebugControls@DebugCam@@EAEXXZ 00472540 f   debugcam.obj
 0001:00071540       ?OnUnregisterDebugControls@RailCam@@MAEXXZ 00472540 f   railcam.obj
 0001:00071540       ?RemoveListeners@CGuiScreenMissionLoad@@MAEXXZ 00472540 f   guiscreenmissionload.obj
 0001:00071540       ?InitRunning@CGuiScreenMemoryCard@@MAEXXZ 00472540 f   guiscreenmemorycard.obj
 0001:00071540       ?OnSoundReady@DialogQueueElement@@UAEXXZ 00472540 f   dialogqueueelement.obj
 0001:00071540       ?OnShutdown@SuperCam@@MAEXXZ 00472540 f   bumpercam.obj
 0001:00071540       ?OnPlaybackComplete@VehicleSoundPlayer@@UAEXXZ 00472540 f   vehiclesoundplayer.obj
 0001:00071540       ?InitRunning@CGuiScreenViewMovies@@MAEXXZ 00472540 f   guiscreenviewmovies.obj
 0001:00071540       ?InitOutro@CGuiScreenMissionOver@@MAEXXZ 00472540 f   guiscreenmissionover.obj
 0001:00071540       ?state_stopped_stop_layer@radmusic@@YAXPAUstruct_music_engine@1@PBD@Z 00472540 f   radmusicwr:music_engine_state_stopped.obj
 0001:00071540       ?OnResume@EntryContext@@MAEXXZ 00472540 f   entrycontext.obj
 0001:00071540       ?DisplayShadow@Character@@UAEXXZ 00472540 f   character.obj
 0001:00071540       ??1tFontGlyph@@QAE@XZ      00472540 f   pure3dwr:font.obj
 0001:00071540       ?Display@AnimCollisionEntityDSGWrapper@ActionButton@@UAEXXZ 00472540 f   actionbuttonhandler.obj
 0001:00071540       ?AbortCurrentMission@GameplayManager@@UAEXXZ 00472540 f   gameplaymanager.obj
 0001:00071540       ?Reset@AnimationJointDriver@choreo@@UAEXXZ 00472540 f   choreowr:animation.obj
 0001:00071540       ?PreSubstepUpdate@PhysicsLocomotion@@UAEXXZ 00472540 f   physicslocomotion.obj
 0001:00071540       ?OnUnregisterDebugControls@WalkerCam@@EAEXXZ 00472540 f   walkercam.obj
 0001:00071540       ?Stop@MusicSoundPlayer@Sound@@UAEXXZ 00472540 f   musicsoundplayer.obj
 0001:00071540       ?UpdateUnits@SimUnits@sim@@UAEXXZ 00472540 f   simwr:physicsproperties.obj
 0001:00071540       ?OnResume@PlayingContext@@MAEXXZ 00472540 f   playingcontext.obj
 0001:00071540       ?SetDebugInfo@IdleEngineState@@UAEXXZ 00472540 f   vehiclesoundplayer.obj
 0001:00071540       ?InitOutro@CGuiScreenViewCredits@@MAEXXZ 00472540 f   guiscreenviewcredits.obj
 0001:00071540       ?InitOutro@CGuiScreenSplash@@MAEXXZ 00472540 f   guiscreensplash.obj
 0001:00071540       ?SetDebugInfo@ReverseEngineState@@UAEXXZ 00472540 f   vehiclesoundplayer.obj
 0001:00071540       ?OnSuspend@LoadingDemoContext@@MAEXXZ 00472540 f   loadingdemocontext.obj
 0001:00071540       ?OnSuspend@SuperSprintContext@@MAEXXZ 00472540 f   supersprintcontext.obj
 0001:00071540       ?DisplayShadow@IEntityDSG@@UAEXXZ 00472540 f   actordsg.obj
 0001:00071540       ?SubmitDynamics@NPCharacter@@UAEXXZ 00472540 f   character.obj
 0001:00071540       ??1Spline@RadicalMathLibrary@@QAE@XZ 00472540 f   evasionbehaviour.obj
 0001:00071540       ?OnRegisterDebugControls@TrackerCam@@EAEXXZ 00472540 f   trackercam.obj
 0001:00071540       ?char_instance_destroy@ods@@YAXABVpointer@1@0@Z 00472540 f   radmusicwr:ods.obj
 0001:00071540       ?InitRunning@CGuiScreenCardGallery@@MAEXXZ 00472540 f   guiscreencardgallery.obj
 0001:00071540       ?InitRunning@CGuiScreenMissionBase@@UAEXXZ 00472540 f   guiscreenmissionbase.obj
 0001:00071540       ?OnRegisterDebugControls@BumperCam@@EAEXXZ 00472540 f   bumpercam.obj
 0001:00071540       ?Reload@FeScreen@@UAEXXZ   00472540 f   scroobywr:FeScreen.obj
 0001:00071540       ?InitOutro@CGuiScreenViewMovies@@MAEXXZ 00472540 f   guiscreenviewmovies.obj
 0001:00071540       ?InitOutro@CGuiScreenScrapBook@@MAEXXZ 00472540 f   guiscreenscrapbook.obj
 0001:00071540       ?Display@PathSegment@@UAEXXZ 00472540 f   pathsegment.obj
 0001:00071540       ?InitRunning@CGuiScreenLoadingFE@@MAEXXZ 00472540 f   guiscreenloadingfe.obj
 0001:00071540       ?OnRegisterDebugControls@KullCam@@EAEXXZ 00472540 f   kullcam.obj
 0001:00071540       ?OnSuspend@DemoContext@@MAEXXZ 00472540 f   democontext.obj
 0001:00071540       ?InitRunning@CGuiScreenLevelStats@@MAEXXZ 00472540 f   guiscreenlevelstats.obj
 0001:00071540       ?InitRunning@CGuiScreenDemo@@MAEXXZ 00472540 f   guiscreendemo.obj
 0001:00071540       ?Terminate@MusicSoundPlayer@Sound@@MAEXXZ 00472540 f   musicsoundplayer.obj
 0001:00071540       ?SetHitNRun@MissionScriptLoader@@CAXHPAPAD@Z 00472540 f   missionscriptloader.obj
 0001:00071540       ?OnInitialize@MissionCondition@@MAEXXZ 00472540 f   missioncondition.obj
 0001:00071540       ??1tColourOffset@@QAE@XZ   00472540 f   pure3dwr:vertexanimkey.obj
 0001:00071540       ?OnFinalize@TimerObjective@@MAEXXZ 00472540 f   timerobjective.obj
 0001:00071540       ?OnSuspend@FrontEndContext@@MAEXXZ 00472540 f   frontendcontext.obj
 0001:00071540       ?InitOutro@CGuiScreenLicense@@MAEXXZ 00472540 f   guiscreenlicense.obj
 0001:00071540       ?OnRegisterDebugControls@BurnoutCam@@EAEXXZ 00472540 f   burnoutcam.obj
 0001:00071540       ?InitOutro@CGuiScreenMiniSummary@@MAEXXZ 00472540 f   guiscreenminisummary.obj
 0001:00071540       ?InitRunning@CGuiScreenMiniHud@@MAEXXZ 00472540 f   guiscreenminihud.obj
 0001:00071540       ?OnUnregisterDebugControls@SuperCam@@MAEXXZ 00472540 f   animatedcam.obj
 0001:00071540       ?InitIntro@CGuiScreenSplash@@MAEXXZ 00472540 f   guiscreensplash.obj
 0001:00071540       ?PreSubstepUpdate@TrafficLocomotion@@UAEXXZ 00472540 f   trafficlocomotion.obj
 0001:00071540       ??1RayIntersectionInfo@sim@@QAE@XZ 00472540 f   intersectionlist.obj
 0001:00071540       ?SetDebugInfo@SkidEngineState@@UAEXXZ 00472540 f   vehiclesoundplayer.obj
 0001:00071540       ?Deactivate@Behaviour@@UAEXXZ 00472540 f   attackbehaviour.obj
 0001:00071540       ?DisplaySimpleShadow@IEntityDSG@@UAEXXZ 00472540 f   FenceEntityDSG.obj
 0001:00071540       ?OnInitialize@TimerObjective@@MAEXXZ 00472540 f   timerobjective.obj
 0001:00071540       ?OnStart@NoCopBonusObjective@@MAEXXZ 00472540 f   nocopbonusobjective.obj
 0001:00071540       ?Release@MemoryCardManager@@UAEXXZ 00472540 f   memorycardmanager.obj
 0001:00071540       ??1Joint@poser@@QAE@XZ     00472540 f   poserwr:joint.obj
 0001:00071540       ?InitOutro@CGuiScreenCardGallery@@MAEXXZ 00472540 f   guiscreencardgallery.obj
 0001:00071540       ?InitOutro@CGuiScreenScrapBookContents@@MAEXXZ 00472540 f   guiscreenscrapbookcontents.obj
 0001:00071540       ?InitOutro@CGuiScreenMultiHud@@MAEXXZ 00472540 f   guiscreenmultihud.obj
 0001:00071540       ?OnDisplay@SuperCam@@MBEXXZ 00472540 f   animatedcam.obj
 0001:00071540       ?InitRunning@CGuiScreenPrompt@@MAEXXZ 00472540 f   guiscreenprompt.obj
 0001:00071540       ?OnRegisterDebugControls@ReverseCam@@MAEXXZ 00472540 f   reversecam.obj
 0001:00071540       ?InitIntro@CGuiScreenMiniHud@@MAEXXZ 00472540 f   guiscreenminihud.obj
 0001:00071540       ?InitOutro@CGuiScreenLanguage@@MAEXXZ 00472540 f   guiscreenlanguage.obj
 0001:00071540       ?InitRunning@CGuiScreenTutorial@@MAEXXZ 00472540 f   guiscreentutorial.obj
 0001:00071540       ?ResetDeformationSpeed@PhysicsJoint0D@sim@@UAEXXZ 00472540 f   simwr:physicsjoint.obj
 0001:00071540       ?AddRef@stream_graph_callback@radmusic@@UAEXXZ 00472540 f   radmusicwr:sequence_stream_graph.obj
 0001:00071540       ?uint32_instance_destroy@ods@@YAXABVpointer@1@0@Z 00472540 f   radmusicwr:ods.obj
 0001:00071540       ?LinkActionToObjectJoint@MissionScriptLoader@@CAXHPAPAD@Z 00472540 f   missionscriptloader.obj
 0001:00071540       ??1Button@@QAE@XZ          00472540 f   button.obj
 0001:00071540       ?InitRunning@CGuiScreenPauseSettings@@MAEXXZ 00472540 f   guiscreenpausesettings.obj
 0001:00071540       ?RenderUpdate@LensFlareDSG@@UAEXXZ 00472540 f   LensFlareDSG.obj
 0001:00071540       ?GameObjectDestroyed@AnimSwitch@ActionButton@@UAEXXZ 00472540 f   actionbuttonhandler.obj
 0001:00071540       ?InitController@RailCam@@UAEXXZ 00472540 f   railcam.obj
 0001:00071540       ?Update@tAnimatedObjectFrameController@@MAEXXZ 00472540 f   pure3dwr:animatedobject.obj
 0001:00071540       ?CleanUp@CGuiWindow@@MAEXXZ 00472540 f   guiwindow.obj
 0001:00071540       ?InitOutro@CGuiScreenMessage@@MAEXXZ 00472540 f   guiscreenmessage.obj
 0001:00071540       ?SetDebugInfo@NormalEngineState@@UAEXXZ 00472540 f   vehiclesoundplayer.obj
 0001:00071540       ??1tImageGlyph@@QAE@XZ     00472540 f   pure3dwr:imagefont.obj
 0001:00071540       ?OnSuspend@PlayingContext@@MAEXXZ 00472540 f   playingcontext.obj
 0001:00071540       ?OnFinalize@VehicleCondition@@MAEXXZ 00472540 f   vehiclecondition.obj
 0001:00071540       ?OnUnregisterDebugControls@ConversationCam@@EAEXXZ 00472540 f   conversationcam.obj
 0001:00071540       ?OnResume@LoadingDemoContext@@MAEXXZ 00472540 f   loadingdemocontext.obj
 0001:00071540       ?TestJointAngle@PhysicsJoint0D@sim@@MAEXXZ 00472540 f   simwr:physicsjoint.obj
 0001:00071540       ?OnRegisterDebugControls@WalkerCam@@EAEXXZ 00472540 f   walkercam.obj
 0001:00071540       ?OnResume@BootupContext@@MAEXXZ 00472540 f   bootupcontext.obj
 0001:00071540       ??1CollisionAnalyserEvent@sim@@QAE@XZ 00472540 f   simwr:collisionanalyserdata.obj
 0001:00071540       ?Reset@BlendJointDriver@choreo@@UAEXXZ 00472540 f   choreowr:blend.obj
 0001:00071540       ?InitRunning@CGuiScreenPauseController@@MAEXXZ 00472540 f   guiscreenpausecontroller.obj
 0001:00071540       ?Setup@tContext@@AAEXXZ    00472540 f   pure3dwr:context.obj
 0001:00071540       ?Exit@NoState@CharacterAi@@MAEXXZ 00472540 f   statemanager.obj
 0001:00071540       ?OnRegisterDebugControls@WrecklessCam@@EAEXXZ 00472540 f   wrecklesscam.obj
 0001:00071540       ?UpdateBBox@CollisionVolume@sim@@UAEXXZ 00472540 f   simwr:collisionvolume.obj
 0001:00071540       ?OnRegisterDebugControls@SuperCam@@MAEXXZ 00472540 f   animatedcam.obj
 0001:00071540       ?Display@RoadSegment@@UAEXXZ 00472540 f   roadsegment.obj
 0001:00071540       ?Shutdown@VehicleController@@UAEXXZ 00472540 f   chaseai.obj
 0001:00071540       ?PreUpdate@PhysicsLocomotion@@UAEXXZ 00472540 f   physicslocomotion.obj
 0001:00071540       ?UpdateForSimEnvironment@SimulatedObject@sim@@UAEXXZ 00472540 f   simwr:simulatedobject.obj
 0001:00071540       ?DoPreStaticLoad@RenderLayer@@UAEXXZ 00472540 f   RenderLayer.obj
 0001:00071540       ?OnResume@LoadingSuperSprintContext@@MAEXXZ 00472540 f   loadingsupersprintcontext.obj
 0001:00071540       ?InitOutro@CGuiScreenMiniHud@@MAEXXZ 00472540 f   guiscreenminihud.obj
 0001:00071540       ?InitOutro@CGuiScreenPrompt@@MAEXXZ 00472540 f   guiscreenprompt.obj
 0001:00071540       ?InitRunning@CGuiScreenIrisWipe@@MAEXXZ 00472540 f   guiscreeniriswipe.obj
 0001:00071540       ?DoPostStaticLoad@RenderLayer@@UAEXXZ 00472540 f   RenderLayer.obj
 0001:00071540       ?OnPlaybackComplete@SoundFXGameplayLogic@@UAEXXZ 00472540 f   soundfxgameplaylogic.obj
 0001:00071540       ?ClearVehicleSelectInfo@ActionButtonManager@@SAXHPAPAD@Z 00472540 f   actionbuttonmanager.obj
 0001:00071540       ?InitRunning@CGuiScreenScrapBook@@MAEXXZ 00472540 f   guiscreenscrapbook.obj
 0001:00071540       ?InitOutro@CGuiScreenLoadGame@@MAEXXZ 00472540 f   guiscreenloadgame.obj
 0001:00071540       ?Display@FeDrawable@@UAEXXZ 00472540 f   scroobywr:FeDrawable.obj
 0001:00071540       ?InitRunning@CGuiScreenScrapBookContents@@MAEXXZ 00472540 f   guiscreenscrapbookcontents.obj
 0001:00071540       ?InitOutro@CGuiScreenLevelStats@@MAEXXZ 00472540 f   guiscreenlevelstats.obj
 0001:00071540       ?Init@VehicleController@@UAEXXZ 00472540 f   chaseai.obj
 0001:00071540       ?OnRegisterDebugControls@ChaseCam@@EAEXXZ 00472540 f   chasecam.obj
 0001:00071540       ?InitOutro@CGuiScreenViewCards@@MAEXXZ 00472540 f   guiscreenviewcards.obj
 0001:00071540       ?SetUpGuts@FrontEndRenderLayer@@UAEXXZ 00472540 f   FrontEndRenderLayer.obj
 0001:00071540       ?DoRender@TransitionPlayer@@MAEXXZ 00472540 f   transitionplayer.obj
 0001:00071540       ??3@YAXPAX0@Z              00472540 f   RealController.obj
 0001:00071540       ?InitRunning@CGuiScreenController@@MAEXXZ 00472540 f   guiscreencontroller.obj
 0001:00071540       ?UpdateUnits@SimUnitsManager@sim@@MAEXXZ 00472540 f   simwr:simutility.obj
 0001:00071540       ?Shutdown@tContext@@AAEXXZ 00472540 f   pure3dwr:context.obj
 0001:00071540       ?InitRunning@CGuiScreenOptions@@MAEXXZ 00472540 f   guiscreenoptions.obj
 0001:00071540       ?PerformLoading@SuperSprintManager@@UAEXXZ 00472540 f   supersprintmanager.obj
 0001:00071540       ?Display@StaticPhysDSG@@UAEXXZ 00472540 f   StaticPhysDSG.obj
 0001:00071540       ?DeactivateBehaviours@Actor@@UAEXXZ 00472540 f   actor.obj
 0001:00071540       ??1CollisionObjectPair@sim@@QAE@XZ 00472540 f   simwr:collisionmanager.obj
 0001:00071540       ?OnUnregisterDebugControls@TrackerCam@@EAEXXZ 00472540 f   trackercam.obj
 0001:00071540       ?OnResume@GameplayContext@@MAEXXZ 00472540 f   gameplaycontext.obj
 0001:00071540       ?OnInitialize@VehicleCondition@@MAEXXZ 00472540 f   vehiclecondition.obj
 0001:00071550       ?InitOutro@CGuiScreenPauseController@@MAEXXZ 00472550 f   guiscreenpausecontroller.obj
 0001:00071590       ??0CGuiScreenPauseMission@@QAE@PAVScreen@Scrooby@@PAVCGuiEntity@@@Z 00472590 f   guiscreenpausemission.obj
 0001:00071690       ??_GCGuiScreenPauseMission@@UAEPAXI@Z 00472690 f i guiscreenpausemission.obj
 0001:00071690       ??_ECGuiScreenPauseMission@@UAEPAXI@Z 00472690 f i guiscreenpausemission.obj
 0001:000716b0       ??1CGuiScreenPauseMission@@UAE@XZ 004726b0 f   guiscreenpausemission.obj
 0001:000716c0       ?HandleMessage@CGuiScreenPauseMission@@UAEXW4eGuiMessage@@II@Z 004726c0 f   guiscreenpausemission.obj
 0001:00071800       ?InitIntro@CGuiScreenPauseMission@@MAEXXZ 00472800 f   guiscreenpausemission.obj
 0001:00071810       ??0CGuiScreenPauseOptions@@QAE@PAVScreen@Scrooby@@PAVCGuiEntity@@@Z 00472810 f   guiscreenpauseoptions.obj
 0001:000719f0       ??_GCGuiScreenPauseOptions@@UAEPAXI@Z 004729f0 f i guiscreenpauseoptions.obj
 0001:000719f0       ??_ECGuiScreenPauseOptions@@UAEPAXI@Z 004729f0 f i guiscreenpauseoptions.obj
 0001:00071a10       ??1CGuiScreenPauseOptions@@UAE@XZ 00472a10 f   guiscreenpauseoptions.obj
 0001:00071a80       ?HandleMessage@CGuiScreenPauseOptions@@UAEXW4eGuiMessage@@II@Z 00472a80 f   guiscreenpauseoptions.obj
 0001:00071b30       ?InitIntro@CGuiScreenPauseOptions@@MAEXXZ 00472b30 f   guiscreenpauseoptions.obj
 0001:00071b40       ??0CGuiScreenPauseSettings@@QAE@PAVScreen@Scrooby@@PAVCGuiEntity@@@Z 00472b40 f   guiscreenpausesettings.obj
 0001:00071d60       ??_ECGuiScreenPauseSettings@@UAEPAXI@Z 00472d60 f i guiscreenpausesettings.obj
 0001:00071d60       ??_GCGuiScreenPauseSettings@@UAEPAXI@Z 00472d60 f i guiscreenpausesettings.obj
 0001:00071d80       ??1CGuiScreenPauseSettings@@UAE@XZ 00472d80 f   guiscreenpausesettings.obj
 0001:00071df0       ?HandleMessage@CGuiScreenPauseSettings@@UAEXW4eGuiMessage@@II@Z 00472df0 f   guiscreenpausesettings.obj
 0001:00071eb0       ?InitIntro@CGuiScreenPauseSettings@@MAEXXZ 00472eb0 f   guiscreenpausesettings.obj
 0001:00072010       ?InitOutro@CGuiScreenPauseSettings@@MAEXXZ 00473010 f   guiscreenpausesettings.obj
 0001:00072150       ?UpdateCameraSelections@CGuiScreenPauseSettings@@AAEXXZ 00473150 f   guiscreenpausesettings.obj
 0001:00072370       ??0CGuiScreenPauseSound@@QAE@PAVScreen@Scrooby@@PAVCGuiEntity@@@Z 00473370 f   guiscreenpausesound.obj
 0001:00072380       ??_GCGuiScreenPauseSound@@UAEPAXI@Z 00473380 f i guiscreenpausesound.obj
 0001:00072380       ??_ECGuiScreenPauseSound@@UAEPAXI@Z 00473380 f i guiscreenpausesound.obj
 0001:000723a0       ??1CGuiScreenPauseSound@@UAE@XZ 004733a0 f   guiscreenpausesound.obj
 0001:000723b0       ?HandleMessage@CGuiScreenPauseSound@@UAEXW4eGuiMessage@@II@Z 004733b0 f   guiscreenpausesound.obj
 0001:000723f0       ?InitIntro@CGuiScreenPauseSound@@MAEXXZ 004733f0 f   guiscreenpausesound.obj
 0001:00072400       ??0CGuiScreenPauseSunday@@QAE@PAVScreen@Scrooby@@PAVCGuiEntity@@@Z 00473400 f   guiscreenpausesunday.obj
 0001:00072500       ??_GCGuiScreenPauseSunday@@UAEPAXI@Z 00473500 f i guiscreenpausesunday.obj
 0001:00072500       ??_ECGuiScreenPauseSunday@@UAEPAXI@Z 00473500 f i guiscreenpausesunday.obj
 0001:00072520       ??1CGuiScreenPauseSunday@@UAE@XZ 00473520 f   guiscreenpausesunday.obj
 0001:00072530       ?HandleMessage@CGuiScreenPauseSunday@@UAEXW4eGuiMessage@@II@Z 00473530 f   guiscreenpausesunday.obj
 0001:00072660       ?InitIntro@CGuiScreenPauseSunday@@MAEXXZ 00473660 f   guiscreenpausesunday.obj
 0001:000726d0       ?InitRunning@CGuiScreenPauseSunday@@MAEXXZ 004736d0 f   guiscreenpausesunday.obj
 0001:000726d0       ?InitRunning@CGuiScreenPauseMission@@MAEXXZ 004736d0 f   guiscreenpausemission.obj
 0001:000726e0       ?InitOutro@CGuiScreenPauseSunday@@MAEXXZ 004736e0 f   guiscreenpausesunday.obj
 0001:000726e0       ?InitOutro@CGuiScreenPauseMission@@MAEXXZ 004736e0 f   guiscreenpausemission.obj
 0001:000726f0       ?AddDebugVehicleSelectionInfo@CarSelectionInfo@SummonVehiclePhone@ActionButton@@QAEXPBD00@Z 004736f0 f i guiscreenphonebooth.obj
 0001:00072730       ??0CGuiScreenPhoneBooth@@QAE@PAVScreen@Scrooby@@PAVCGuiEntity@@@Z 00473730 f   guiscreenphonebooth.obj
 0001:00072940       ??_ECGuiScreenPhoneBooth@@UAEPAXI@Z 00473940 f i guiscreenphonebooth.obj
 0001:00072940       ??_GCGuiScreenPhoneBooth@@UAEPAXI@Z 00473940 f i guiscreenphonebooth.obj
 0001:00072960       ??1CGuiScreenPhoneBooth@@UAE@XZ 00473960 f   guiscreenphonebooth.obj
 0001:000729d0       ?HandleMessage@CGuiScreenPhoneBooth@@UAEXW4eGuiMessage@@II@Z 004739d0 f   guiscreenphonebooth.obj
 0001:00072d10       ?InitIntro@CGuiScreenPhoneBooth@@MAEXXZ 00473d10 f   guiscreenphonebooth.obj
 0001:00072db0       ?InitRunning@CGuiScreenPhoneBooth@@MAEXXZ 00473db0 f   guiscreenphonebooth.obj
 0001:00072dd0       ?InitOutro@CGuiScreenPhoneBooth@@MAEXXZ 00473dd0 f   guiscreenphonebooth.obj
 0001:00072ea0       ?On3DModelLoaded@CGuiScreenPhoneBooth@@MAEXPBUPreviewObject@@@Z 00473ea0 f   guiscreenphonebooth.obj
 0001:00073000       ?GetCurrentPreviewObject@CGuiScreenPhoneBooth@@MBEPBUPreviewObject@@XZ 00474000 f   guiscreenphonebooth.obj
 0001:00073020       ?InitMenu@CGuiScreenPhoneBooth@@MAEXXZ 00474020 f   guiscreenphonebooth.obj
 0001:00073170       ?OnUpdate@CGuiScreenPhoneBooth@@EAEXI@Z 00474170 f   guiscreenphonebooth.obj
 0001:00073180       ?LoadSelectedReward@CGuiScreenPhoneBooth@@AAEXXZ 00474180 f   guiscreenphonebooth.obj
 0001:000731c0       ?UpdateDamagedInfo@CGuiScreenPhoneBooth@@AAEXXZ 004741c0 f   guiscreenphonebooth.obj
 0001:00073350       ?HandleMessageForCar@CGuiScreenPhoneBooth@@AAEXW4eGuiMessage@@II@Z 00474350 f   guiscreenphonebooth.obj
 0001:00073610       ?find@?$@VtCameraAnimationController@@@p3d@@YAPAVtCameraAnimationController@@PAVtEntityStore@@PBD@Z 00474610 f i guiscreenphonebooth.obj
 0001:00073670       ?find@?$@VtCameraAnimationController@@@p3d@@YAPAVtCameraAnimationController@@PAVtEntityStore@@ABVtName@@@Z 00474670 f i guiscreenphonebooth.obj
 0001:00073700       ?safe_cast@?$SafeCast@VtCameraAnimationController@@@radLoadInventory@@UAEPAUIRefCount@@PAU3@@Z 00474700 f i guiscreenphonebooth.obj
 0001:00073720       ??0CGuiScreenPurchaseRewards@@QAE@PAVScreen@Scrooby@@PAVCGuiEntity@@@Z 00474720 f   guiscreenpurchaserewards.obj
 0001:00073930       ??_GCGuiScreenPurchaseRewards@@UAEPAXI@Z 00474930 f i guiscreenpurchaserewards.obj
 0001:00073930       ??_ECGuiScreenPurchaseRewards@@UAEPAXI@Z 00474930 f i guiscreenpurchaserewards.obj
 0001:00073950       ??1CGuiScreenPurchaseRewards@@UAE@XZ 00474950 f   guiscreenpurchaserewards.obj
 0001:00073a10       ?HandleMessage@CGuiScreenPurchaseRewards@@UAEXW4eGuiMessage@@II@Z 00474a10 f   guiscreenpurchaserewards.obj
 0001:00073c10       ?OnProcessRequestsComplete@CGuiScreenPurchaseRewards@@UAEXPAX@Z 00474c10 f   guiscreenpurchaserewards.obj
 0001:00073d80       ?InitIntro@CGuiScreenPurchaseRewards@@MAEXXZ 00474d80 f   guiscreenpurchaserewards.obj
 0001:00073e80       ?InitRunning@CGuiScreenPurchaseRewards@@MAEXXZ 00474e80 f   guiscreenpurchaserewards.obj
 0001:00073ea0       ?InitOutro@CGuiScreenPurchaseRewards@@MAEXXZ 00474ea0 f   guiscreenpurchaserewards.obj
 0001:00073ec0       ?On3DModelLoaded@CGuiScreenPurchaseRewards@@MAEXPBUPreviewObject@@@Z 00474ec0 f   guiscreenpurchaserewards.obj
 0001:00073fd0       ?GetCurrentPreviewObject@CGuiScreenPurchaseRewards@@MBEPBUPreviewObject@@XZ 00474fd0 f   guiscreenpurchaserewards.obj
 0001:00074020       ?InitMenu@CGuiScreenPurchaseRewards@@MAEXXZ 00475020 f   guiscreenpurchaserewards.obj
 0001:00074210       ?OnUpdate@CGuiScreenPurchaseRewards@@EAEXI@Z 00475210 f   guiscreenpurchaserewards.obj
 0001:00074310       ?UpdateRewardPrice@CGuiScreenPurchaseRewards@@AAEXXZ 00475310 f   guiscreenpurchaserewards.obj
 0001:000743f0       ?PurchaseReward@CGuiScreenPurchaseRewards@@AAEXXZ 004753f0 f   guiscreenpurchaserewards.obj
 0001:00074490       ?LoadSelectedReward@CGuiScreenPurchaseRewards@@AAEXXZ 00475490 f   guiscreenpurchaserewards.obj
 0001:00074650       ??0PhoneBoothStars@@QAE@PAVPage@Scrooby@@PBD@Z 00475650 f   guiscreenrewards.obj
 0001:000746c0       ?SetNumStars@PhoneBoothStars@@QAEXH@Z 004756c0 f   guiscreenrewards.obj
 0001:00074720       ??0IGuiScreenRewards@@QAE@PAVScreen@Scrooby@@PAVPage@2@PAVCGuiEntity@@W4eGuiWindowID@CGuiWindow@@@Z 00475720 f   guiscreenrewards.obj
 0001:00074c60       ??_EIGuiScreenRewards@@UAEPAXI@Z 00475c60 f i guiscreenrewards.obj
 0001:00074c60       ??_GIGuiScreenRewards@@UAEPAXI@Z 00475c60 f i guiscreenrewards.obj
 0001:00074c80       ??1IGuiScreenRewards@@UAE@XZ 00475c80 f   guiscreenrewards.obj
 0001:00074d40       ?HandleMessage@IGuiScreenRewards@@UAEXW4eGuiMessage@@II@Z 00475d40 f   guiscreenrewards.obj
 0001:00074dc0       ?OnProcessRequestsComplete@IGuiScreenRewards@@UAEXPAX@Z 00475dc0 f   guiscreenrewards.obj
 0001:00074ea0       ?InitIntro@IGuiScreenRewards@@MAEXXZ 00475ea0 f   guiscreenrewards.obj
 0001:00074ef0       ?InitOutro@IGuiScreenRewards@@MAEXXZ 00475ef0 f   guiscreenrewards.obj
 0001:00074f20       ?InsertPreviewObject@IGuiScreenRewards@@IAEHPAUPreviewObject@@HPAVReward@@_N@Z 00475f20 f   guiscreenrewards.obj
 0001:00075250       ?OnUpdate@IGuiScreenRewards@@MAEXI@Z 00476250 f   guiscreenrewards.obj
 0001:00075370       ?SetLightOpening@IGuiScreenRewards@@IAEXM@Z 00476370 f   guiscreenrewards.obj
 0001:000753a0       ?On3DModelSelectionChange@IGuiScreenRewards@@IAEXPBUPreviewObject@@@Z 004763a0 f   guiscreenrewards.obj
 0001:00075510       ?Load3DModel@IGuiScreenRewards@@IAEXPBUPreviewObject@@@Z 00476510 f   guiscreenrewards.obj
 0001:000755e0       ?Unload3DModel@IGuiScreenRewards@@IAEXXZ 004765e0 f   guiscreenrewards.obj
 0001:000756c0       ?SetVehicleStatsVisible@IGuiScreenRewards@@IAEX_N@Z 004766c0 f   guiscreenrewards.obj
 0001:00075700       ?UpdateVehicleStats@IGuiScreenRewards@@IAEXXZ 00476700 f   guiscreenrewards.obj
 0001:00075760       ??0CGuiScreenSaveGame@@QAE@PAVScreen@Scrooby@@PAVCGuiEntity@@@Z 00476760 f   guiscreensavegame.obj
 0001:00075970       ??_ECGuiScreenSaveGame@@UAEPAXI@Z 00476970 f i guiscreensavegame.obj
 0001:00075970       ??_GCGuiScreenSaveGame@@UAEPAXI@Z 00476970 f i guiscreensavegame.obj
 0001:00075990       ??1CGuiScreenSaveGame@@UAE@XZ 00476990 f   guiscreensavegame.obj
 0001:00075a20       ?HandleMessage@CGuiScreenSaveGame@@UAEXW4eGuiMessage@@II@Z 00476a20 f   guiscreensavegame.obj
 0001:00075ca0       ?OnSaveGameComplete@CGuiScreenSaveGame@@UAEXW4radFileError@@@Z 00476ca0 f   guiscreensavegame.obj
 0001:00075ce0       ?HandleErrorResponse@CGuiScreenSaveGame@@MAEXW4ePromptResponse@CGuiMenuPrompt@@@Z 00476ce0 f   guiscreensavegame.obj
 0001:00075d10       ?InitIntro@CGuiScreenSaveGame@@MAEXXZ 00476d10 f   guiscreensavegame.obj
 0001:00076000       ?GotoMemoryCardScreen@CGuiScreenSaveGame@@MAEXXZ 00477000 f   guiscreensavegame.obj
 0001:00076000       ?GotoMemoryCardScreen@CGuiScreenLoadGame@@MAEXXZ 00477000 f   guiscreenloadgame.obj
 0001:00076020       ?SaveGame@CGuiScreenSaveGame@@AAEXXZ 00477020 f   guiscreensavegame.obj
 0001:00076040       ??_ECGuiScreenSaveGame@@WJI@AEPAXI@Z 00477040 f i guiscreensavegame.obj
 0001:00076050       ?HandleMessage@CGuiScreenSaveGame@@WJI@AEXW4eGuiMessage@@II@Z 00477050 f i guiscreensavegame.obj
 0001:00076060       ??0CGuiScreenTutorial@@QAE@PAVScreen@Scrooby@@PAVCGuiEntity@@@Z 00477060 f   guiscreentutorial.obj
 0001:000761c0       ??_GCGuiScreenTutorial@@UAEPAXI@Z 004771c0 f i guiscreentutorial.obj
 0001:000761c0       ??_ECGuiScreenTutorial@@UAEPAXI@Z 004771c0 f i guiscreentutorial.obj
 0001:000761e0       ??1CGuiScreenTutorial@@UAE@XZ 004771e0 f   guiscreentutorial.obj
 0001:000761f0       ?HandleMessage@CGuiScreenTutorial@@UAEXW4eGuiMessage@@II@Z 004771f0 f   guiscreentutorial.obj
 0001:00076320       ?InitIntro@CGuiScreenTutorial@@MAEXXZ 00477320 f   guiscreentutorial.obj
 0001:000763c0       ??0CGuiScreenViewCards@@QAE@PAVScreen@Scrooby@@PAVCGuiEntity@@@Z 004773c0 f   guiscreenviewcards.obj
 0001:00076460       ??_ECGuiScreenViewCards@@UAEPAXI@Z 00477460 f i guiscreenviewcards.obj
 0001:00076460       ??_GCGuiScreenViewCards@@UAEPAXI@Z 00477460 f i guiscreenviewcards.obj
 0001:00076480       ??1CGuiScreenViewCards@@UAE@XZ 00477480 f   guiscreenviewcards.obj
 0001:00076490       ?HandleMessage@CGuiScreenViewCards@@UAEXW4eGuiMessage@@II@Z 00477490 f   guiscreenviewcards.obj
 0001:00076500       ?InitIntro@CGuiScreenViewCards@@MAEXXZ 00477500 f   guiscreenviewcards.obj
 0001:00076520       ??0HudCardCollected@@QAE@PAVPage@Scrooby@@@Z 00477520 f   hudcardcollected.obj
 0001:000766d0       ??_EHudCardCollected@@UAEPAXI@Z 004776d0 f i hudcardcollected.obj
 0001:000766d0       ??_GHudCardCollected@@UAEPAXI@Z 004776d0 f i hudcardcollected.obj
 0001:000766f0       ??1HudCardCollected@@UAE@XZ 004776f0 f   hudcardcollected.obj
 0001:00076700       ?Start@HudCardCollected@@UAEXXZ 00477700 f   hudcardcollected.obj
 0001:00076830       ?Update@HudCardCollected@@UAEXM@Z 00477830 f   hudcardcollected.obj
 0001:00076dc0       ?SetCurrentCard@HudCardCollected@@QAEXI@Z 00477dc0 f   hudcardcollected.obj
 0001:00076de0       ?SetCardCount@HudCardCollected@@AAEXII@Z 00477de0 f   hudcardcollected.obj
 0001:00076e70       ??0HudCoinCollected@@QAE@PAVPage@Scrooby@@@Z 00477e70 f   hudcoincollected.obj
 0001:00076fb0       ??_EHudCoinCollected@@UAEPAXI@Z 00477fb0 f i hudcoincollected.obj
 0001:00076fb0       ??_GHudCoinCollected@@UAEPAXI@Z 00477fb0 f i hudcoincollected.obj
 0001:00076fd0       ??1HudCoinCollected@@UAE@XZ 00477fd0 f   hudcoincollected.obj
 0001:00076fe0       ?Start@HudCoinCollected@@UAEXXZ 00477fe0 f   hudcoincollected.obj
 0001:000770d0       ?Stop@HudCoinCollected@@UAEXXZ 004780d0 f   hudcoincollected.obj
 0001:000770f0       ?Update@HudCoinCollected@@UAEXM@Z 004780f0 f   hudcoincollected.obj
 0001:000773c0       ?SetItemCount@HudCoinCollected@@AAEXII@Z 004783c0 f   hudcoincollected.obj
 0001:00077420       ??0HudCountDown@@QAE@PAVPage@Scrooby@@@Z 00478420 f   hudcountdown.obj
 0001:000774b0       ??_EHudCountDown@@UAEPAXI@Z 004784b0 f i hudcountdown.obj
 0001:000774b0       ??_GHudCountDown@@UAEPAXI@Z 004784b0 f i hudcountdown.obj
 0001:000774d0       ??1HudCountDown@@UAE@XZ    004784d0 f   hudcountdown.obj
 0001:000774e0       ?Start@HudCountDown@@UAEXXZ 004784e0 f   hudcountdown.obj
 0001:00077570       ?Stop@HudCountDown@@UAEXXZ 00478570 f   hudcountdown.obj
 0001:00077590       ?Update@HudCountDown@@UAEXM@Z 00478590 f   hudcountdown.obj
 0001:00077650       ?GetNextSequenceUnit@HudCountDown@@AAEXXZ 00478650 f   hudcountdown.obj
 0001:000776a0       ??0HudEventHandler@@QAE@PAVGroup@Scrooby@@@Z 004786a0 f   hudeventhandler.obj
 0001:000776d0       ??_GHudEventHandler@@UAEPAXI@Z 004786d0 f i hudeventhandler.obj
 0001:000776d0       ??_EHudEventHandler@@UAEPAXI@Z 004786d0 f i hudeventhandler.obj
 0001:000776f0       ??1HudEventHandler@@UAE@XZ 004786f0 f   hudeventhandler.obj
 0001:00077700       ?OnStart@HudEventHandler@@IAEXXZ 00478700 f   hudeventhandler.obj
 0001:00077730       ?OnStop@HudEventHandler@@IAEXXZ 00478730 f   hudeventhandler.obj
 0001:00077760       ??0HudHitNRun@@QAE@PAVPage@Scrooby@@@Z 00478760 f   hudhitnrun.obj
 0001:000778a0       ??_EHudHitNRun@@UAEPAXI@Z  004788a0 f i hudhitnrun.obj
 0001:000778a0       ??_GHudHitNRun@@UAEPAXI@Z  004788a0 f i hudhitnrun.obj
 0001:000778c0       ??1HudHitNRun@@UAE@XZ      004788c0 f   hudhitnrun.obj
 0001:000778d0       ?Start@HudHitNRun@@UAEXXZ  004788d0 f   hudhitnrun.obj
 0001:00077960       ?Update@HudHitNRun@@UAEXM@Z 00478960 f   hudhitnrun.obj
 0001:00077f30       ?SetMessage@HudHitNRun@@QAEXW4eMessage@1@@Z 00478f30 f   hudhitnrun.obj
 0001:00077f30       ?SetEvent@SendEvent@GuiSFX@@QAEXW4EventEnum@@@Z 00478f30 f   transitions.obj
 0001:00077f40       ??0HudMissionObjective@@QAE@PAVPage@Scrooby@@@Z 00478f40 f   hudmissionobjective.obj
 0001:00078020       ??_EHudMissionObjective@@UAEPAXI@Z 00479020 f i hudmissionobjective.obj
 0001:00078020       ??_GHudMissionObjective@@UAEPAXI@Z 00479020 f i hudmissionobjective.obj
 0001:00078040       ??1HudMissionObjective@@UAE@XZ 00479040 f   hudmissionobjective.obj
 0001:00078060       ?Start@HudMissionObjective@@UAEXXZ 00479060 f   hudmissionobjective.obj
 0001:00078100       ?Stop@HudMissionObjective@@UAEXXZ 00479100 f   hudmissionobjective.obj
 0001:00078130       ?Update@HudMissionObjective@@UAEXM@Z 00479130 f   hudmissionobjective.obj
 0001:00078280       ??0HudMissionProgress@@QAE@PAVPage@Scrooby@@@Z 00479280 f   hudmissionprogress.obj
 0001:00078310       ??_EHudMissionProgress@@UAEPAXI@Z 00479310 f i hudmissionprogress.obj
 0001:00078310       ??_GHudMissionProgress@@UAEPAXI@Z 00479310 f i hudmissionprogress.obj
 0001:00078330       ??1HudMissionProgress@@UAE@XZ 00479330 f   hudmissionprogress.obj
 0001:00078340       ?Start@HudMissionProgress@@UAEXXZ 00479340 f   hudmissionprogress.obj
 0001:00078350       ?Update@HudMissionProgress@@UAEXM@Z 00479350 f   hudmissionprogress.obj
 0001:000783b0       ??0HudWaspDestroyed@@QAE@PAVPage@Scrooby@@@Z 004793b0 f   hudwaspdestroyed.obj
 0001:00078430       ??_EHudWaspDestroyed@@UAEPAXI@Z 00479430 f i hudwaspdestroyed.obj
 0001:00078430       ??_GHudWaspDestroyed@@UAEPAXI@Z 00479430 f i hudwaspdestroyed.obj
 0001:00078450       ??1HudWaspDestroyed@@UAE@XZ 00479450 f   hudwaspdestroyed.obj
 0001:00078460       ?Start@HudWaspDestroyed@@UAEXXZ 00479460 f   hudwaspdestroyed.obj
 0001:00078510       ?Stop@HudMissionProgress@@UAEXXZ 00479510 f   hudmissionprogress.obj
 0001:00078510       ?Stop@HudWaspDestroyed@@UAEXXZ 00479510 f   hudwaspdestroyed.obj
 0001:00078510       ?Stop@HudHitNRun@@UAEXXZ   00479510 f   hudhitnrun.obj
 0001:00078510       ?Stop@HudCardCollected@@UAEXXZ 00479510 f   hudcardcollected.obj
 0001:00078520       ?Update@HudWaspDestroyed@@UAEXM@Z 00479520 f   hudwaspdestroyed.obj
 0001:00078730       ?IsAICarIcon@HudMapIcon@@QBE_NXZ 00479730 f i hudmap.obj
 0001:00078750       ?ApplyAICarIconColour@HudMapIcon@@QAEXXZ 00479750 f   hudmap.obj
 0001:000787e0       ??0CHudMap@@QAE@PAVPage@Scrooby@@HPBD@Z 004797e0 f   hudmap.obj
 0001:00078a80       ??_GCHudMap@@UAEPAXI@Z     00479a80 f i hudmap.obj
 0001:00078a80       ??_ECHudMap@@UAEPAXI@Z     00479a80 f i hudmap.obj
 0001:00078aa0       ??1CHudMap@@UAE@XZ         00479aa0 f   hudmap.obj
 0001:00078ac0       ?SetCameraTarget@CHudMap@@QAEXPAVISuperCamTarget@@@Z 00479ac0 f   hudmap.obj
 0001:00078ad0       ?Update@CHudMap@@QAEXI@Z   00479ad0 f   hudmap.obj
 0001:000790b0       ?AddIconToInventory@CHudMap@@QAEXW4eIconType@HudMapIcon@@PAVSprite@Scrooby@@@Z 0047a0b0 f   hudmap.obj
 0001:000790f0       ?RemoveIconFromInventory@CHudMap@@QAEPAVSprite@Scrooby@@W4eIconType@HudMapIcon@@@Z 0047a0f0 f   hudmap.obj
 0001:00079140       ?RegisterIcon@CHudMap@@QAEHW4eIconType@HudMapIcon@@VVector@RadicalMathLibrary@@PAUIHudMapIconLocator@@_N@Z 0047a140 f   hudmap.obj
 0001:00079270       ?UnregisterIcon@CHudMap@@QAEXH@Z 0047a270 f   hudmap.obj
 0001:000792e0       ?SetFocalPointIcon@CHudMap@@QAEXH@Z 0047a2e0 f   hudmap.obj
 0001:000792f0       ?Reset@CHudMap@@QAEXXZ     0047a2f0 f   hudmap.obj
 0001:00079380       ?SetVisible@CHudMap@@QAEX_N@Z 0047a380 f   hudmap.obj
 0001:000793d0       ?CalculateDistanceBetweenPoints@CHudMap@@CAMAAVVector@RadicalMathLibrary@@0@Z 0047a3d0 f   hudmap.obj
 0001:00079400       ?UpdateIconHeading@CHudMap@@AAEXPAVSprite@Scrooby@@PAVVector@RadicalMathLibrary@@@Z 0047a400 f   hudmap.obj
 0001:000795d0       ?CalculateCameraHeight@CHudMap@@ABEMAAVVector@RadicalMathLibrary@@0@Z 0047a5d0 f   hudmap.obj
 0001:00079620       ?CalculateCameraHeight@CHudMap@@ABEMM@Z 0047a620 f   hudmap.obj
 0001:00079680       ?CalculatRadarConeAngle@CHudMap@@ABEMAAVVector@RadicalMathLibrary@@@Z 0047a680 f   hudmap.obj
 0001:00079710       ?DetermineOnRoadLocation@CHudMap@@AAEXAAVVector@RadicalMathLibrary@@0M@Z 0047a710 f   hudmap.obj
 0001:00079c50       ??0HudMapCam@@QAE@H@Z      0047ac50 f   hudmapcam.obj
 0001:00079d20       ??_GHudMapCam@@UAEPAXI@Z   0047ad20 f i hudmapcam.obj
 0001:00079d20       ??_EHudMapCam@@UAEPAXI@Z   0047ad20 f i hudmapcam.obj
 0001:00079d40       ??1HudMapCam@@UAE@XZ       0047ad40 f   hudmapcam.obj
 0001:00079db0       ?Update@HudMapCam@@UAEXI@Z 0047adb0 f   hudmapcam.obj
 0001:00079f10       ?SetHeight@HudMapCam@@QAEXM@Z 0047af10 f   hudmapcam.obj
 0001:00079f10       ?SetDamageMaxTrim@carSoundParameters@@UAEXM@Z 0047af10 f   carsoundparameters.obj
 0001:00079f20       ??0ScrollingText@@QAE@PAVText@Scrooby@@@Z 0047af20 f   scrollingtext.obj
 0001:00079fa0       ??_EScrollingText@@UAEPAXI@Z 0047afa0 f i scrollingtext.obj
 0001:00079fa0       ??_GScrollingText@@UAEPAXI@Z 0047afa0 f i scrollingtext.obj
 0001:00079fc0       ??1ScrollingText@@UAE@XZ   0047afc0 f   scrollingtext.obj
 0001:00079fd0       ?SetTextIndex@ScrollingText@@QAEXH@Z 0047afd0 f   scrollingtext.obj
 0001:00079ff0       ?Start@ScrollingText@@QAEXXZ 0047aff0 f   scrollingtext.obj
 0001:0007a030       ?Stop@ScrollingText@@QAEXXZ 0047b030 f   scrollingtext.obj
 0001:0007a080       ?Update@ScrollingText@@QAEXI@Z 0047b080 f   scrollingtext.obj
 0001:0007a0c0       ?ClipText@ScrollingText@@AAEXHH@Z 0047b0c0 f   scrollingtext.obj
 0001:0007a280       ??0Slider@@QAE@W4eSliderType@0@@Z 0047b280 f   slider.obj
 0001:0007a2b0       ?SetScroobyPolygon@Slider@@QAEXPAVPolygon@Scrooby@@PAVSprite@3@@Z 0047b2b0 f   slider.obj
 0001:0007a370       ?SetValue@Slider@@UAEXM@Z  0047b370 f   slider.obj
 0001:0007a540       ??0ImageSlider@@QAE@W4eSliderType@Slider@@@Z 0047b540 f   slider.obj
 0001:0007a550       ?SetValue@ImageSlider@@UAEXM_N@Z 0047b550 f   slider.obj
 0001:0007a810       ?Flash@GuiSFX@@YA_NPAVBoundedDrawable@Scrooby@@MMHMM@Z 0047b810 f   specialfx.obj
 0001:0007a8c0       ?Blink@GuiSFX@@YA_NPAVDrawable@Scrooby@@MM_N@Z 0047b8c0 f   specialfx.obj
 0001:0007a930       ?Pulse@GuiSFX@@YAMMMMMM@Z  0047b930 f   specialfx.obj
 0001:0007a950       ?ModulateColour@GuiSFX@@YAXPAUpddiColour@@MMU2@1M@Z 0047b950 f   specialfx.obj
 0001:0007aa40       ?Spiral@GuiSFX@@YA_NPAVBoundedDrawable@Scrooby@@MMMMM_N@Z 0047ba40 f   specialfx.obj
 0001:0007ab40       ?SlideX@GuiSFX@@YA_NPAVDrawable@Scrooby@@MM_NHH@Z 0047bb40 f   specialfx.obj
 0001:0007ac00       ?SlideY@GuiSFX@@YA_NPAVDrawable@Scrooby@@MM_NHH@Z 0047bc00 f   specialfx.obj
 0001:0007acc0       ?Projectile@GuiSFX@@YAXPAVDrawable@Scrooby@@MMVVector@RadicalMathLibrary@@_NM@Z 0047bcc0 f   specialfx.obj
 0001:0007ad10       ?Projectile@GuiSFX@@YAXPAVDrawable@Scrooby@@MMVVector@RadicalMathLibrary@@1_NM@Z 0047bd10 f   specialfx.obj
 0001:0007ad90       ??D@YA?AUpddiColour@@U0@M@Z 0047bd90 f i transitions.obj
 0001:0007ae20       ??0Chainable@GuiSFX@@QAE@XZ 0047be20 f   transitions.obj
 0001:0007ae30       ??0Chainable@GuiSFX@@QAE@ABVtName@@@Z 0047be30 f   transitions.obj
 0001:0007ae40       ??0Chainable1@GuiSFX@@QAE@XZ 0047be40 f   transitions.obj
 0001:0007ae60       ??0Chainable1@GuiSFX@@QAE@ABVtName@@@Z 0047be60 f   transitions.obj
 0001:0007ae70       ?ContinueChain@Chainable1@GuiSFX@@UAEXXZ 0047be70 f   transitions.obj
 0001:0007ae90       ?IsChainDone@Chainable1@GuiSFX@@UBE_NXZ 0047be90 f   transitions.obj
 0001:0007aeb0       ??0Chainable2@GuiSFX@@QAE@XZ 0047beb0 f   transitions.obj
 0001:0007aed0       ?ContinueChain@Chainable2@GuiSFX@@UAEXXZ 0047bed0 f   transitions.obj
 0001:0007af00       ?IsChainDone@Chainable2@GuiSFX@@UBE_NXZ 0047bf00 f   transitions.obj
 0001:0007af40       ?SetNextTransition@Chainable2@GuiSFX@@QAEXIPAVChainable@2@@Z 0047bf40 f   transitions.obj
 0001:0007af50       ?SetNextTransition@Chainable2@GuiSFX@@QAEXIAAVChainable@2@@Z 0047bf50 f   transitions.obj
 0001:0007af60       ??0ColorChange@GuiSFX@@QAE@ABVtName@@@Z 0047bf60 f   transitions.obj
 0001:0007af80       ?SetSpeedLimit@Lane@@UAEXM@Z 0047bf80 f   lane.obj
 0001:0007af80       ?SetFadeInTime@reverbSettings@@UAEXM@Z 0047bf80 f   reverbsettings.obj
 0001:0007af80       ?SetFootPlantJointIndex@RigLeg@choreo@@QAEXH@Z 0047bf80 f   choreowr:rig.obj
 0001:0007af80       ?SetEndColour@ColorChange@GuiSFX@@QAEXUpddiColour@@@Z 0047bf80 f   transitions.obj
 0001:0007af80       ?SetMinDistance@positionalSoundSettings@@UAEXM@Z 0047bf80 f   positionalsoundsettings.obj
 0001:0007af90       ?Update@ColorChange@GuiSFX@@UAEXM@Z 0047bf90 f   transitions.obj
 0001:0007b0b0       ?ResetMultiControllerFrames@HasMulticontroller@GuiSFX@@IAEXXZ 0047c0b0 f   transitions.obj
 0001:0007b0c0       ?SetMultiController@HasMulticontroller@GuiSFX@@QAEXPAVtMultiController@@@Z 0047c0c0 f   transitions.obj
 0001:0007b0d0       ??0HasTimeInterval@GuiSFX@@QAE@XZ 0047c0d0 f   transitions.obj
 0001:0007b0e0       ??0Hide@GuiSFX@@QAE@XZ     0047c0e0 f   transitions.obj
 0001:0007b0f0       ??0Hide@GuiSFX@@QAE@ABVtName@@@Z 0047c0f0 f   transitions.obj
 0001:0007b100       ?Activate@Hide@GuiSFX@@UAEXXZ 0047c100 f   transitions.obj
 0001:0007b120       ??0IrisWipeClose@GuiSFX@@QAE@ABVtName@@@Z 0047c120 f   transitions.obj
 0001:0007b130       ?Activate@IrisWipeClose@GuiSFX@@UAEXXZ 0047c130 f   transitions.obj
 0001:0007b170       ?Deactivate@IrisWipeClose@GuiSFX@@UAEXXZ 0047c170 f   transitions.obj
 0001:0007b180       ?Update@IrisWipeClose@GuiSFX@@UAEXM@Z 0047c180 f   transitions.obj
 0001:0007b1d0       ??0IrisWipeOpen@GuiSFX@@QAE@XZ 0047c1d0 f   transitions.obj
 0001:0007b1e0       ??0IrisWipeOpen@GuiSFX@@QAE@ABVtName@@@Z 0047c1e0 f   transitions.obj
 0001:0007b1f0       ?Activate@IrisWipeOpen@GuiSFX@@UAEXXZ 0047c1f0 f   transitions.obj
 0001:0007b260       ?Update@IrisWipeOpen@GuiSFX@@UAEXM@Z 0047c260 f   transitions.obj
 0001:0007b2a0       ?Activate@Junction2@GuiSFX@@UAEXXZ 0047c2a0 f   transitions.obj
 0001:0007b2b0       ??0Pause@GuiSFX@@QAE@XZ    0047c2b0 f   transitions.obj
 0001:0007b2d0       ??0Pause@GuiSFX@@QAE@ABVtName@@@Z 0047c2d0 f   transitions.obj
 0001:0007b2f0       ?Update@Pause@GuiSFX@@UAEXM@Z 0047c2f0 f   transitions.obj
 0001:0007b360       ??0PulseScale@GuiSFX@@QAE@ABVtName@@@Z 0047c360 f   transitions.obj
 0001:0007b390       ?SetDrawable@PulseScale@GuiSFX@@UAEXAAVDrawable@Scrooby@@@Z 0047c390 f   transitions.obj
 0001:0007b3e0       ?SetDrawable@PulseScale@GuiSFX@@UAEXPAVDrawable@Scrooby@@@Z 0047c3e0 f   transitions.obj
 0001:0007b410       ?Update@PulseScale@GuiSFX@@UAEXM@Z 0047c410 f   transitions.obj
 0001:0007b470       ??_ERecieveEvent@GuiSFX@@UAEPAXI@Z 0047c470 f i transitions.obj
 0001:0007b470       ??_GRecieveEvent@GuiSFX@@UAEPAXI@Z 0047c470 f i transitions.obj
 0001:0007b4a0       ??1RecieveEvent@GuiSFX@@UAE@XZ 0047c4a0 f i transitions.obj
 0001:0007b4b0       ??0RecieveEvent@GuiSFX@@QAE@ABVtName@@@Z 0047c4b0 f   transitions.obj
 0001:0007b4e0       ?Activate@RecieveEvent@GuiSFX@@UAEXXZ 0047c4e0 f   transitions.obj
 0001:0007b500       ?HandleEvent@RecieveEvent@GuiSFX@@UAEXW4EventEnum@@PAX@Z 0047c500 f   transitions.obj
 0001:0007b530       ??0ResumeGame@GuiSFX@@QAE@ABVtName@@@Z 0047c530 f   transitions.obj
 0001:0007b540       ?Activate@ResumeGame@GuiSFX@@UAEXXZ 0047c540 f   transitions.obj
 0001:0007b560       ??0SendEvent@GuiSFX@@QAE@XZ 0047c560 f   transitions.obj
 0001:0007b580       ??0SendEvent@GuiSFX@@QAE@ABVtName@@@Z 0047c580 f   transitions.obj
 0001:0007b5a0       ?Activate@SendEvent@GuiSFX@@UAEXXZ 0047c5a0 f   transitions.obj
 0001:0007b5d0       ??0Show@GuiSFX@@QAE@XZ     0047c5d0 f   transitions.obj
 0001:0007b5e0       ??0Show@GuiSFX@@QAE@ABVtName@@@Z 0047c5e0 f   transitions.obj
 0001:0007b5f0       ?Activate@Show@GuiSFX@@UAEXXZ 0047c5f0 f   transitions.obj
 0001:0007b610       ??0Spin@GuiSFX@@QAE@XZ     0047c610 f   transitions.obj
 0001:0007b650       ?SetDrawable@Spin@GuiSFX@@UAEXPAVDrawable@Scrooby@@@Z 0047c650 f   transitions.obj
 0001:0007b680       ?Update@Spin@GuiSFX@@UAEXM@Z 0047c680 f   transitions.obj
 0001:0007b710       ??0Transition@GuiSFX@@QAE@XZ 0047c710 f   transitions.obj
 0001:0007b730       ??0Transition@GuiSFX@@QAE@ABVtName@@@Z 0047c730 f   transitions.obj
 0001:0007b750       ?Activate@Transition@GuiSFX@@UAEXXZ 0047c750 f   transitions.obj
 0001:0007b770       ?Deactivate@Transition@GuiSFX@@UAEXXZ 0047c770 f   transitions.obj
 0001:0007b780       ?IsActive@Transition@GuiSFX@@QBE_NXZ 0047c780 f   transitions.obj
 0001:0007b790       ?IsDone@Transition@GuiSFX@@QBE_NXZ 0047c790 f   transitions.obj
 0001:0007b7a0       ?Reset@Transition@GuiSFX@@QAEXXZ 0047c7a0 f   transitions.obj
 0001:0007b7c0       ?SetDrawable@Transition@GuiSFX@@UAEXPAVDrawable@Scrooby@@@Z 0047c7c0 f   transitions.obj
 0001:0007b7c0       ?SetDrawable@Transition@GuiSFX@@UAEXAAVDrawable@Scrooby@@@Z 0047c7c0 f   transitions.obj
 0001:0007b7d0       ?Update@Transition@GuiSFX@@UAEXM@Z 0047c7d0 f   transitions.obj
 0001:0007b7f0       ??0Translator@GuiSFX@@QAE@XZ 0047c7f0 f   transitions.obj
 0001:0007b820       ??0Translator@GuiSFX@@QAE@ABVtName@@@Z 0047c820 f   transitions.obj
 0001:0007b850       ??1Translator@GuiSFX@@QAE@XZ 0047c850 f   transitions.obj
 0001:0007b860       ?MateCoordsEnd@Translator@GuiSFX@@QAEXPBVHasBoundingBox@Scrooby@@@Z 0047c860 f   transitions.obj
 0001:0007b870       ?SetCoordsEnd@Translator@GuiSFX@@QAEXHH@Z 0047c870 f   transitions.obj
 0001:0007b890       ?SetCoordsStart@Translator@GuiSFX@@QAEXHH@Z 0047c890 f   transitions.obj
 0001:0007b8b0       ?SetEndOffscreenTop@Translator@GuiSFX@@QAEXPBVDrawable@Scrooby@@@Z 0047c8b0 f   transitions.obj
 0001:0007b8f0       ?SetStartOffscreenBottom@Translator@GuiSFX@@QAEXPBVDrawable@Scrooby@@@Z 0047c8f0 f   transitions.obj
 0001:0007b930       ?SetStartOffscreenRight@Translator@GuiSFX@@QAEXPBVDrawable@Scrooby@@@Z 0047c930 f   transitions.obj
 0001:0007b970       ?SetStartOffscreenTop@Translator@GuiSFX@@QAEXPBVDrawable@Scrooby@@@Z 0047c970 f   transitions.obj
 0001:0007b9b0       ?Update@Translator@GuiSFX@@UAEXM@Z 0047c9b0 f   transitions.obj
 0001:0007bab0       ??0UnderdampedTranslator@GuiSFX@@QAE@XZ 0047cab0 f   transitions.obj
 0001:0007bac0       ??0UnderdampedTranslator@GuiSFX@@QAE@ABVtName@@@Z 0047cac0 f   transitions.obj
 0001:0007bad0       ?Update@UnderdampedTranslator@GuiSFX@@UAEXM@Z 0047cad0 f   transitions.obj
 0001:0007bbf0       ??0CGuiManagerBootUp@@QAE@PAVProject@Scrooby@@PAVCGuiEntity@@@Z 0047cbf0 f   guimanagerbootup.obj
 0001:0007bc50       ??_ECGuiManagerBootUp@@UAEPAXI@Z 0047cc50 f i guimanagerbootup.obj
 0001:0007bc50       ??_GCGuiManagerBootUp@@UAEPAXI@Z 0047cc50 f i guimanagerbootup.obj
 0001:0007bc70       ??1?$queue@W4eGuiWindowID@CGuiWindow@@V?$deque@W4eGuiWindowID@CGuiWindow@@V?$s2alloc@W4eGuiWindowID@CGuiWindow@@@@@std@@@std@@QAE@XZ 0047cc70 f i guimanagerbootup.obj
 0001:0007bc80       ??1CGuiManagerBootUp@@UAE@XZ 0047cc80 f   guimanagerbootup.obj
 0001:0007bd10       ?Populate@CGuiManagerBootUp@@UAEXXZ 0047cd10 f   guimanagerbootup.obj
 0001:0007bf80       ?Start@CGuiManagerBootUp@@UAEXW4eGuiWindowID@CGuiWindow@@@Z 0047cf80 f   guimanagerbootup.obj
 0001:0007c030       ?HandleMessage@CGuiManagerBootUp@@UAEXW4eGuiMessage@@II@Z 0047d030 f   guimanagerbootup.obj
 0001:0007c1a0       ?PopNextScreenInQueue@CGuiManagerBootUp@@AAE?AW4eGuiWindowID@CGuiWindow@@XZ 0047d1a0 f   guimanagerbootup.obj
 0001:0007c240       ?push_back@?$deque@W4eGuiWindowID@CGuiWindow@@V?$s2alloc@W4eGuiWindowID@CGuiWindow@@@@@std@@QAEXABW4eGuiWindowID@CGuiWindow@@@Z 0047d240 f i guimanagerbootup.obj
 0001:0007c2c0       ?_Tidy@?$deque@W4eGuiWindowID@CGuiWindow@@V?$s2alloc@W4eGuiWindowID@CGuiWindow@@@@@std@@IAEXXZ 0047d2c0 f i guimanagerbootup.obj
 0001:0007c320       ?_Growmap@?$deque@W4eGuiWindowID@CGuiWindow@@V?$s2alloc@W4eGuiWindowID@CGuiWindow@@@@@std@@IAEXI@Z 0047d320 f i guimanagerbootup.obj
 0001:0007c430       ?_Xlen@?$deque@W4eGuiWindowID@CGuiWindow@@V?$s2alloc@W4eGuiWindowID@CGuiWindow@@@@@std@@IBEXXZ 0047d430 f i guimanagerbootup.obj
 0001:0007c4b0       ?_Uninit_copy@std@@YAPAPAW4eGuiWindowID@CGuiWindow@@PAPAW423@00AAV?$s2alloc@PAW4eGuiWindowID@CGuiWindow@@@@U_Nonscalar_ptr_iterator_tag@1@@Z 0047d4b0 f i guimanagerbootup.obj
 0001:0007c4d0       ??_ECGuiManagerBootUp@@WBA@AEPAXI@Z 0047d4d0 f i guimanagerbootup.obj
 0001:0007c4e0       ??0CGuiScreenLanguage@@QAE@PAVScreen@Scrooby@@PAVCGuiEntity@@@Z 0047d4e0 f   guiscreenlanguage.obj
 0001:0007c620       ??_GCGuiScreenLanguage@@UAEPAXI@Z 0047d620 f i guiscreenlanguage.obj
 0001:0007c620       ??_ECGuiScreenLanguage@@UAEPAXI@Z 0047d620 f i guiscreenlanguage.obj
 0001:0007c640       ??1CGuiScreenLanguage@@UAE@XZ 0047d640 f   guiscreenlanguage.obj
 0001:0007c6b0       ?HandleMessage@CGuiScreenLanguage@@UAEXW4eGuiMessage@@II@Z 0047d6b0 f   guiscreenlanguage.obj
 0001:0007c710       ??0CGuiScreenLicense@@QAE@PAVScreen@Scrooby@@PAVCGuiEntity@@@Z 0047d710 f   guiscreenlicense.obj
 0001:0007c7a0       ??_ECGuiScreenLicense@@UAEPAXI@Z 0047d7a0 f i guiscreenlicense.obj
 0001:0007c7a0       ??_GCGuiScreenLicense@@UAEPAXI@Z 0047d7a0 f i guiscreenlicense.obj
 0001:0007c7c0       ??1CGuiScreenLicense@@UAE@XZ 0047d7c0 f   guiscreenlicense.obj
 0001:0007c7d0       ?HandleMessage@CGuiScreenLicense@@UAEXW4eGuiMessage@@II@Z 0047d7d0 f   guiscreenlicense.obj
 0001:0007c7e0       ?InitRunning@CGuiScreenLicense@@MAEXXZ 0047d7e0 f   guiscreenlicense.obj
 0001:0007c7f0       ??0CGuiManagerMiniGame@@QAE@PAVProject@Scrooby@@PAVCGuiEntity@@@Z 0047d7f0 f   guimanagerminigame.obj
 0001:0007c860       ??_ECGuiManagerMiniGame@@UAEPAXI@Z 0047d860 f i guimanagerminigame.obj
 0001:0007c860       ??_GCGuiManagerMiniGame@@UAEPAXI@Z 0047d860 f i guimanagerminigame.obj
 0001:0007c880       ??1CGuiManagerMiniGame@@UAE@XZ 0047d880 f   guimanagerminigame.obj
 0001:0007c900       ?Populate@CGuiManagerMiniGame@@UAEXXZ 0047d900 f   guimanagerminigame.obj
 0001:0007caf0       ?Start@CGuiManagerMiniGame@@UAEXW4eGuiWindowID@CGuiWindow@@@Z 0047daf0 f   guimanagerminigame.obj
 0001:0007cb30       ?HandleMessage@CGuiManagerMiniGame@@UAEXW4eGuiMessage@@II@Z 0047db30 f   guimanagerminigame.obj
 0001:0007cc80       ?LoadCharacters@CGuiManagerMiniGame@@SAXXZ 0047dc80 f   guimanagerminigame.obj
 0001:0007ccd0       ?UnloadCharacters@CGuiManagerMiniGame@@SAXXZ 0047dcd0 f   guimanagerminigame.obj
 0001:0007cd00       ??_ECGuiManagerMiniGame@@WBA@AEPAXI@Z 0047dd00 f i guimanagerminigame.obj
 0001:0007cd10       ??0CGuiScreenMiniHud@@QAE@PAVScreen@Scrooby@@PAVCGuiEntity@@@Z 0047dd10 f   guiscreenminihud.obj
 0001:0007cd30       ??_GCGuiScreenMiniHud@@UAEPAXI@Z 0047dd30 f i guiscreenminihud.obj
 0001:0007cd30       ??_ECGuiScreenMiniHud@@UAEPAXI@Z 0047dd30 f i guiscreenminihud.obj
 0001:0007cd50       ??1CGuiScreenMiniHud@@UAE@XZ 0047dd50 f   guiscreenminihud.obj
 0001:0007cd60       ?HandleMessage@CGuiScreenMiniHud@@UAEXW4eGuiMessage@@II@Z 0047dd60 f   guiscreenminihud.obj
 0001:0007cdb0       ??0PlayerMenu@@QAE@XZ      0047ddb0 f   guiscreenminimenu.obj
 0001:0007cdd0       ?HandleMessage@PlayerMenu@@QAEXW4eGuiMessage@@II@Z 0047ddd0 f   guiscreenminimenu.obj
 0001:0007cdf0       ?GetCurrentSubMenu@PlayerMenu@@QBEPAVCGuiMenu@@XZ 0047ddf0 f   guiscreenminimenu.obj
 0001:0007ce00       ?SetActive@PlayerMenu@@QAEX_NH@Z 0047de00 f   guiscreenminimenu.obj
 0001:0007ce60       ??0CGuiScreenMiniMenu@@QAE@PAVScreen@Scrooby@@PAVCGuiEntity@@@Z 0047de60 f   guiscreenminimenu.obj
 0001:0007d410       ??_GCGuiScreenMiniMenu@@UAEPAXI@Z 0047e410 f i guiscreenminimenu.obj
 0001:0007d410       ??_ECGuiScreenMiniMenu@@UAEPAXI@Z 0047e410 f i guiscreenminimenu.obj
 0001:0007d430       ??1CGuiScreenMiniMenu@@UAE@XZ 0047e430 f   guiscreenminimenu.obj
 0001:0007d500       ?HandleMessage@CGuiScreenMiniMenu@@UAEXW4eGuiMessage@@II@Z 0047e500 f   guiscreenminimenu.obj
 0001:0007d8e0       ?InitIntro@CGuiScreenMiniMenu@@MAEXXZ 0047e8e0 f   guiscreenminimenu.obj
 0001:0007d990       ?InitRunning@CGuiScreenMiniMenu@@MAEXXZ 0047e990 f   guiscreenminimenu.obj
 0001:0007dae0       ?InitOutro@CGuiScreenMiniMenu@@MAEXXZ 0047eae0 f   guiscreenminimenu.obj
 0001:0007db70       ?UpdateCharacterSlots@CGuiScreenMiniMenu@@AAEXXZ 0047eb70 f   guiscreenminimenu.obj
 0001:0007dc50       ?SetTrackSelectionEnabled@CGuiScreenMiniMenu@@AAEX_N@Z 0047ec50 f   guiscreenminimenu.obj
 0001:0007dc70       ?OnTrackSelected@CGuiScreenMiniMenu@@AAEXXZ 0047ec70 f   guiscreenminimenu.obj
 0001:0007dcd0       ?ActivateNewPlayer@CGuiScreenMiniMenu@@AAEXH@Z 0047ecd0 f   guiscreenminimenu.obj
 0001:0007dd40       ?SetTimerEnabled@CGuiScreenMiniMenu@@AAEX_N@Z 0047ed40 f   guiscreenminimenu.obj
 0001:0007dd70       ?AddUnlockedVehicle@CGuiScreenMiniMenu@@AAEXPAVReward@@@Z 0047ed70 f   guiscreenminimenu.obj
 0001:0007dd90       ?PrepareVehicleSelections@CGuiScreenMiniMenu@@AAEXXZ 0047ed90 f   guiscreenminimenu.obj
 0001:0007de40       ?UpdateVehicleDisplayNames@CGuiScreenMiniMenu@@AAEXHPAVText@Scrooby@@@Z 0047ee40 f   guiscreenminimenu.obj
 0001:0007df40       ?GetPlayerMenuID@CGuiScreenMiniMenu@@ABEHH@Z 0047ef40 f   guiscreenminimenu.obj
 0001:0007df60       ??0CGuiScreenMiniPause@@QAE@PAVScreen@Scrooby@@PAVCGuiEntity@@@Z 0047ef60 f   guiscreenminipause.obj
 0001:0007e0e0       ??_GCGuiScreenMiniPause@@UAEPAXI@Z 0047f0e0 f i guiscreenminipause.obj
 0001:0007e0e0       ??_ECGuiScreenMiniPause@@UAEPAXI@Z 0047f0e0 f i guiscreenminipause.obj
 0001:0007e100       ??1CGuiScreenMiniPause@@UAE@XZ 0047f100 f   guiscreenminipause.obj
 0001:0007e170       ?HandleMessage@CGuiScreenMiniPause@@UAEXW4eGuiMessage@@II@Z 0047f170 f   guiscreenminipause.obj
 0001:0007e1f0       ?InitIntro@CGuiScreenMiniPause@@MAEXXZ 0047f1f0 f   guiscreenminipause.obj
 0001:0007e200       ?ResumeGame@CGuiScreenMiniPause@@AAEXXZ 0047f200 f   guiscreenminipause.obj
 0001:0007e230       ?QuitGame@CGuiScreenMiniPause@@AAEXXZ 0047f230 f   guiscreenminipause.obj
 0001:0007e250       ?SetVisible@PlayerDisplayInfo@CGuiScreenMiniSummary@@QAEX_N@Z 0047f250 f   guiscreenminisummary.obj
 0001:0007e2f0       ?CompareScores@PlayerRanking@CGuiScreenMiniSummary@@SAHHHHH@Z 0047f2f0 f   guiscreenminisummary.obj
 0001:0007e310       ??0CGuiScreenMiniSummary@@QAE@PAVScreen@Scrooby@@PAVCGuiEntity@@@Z 0047f310 f   guiscreenminisummary.obj
 0001:0007e660       ??_ECGuiScreenMiniSummary@@UAEPAXI@Z 0047f660 f i guiscreenminisummary.obj
 0001:0007e660       ??_GCGuiScreenMiniSummary@@UAEPAXI@Z 0047f660 f i guiscreenminisummary.obj
 0001:0007e680       ??1CGuiScreenMiniSummary@@UAE@XZ 0047f680 f   guiscreenminisummary.obj
 0001:0007e690       ?HandleMessage@CGuiScreenMiniSummary@@UAEXW4eGuiMessage@@II@Z 0047f690 f   guiscreenminisummary.obj
 0001:0007e730       ?InitIntro@CGuiScreenMiniSummary@@MAEXXZ 0047f730 f   guiscreenminisummary.obj
 0001:0007e770       ?UpdateDisplayInfo@CGuiScreenMiniSummary@@AAEXHH@Z 0047f770 f   guiscreenminisummary.obj
 0001:0007e9c0       ?ResetCurrentRankings@CGuiScreenMiniSummary@@AAEXXZ 0047f9c0 f   guiscreenminisummary.obj
 0001:0007e9e0       ?InsertPlayerRanking@CGuiScreenMiniSummary@@AAEXH@Z 0047f9e0 f   guiscreenminisummary.obj
 0001:0007ea90       ?Release@DialogQueueElement@@UAEXXZ 0047fa90 f i dialogqueueelement.obj
 0001:0007ea90       ?Release@daSoundPlayerManager@Sound@@UAEXXZ 0047fa90 f i playermanager.obj
 0001:0007ea90       ?Release@FMVPlayer@@EAEXXZ 0047fa90 f i fmvplayer.obj
 0001:0007eab0       ?PreLoad@FMVPlayer@@UAEXXZ 0047fab0 f i fmvplayer.obj
